0000000100f24f08 s GCC_except_table0
0000000100f24ffc s GCC_except_table0
0000000100f25234 s GCC_except_table0
0000000100f25420 s GCC_except_table0
0000000100f24f1c s GCC_except_table1
0000000100f24f3c s GCC_except_table1
0000000100f25024 s GCC_except_table1
0000000100f251b4 s GCC_except_table1
0000000100f25248 s GCC_except_table1
0000000100f253ec s GCC_except_table1
0000000100f253f8 s GCC_except_table1
0000000100f25414 s GCC_except_table10
0000000100f254b8 s GCC_except_table101
0000000100f259dc s GCC_except_table1097
0000000100f25054 s GCC_except_table11
0000000100f251f4 s GCC_except_table11
0000000100f25378 s GCC_except_table11
0000000100f254c4 s GCC_except_table112
0000000100f259f4 s GCC_except_table1173
0000000100f254d0 s GCC_except_table119
0000000100f25060 s GCC_except_table12
0000000100f251a0 s GCC_except_table12
0000000100f25208 s GCC_except_table12
0000000100f25354 s GCC_except_table144
0000000100f252e0 s GCC_except_table16
0000000100f253ac s GCC_except_table16
0000000100f254dc s GCC_except_table161
0000000100f254e8 s GCC_except_table163
0000000100f254f4 s GCC_except_table173
0000000100f25508 s GCC_except_table194
0000000100f25518 s GCC_except_table196
0000000100f24fc0 s GCC_except_table2
0000000100f250c0 s GCC_except_table2
0000000100f250e0 s GCC_except_table2
0000000100f25528 s GCC_except_table201
0000000100f25170 s GCC_except_table22
0000000100f25538 s GCC_except_table221
0000000100f25548 s GCC_except_table224
0000000100f2555c s GCC_except_table227
0000000100f25570 s GCC_except_table229
0000000100f2557c s GCC_except_table237
0000000100f255ac s GCC_except_table240
0000000100f255c8 s GCC_except_table241
0000000100f255dc s GCC_except_table258
0000000100f25080 s GCC_except_table26
0000000100f252f0 s GCC_except_table26
0000000100f255ec s GCC_except_table267
0000000100f25030 s GCC_except_table3
0000000100f250f0 s GCC_except_table3
0000000100f25408 s GCC_except_table3
0000000100f25a2c s GCC_except_table3
0000000100f2517c s GCC_except_table30
0000000100f253bc s GCC_except_table30
0000000100f25338 s GCC_except_table32
0000000100f25608 s GCC_except_table327
0000000100f2561c s GCC_except_table329
0000000100f25a5c s GCC_except_table33
0000000100f25388 s GCC_except_table34
0000000100f25188 s GCC_except_table35
0000000100f25098 s GCC_except_table36
0000000100f250b0 s GCC_except_table37
0000000100f253cc s GCC_except_table37
0000000100f25a68 s GCC_except_table37
0000000100f25a78 s GCC_except_table38
0000000100f2506c s GCC_except_table4
0000000100f250d0 s GCC_except_table4
0000000100f25104 s GCC_except_table4
0000000100f2514c s GCC_except_table4
0000000100f25258 s GCC_except_table4
0000000100f253dc s GCC_except_table44
0000000100f25630 s GCC_except_table449
0000000100f2564c s GCC_except_table451
0000000100f25668 s GCC_except_table467
0000000100f2539c s GCC_except_table48
0000000100f2503c s GCC_except_table5
0000000100f25118 s GCC_except_table5
0000000100f2527c s GCC_except_table5
0000000100f25680 s GCC_except_table501
0000000100f25694 s GCC_except_table508
0000000100f25194 s GCC_except_table51
0000000100f256bc s GCC_except_table525
0000000100f256e8 s GCC_except_table527
0000000100f25738 s GCC_except_table534
0000000100f25748 s GCC_except_table535
0000000100f25768 s GCC_except_table536
0000000100f25780 s GCC_except_table537
0000000100f25790 s GCC_except_table538
0000000100f2512c s GCC_except_table6
0000000100f2529c s GCC_except_table6
0000000100f252d0 s GCC_except_table6
0000000100f25318 s GCC_except_table6
0000000100f25368 s GCC_except_table6
0000000100f25468 s GCC_except_table63
0000000100f2547c s GCC_except_table64
0000000100f2513c s GCC_except_table7
0000000100f251d4 s GCC_except_table7
0000000100f25214 s GCC_except_table7
0000000100f252bc s GCC_except_table7
0000000100f25300 s GCC_except_table7
0000000100f25434 s GCC_except_table7
0000000100f25458 s GCC_except_table7
0000000100f25a38 s GCC_except_table7
0000000100f25490 s GCC_except_table77
0000000100f2549c s GCC_except_table79
0000000100f251e4 s GCC_except_table8
0000000100f2530c s GCC_except_table8
0000000100f25348 s GCC_except_table83
0000000100f257a0 s GCC_except_table872
0000000100f257b8 s GCC_except_table873
0000000100f257e0 s GCC_except_table875
0000000100f25048 s GCC_except_table9
0000000100f25a50 s GCC_except_table9
0000000100f2544c s GCC_except_table9
0000000100f257fc s GCC_except_table905
0000000100f25818 s GCC_except_table907
0000000100f25834 s GCC_except_table909
0000000100f2584c s GCC_except_table910
0000000100f25860 s GCC_except_table912
0000000100f25870 s GCC_except_table926
0000000100f2589c s GCC_except_table927
0000000100f254a8 s GCC_except_table93
0000000100f258d0 s GCC_except_table933
0000000100f25900 s GCC_except_table948
0000000100f25914 s GCC_except_table956
0000000100f2595c s GCC_except_table957
0000000100f2598c s GCC_except_table963
0000000100f259a0 s GCC_except_table964
0000000100f259b0 s GCC_except_table965
0000000100f259c0 s GCC_except_table974
00000001015a95f0 S _ANDIGlueBug
00000001015ab210 S _EmitJalrReloc
00000001015aabf0 S _EnableAArch64ELFLocalDynamicTLSGeneration
00000001015af1e0 S _EnableIPRA
00000001015ab0d0 S _HardenLoads
0000000100d786f0 T _LLVMAddFunction
0000000100d78880 T _LLVMAppendBasicBlockInContext
0000000100d78ec0 T _LLVMBuildAdd
0000000100d78e50 T _LLVMBuildRet
0000000100d78df0 T _LLVMBuildRetVoid
0000000100d77b60 T _LLVMContextCreate
0000000100d77b90 T _LLVMContextDispose
0000000100d787a0 T _LLVMCountParams
0000000100d78b70 T _LLVMCreateBuilderInContext
0000000100658cd0 T _LLVMCreateJITCompilerForModule
0000000100d78dc0 T _LLVMDisposeBuilder
0000000100658dd0 T _LLVMDisposeExecutionEngine
0000000100d77c10 T _LLVMDisposeModule
0000000100d77e90 T _LLVMFunctionType
0000000100658f50 T _LLVMGetFunctionAddress
0000000100d78800 T _LLVMGetParam
0000000100d77e40 T _LLVMGetTypeKind
000000010000bdc0 t _LLVMInitializeNativeAsmParser
000000010000bde0 t _LLVMInitializeNativeAsmPrinter
000000010000be00 t _LLVMInitializeNativeDisassembler
000000010000bd90 t _LLVMInitializeNativeTarget
00000001000499d0 T _LLVMInitializeX86AsmParser
00000001000685c0 T _LLVMInitializeX86AsmPrinter
0000000100036d20 T _LLVMInitializeX86Disassembler
00000001002a02a0 T _LLVMInitializeX86Target
000000010060f440 T _LLVMInitializeX86TargetInfo
00000001005fb0d0 T _LLVMInitializeX86TargetMC
0000000100d77e80 T _LLVMInt64TypeInContext
0000000100d77ec0 T _LLVMIsAInstruction
000000010000be10 T _LLVMLinkInMCJIT
0000000100d77bc0 T _LLVMModuleCreateWithNameInContext
0000000100d78c90 T _LLVMPositionBuilderAtEnd
0000000100d77c40 T _LLVMPrintModuleToString
0000000100d78270 T _LLVMSetLinkage
0000000100d77eb0 T _LLVMTypeOf
000000010000bdb0 T _LLVM_InitializeNativeAsmParser
000000010000bdd0 T _LLVM_InitializeNativeAsmPrinter
000000010000bdf0 T _LLVM_InitializeNativeDisassembler
000000010000bd80 T _LLVM_InitializeNativeTarget
00000001015af2a0 S _MISchedPostRA
00000001015af548 S _PGOViewCounts
00000001015af7a0 S _PrintBlockFreqFuncName
00000001015af890 S _PrintBranchProbFuncName
00000001015aede8 S _ProfileLikelyProb
0000000101586c40 D _StartAfterOptName
0000000101586c48 D _StartBeforeOptName
00000001015aed28 S _StaticLikelyProb
0000000101586c50 D _StopAfterOptName
0000000101586c58 D _StopBeforeOptName
00000001015b1760 S _UseDbgAddr
00000001015af3a0 S _ViewBlockFreqFuncName
00000001015aeac8 S _ViewBlockLayoutWithBFI
00000001015af488 S _ViewHotFreqPercent
                 U __DefaultRuneLocale
000000010001da50 t __GLOBAL__sub_I_AArch64A57FPLoadBalancing.cpp
000000010001dd60 t __GLOBAL__sub_I_AArch64AdvSIMDScalarPass.cpp
000000010001e0b0 t __GLOBAL__sub_I_AArch64ConditionalCompares.cpp
000000010001e3b0 t __GLOBAL__sub_I_AArch64FalkorHWPFFix.cpp
000000010001e490 t __GLOBAL__sub_I_AArch64FrameLowering.cpp
000000010001eaa0 t __GLOBAL__sub_I_AArch64ISelLowering.cpp
000000010001eed0 t __GLOBAL__sub_I_AArch64InstrInfo.cpp
000000010001f340 t __GLOBAL__sub_I_AArch64LoadStoreOptimizer.cpp
0000000100025480 t __GLOBAL__sub_I_AArch64MCAsmInfo.cpp
000000010001f610 t __GLOBAL__sub_I_AArch64PromoteConstant.cpp
0000000100021de0 t __GLOBAL__sub_I_AArch64RegisterBankInfo.cpp
0000000100022300 t __GLOBAL__sub_I_AArch64SpeculationHardening.cpp
0000000100022480 t __GLOBAL__sub_I_AArch64Subtarget.cpp
0000000100022ae0 t __GLOBAL__sub_I_AArch64TargetMachine.cpp
0000000100024850 t __GLOBAL__sub_I_AArch64TargetTransformInfo.cpp
00000001000361f0 t __GLOBAL__sub_I_ARMAsmParser.cpp
0000000100031c00 t __GLOBAL__sub_I_ARMBaseInstrInfo.cpp
0000000100031d70 t __GLOBAL__sub_I_ARMCodeGenPrepare.cpp
00000001000323b0 t __GLOBAL__sub_I_ARMConstantIslandPass.cpp
0000000100032870 t __GLOBAL__sub_I_ARMExpandPseudoInsts.cpp
00000001000329e0 t __GLOBAL__sub_I_ARMFrameLowering.cpp
0000000100032b60 t __GLOBAL__sub_I_ARMISelDAGToDAG.cpp
0000000100032ce0 t __GLOBAL__sub_I_ARMISelLowering.cpp
00000001000338d0 t __GLOBAL__sub_I_ARMLoadStoreOptimizer.cpp
0000000100033750 t __GLOBAL__sub_I_ARMParallelDSP.cpp
0000000100033a50 t __GLOBAL__sub_I_ARMRegisterBankInfo.cpp
0000000100034660 t __GLOBAL__sub_I_ARMSubtarget.cpp
0000000100034a80 t __GLOBAL__sub_I_ARMTargetMachine.cpp
000000010069d0f0 t __GLOBAL__sub_I_AggressiveAntiDepBreaker.cpp
0000000100a761a0 t __GLOBAL__sub_I_AliasAnalysis.cpp
0000000100a76ff0 t __GLOBAL__sub_I_AliasSetTracker.cpp
0000000100c26d00 t __GLOBAL__sub_I_AsmParser.cpp
000000010058a130 t __GLOBAL__sub_I_AsmPrinter.cpp
0000000100a7b990 t __GLOBAL__sub_I_AssumptionCache.cpp
0000000100a85e60 t __GLOBAL__sub_I_BasicAliasAnalysis.cpp
00000001006a6f80 t __GLOBAL__sub_I_BasicTargetTransformInfo.cpp
0000000100ce0820 t __GLOBAL__sub_I_BitcodeReader.cpp
0000000100a90190 t __GLOBAL__sub_I_BlockFrequencyInfo.cpp
00000001006b16f0 t __GLOBAL__sub_I_BranchFolding.cpp
0000000100aa4490 t __GLOBAL__sub_I_BranchProbabilityInfo.cpp
00000001006bb4b0 t __GLOBAL__sub_I_CFIInstrInserter.cpp
0000000100ac0c50 t __GLOBAL__sub_I_CallGraphSCCPass.cpp
0000000100e91c30 t __GLOBAL__sub_I_CodeGenCoverage.cpp
00000001006ea560 t __GLOBAL__sub_I_CodeGenPrepare.cpp
0000000100e994b0 t __GLOBAL__sub_I_CommandLine.cpp
00000001009ca1c0 t __GLOBAL__sub_I_ConstantHoisting.cpp
0000000100ca8e30 t __GLOBAL__sub_I_ContinuationRecordBuilder.cpp
00000001003976e0 t __GLOBAL__sub_I_DAGCombiner.cpp
00000001006f3e30 t __GLOBAL__sub_I_DFAPacketizer.cpp
0000000100d7ecc0 t __GLOBAL__sub_I_DIBuilder.cpp
0000000100e9baa0 t __GLOBAL__sub_I_Debug.cpp
0000000100e9ed30 t __GLOBAL__sub_I_DebugCounter.cpp
0000000100ad0d80 t __GLOBAL__sub_I_DependenceAnalysis.cpp
0000000100d8f2b0 t __GLOBAL__sub_I_DiagnosticHandler.cpp
0000000100db9220 t __GLOBAL__sub_I_Dominators.cpp
00000001005c3640 t __GLOBAL__sub_I_DwarfDebug.cpp
00000001009cb9a0 t __GLOBAL__sub_I_EarlyCSE.cpp
00000001006fb270 t __GLOBAL__sub_I_EarlyIfConversion.cpp
00000001006fcc00 t __GLOBAL__sub_I_EdgeBundles.cpp
0000000100ea0fe0 t __GLOBAL__sub_I_ErrorHandling.cpp
000000010064ae10 t __GLOBAL__sub_I_Execution.cpp
00000001007045d0 t __GLOBAL__sub_I_ExpandMemCmp.cpp
00000001003a4b80 t __GLOBAL__sub_I_FastISel.cpp
000000010070bb80 t __GLOBAL__sub_I_GlobalMerge.cpp
0000000100ad86d0 t __GLOBAL__sub_I_GlobalsModRef.cpp
0000000100ea5000 t __GLOBAL__sub_I_GraphWriter.cpp
0000000100be86d0 t __GLOBAL__sub_I_IRSymtab.cpp
00000001002d97c0 t __GLOBAL__sub_I_IRTranslator.cpp
0000000100717910 t __GLOBAL__sub_I_IfConversion.cpp
000000010071a7d0 t __GLOBAL__sub_I_ImplicitNullChecks.cpp
0000000100adba60 t __GLOBAL__sub_I_InlineCost.cpp
0000000100a25070 t __GLOBAL__sub_I_InlineFunction.cpp
00000001007294b0 t __GLOBAL__sub_I_InlineSpiller.cpp
0000000100bc7b50 t __GLOBAL__sub_I_InstrProf.cpp
0000000100adc710 t __GLOBAL__sub_I_InstructionPrecedenceTracking.cpp
00000001002dbf20 t __GLOBAL__sub_I_InstructionSelect.cpp
000000010072d940 t __GLOBAL__sub_I_InterleavedAccessPass.cpp
0000000100733e70 t __GLOBAL__sub_I_InterleavedLoadCombinePass.cpp
00000001006501b0 t __GLOBAL__sub_I_Interpreter.cpp
0000000100a28930 t __GLOBAL__sub_I_LCSSA.cpp
00000001009cd720 t __GLOBAL__sub_I_LICM.cpp
00000001007809e0 t __GLOBAL__sub_I_LLVMTargetMachine.cpp
0000000100afa2e0 t __GLOBAL__sub_I_LegacyDivergenceAnalysis.cpp
0000000100df6150 t __GLOBAL__sub_I_LegacyPassManager.cpp
0000000100416fd0 t __GLOBAL__sub_I_LegalizeTypes.cpp
00000001002e19b0 t __GLOBAL__sub_I_Legalizer.cpp
00000001002f5290 t __GLOBAL__sub_I_LegalizerInfo.cpp
0000000100752260 t __GLOBAL__sub_I_LiveDebugVariables.cpp
000000010075c400 t __GLOBAL__sub_I_LiveIntervals.cpp
0000000100afb080 t __GLOBAL__sub_I_Loads.cpp
0000000100afc4e0 t __GLOBAL__sub_I_LoopAccessAnalysis.cpp
0000000100afccb0 t __GLOBAL__sub_I_LoopAnalysisManager.cpp
00000001009cde50 t __GLOBAL__sub_I_LoopDataPrefetch.cpp
0000000100b07c40 t __GLOBAL__sub_I_LoopInfo.cpp
00000001009f67d0 t __GLOBAL__sub_I_LoopStrengthReduce.cpp
0000000100c3c1b0 t __GLOBAL__sub_I_MCAsmInfo.cpp
0000000100c5ac70 t __GLOBAL__sub_I_MCContext.cpp
0000000100012c90 t __GLOBAL__sub_I_MCJIT.cpp
0000000100c81490 t __GLOBAL__sub_I_MCSymbol.cpp
00000001009031e0 t __GLOBAL__sub_I_MIRCanonicalizerPass.cpp
0000000100889400 t __GLOBAL__sub_I_MIRPrinter.cpp
0000000100035010 t __GLOBAL__sub_I_MLxExpansionPass.cpp
0000000100796d60 t __GLOBAL__sub_I_MachineBlockFrequencyInfo.cpp
00000001007aaa40 t __GLOBAL__sub_I_MachineBlockPlacement.cpp
00000001007ac160 t __GLOBAL__sub_I_MachineBranchProbabilityInfo.cpp
00000001007afa70 t __GLOBAL__sub_I_MachineCombiner.cpp
00000001007b4460 t __GLOBAL__sub_I_MachineCopyPropagation.cpp
00000001007bd9d0 t __GLOBAL__sub_I_MachineDominators.cpp
00000001007c6760 t __GLOBAL__sub_I_MachineFunction.cpp
00000001007dd250 t __GLOBAL__sub_I_MachineLICM.cpp
00000001007ee2b0 t __GLOBAL__sub_I_MachineOperand.cpp
00000001007f9370 t __GLOBAL__sub_I_MachineOutliner.cpp
0000000100823500 t __GLOBAL__sub_I_MachinePipeliner.cpp
0000000100836020 t __GLOBAL__sub_I_MachineRegisterInfo.cpp
000000010084c580 t __GLOBAL__sub_I_MachineScheduler.cpp
0000000100856e00 t __GLOBAL__sub_I_MachineSink.cpp
000000010088a6c0 t __GLOBAL__sub_I_MacroFusion.cpp
0000000100b13c30 t __GLOBAL__sub_I_MemoryDependenceAnalysis.cpp
0000000100b23ac0 t __GLOBAL__sub_I_MemorySSA.cpp
0000000100cf21b0 t __GLOBAL__sub_I_MetadataLoader.cpp
0000000100030e00 t __GLOBAL__sub_I_MicroMipsSizeReduction.cpp
00000001000255a0 t __GLOBAL__sub_I_Mips16ISelLowering.cpp
00000001000318c0 t __GLOBAL__sub_I_MipsABIInfo.cpp
0000000100027020 t __GLOBAL__sub_I_MipsBranchExpansion.cpp
00000001000257e0 t __GLOBAL__sub_I_MipsConstantIslandPass.cpp
0000000100026690 t __GLOBAL__sub_I_MipsDelaySlotFiller.cpp
0000000100026d40 t __GLOBAL__sub_I_MipsISelLowering.cpp
0000000100027300 t __GLOBAL__sub_I_MipsMachineFunction.cpp
0000000100027480 t __GLOBAL__sub_I_MipsOptimizePICCall.cpp
0000000100027760 t __GLOBAL__sub_I_MipsOs16.cpp
0000000100027920 t __GLOBAL__sub_I_MipsRegisterBankInfo.cpp
00000001000279e0 t __GLOBAL__sub_I_MipsSEISelLowering.cpp
0000000100027cb0 t __GLOBAL__sub_I_MipsSubtarget.cpp
000000010002f0f0 t __GLOBAL__sub_I_MipsTargetObjectFile.cpp
0000000100031a40 t __GLOBAL__sub_I_MipsTargetStreamer.cpp
0000000100b28cd0 t __GLOBAL__sub_I_ObjCARCAnalysisUtils.cpp
0000000100e22690 t __GLOBAL__sub_I_OptBisect.cpp
0000000100898b80 t __GLOBAL__sub_I_PHIElimination.cpp
0000000100013a80 t __GLOBAL__sub_I_PPCCTRLoops.cpp
0000000100019860 t __GLOBAL__sub_I_PPCExpandISEL.cpp
0000000100016150 t __GLOBAL__sub_I_PPCFrameLowering.cpp
0000000100014ef0 t __GLOBAL__sub_I_PPCISelDAGToDAG.cpp
0000000100015ae0 t __GLOBAL__sub_I_PPCISelLowering.cpp
000000010001bc50 t __GLOBAL__sub_I_PPCInstPrinter.cpp
0000000100013d80 t __GLOBAL__sub_I_PPCInstrInfo.cpp
00000001000162d0 t __GLOBAL__sub_I_PPCLoopPreIncPrep.cpp
0000000100019b70 t __GLOBAL__sub_I_PPCMCTargetDesc.cpp
0000000100016460 t __GLOBAL__sub_I_PPCMIPeephole.cpp
00000001000199e0 t __GLOBAL__sub_I_PPCPreEmitPeephole.cpp
00000001000169e0 t __GLOBAL__sub_I_PPCRegisterInfo.cpp
0000000100016f60 t __GLOBAL__sub_I_PPCSubtarget.cpp
0000000100017260 t __GLOBAL__sub_I_PPCTargetMachine.cpp
00000001000181f0 t __GLOBAL__sub_I_PPCTargetTransformInfo.cpp
0000000100018c00 t __GLOBAL__sub_I_PPCVSXFMAMutate.cpp
0000000100a01e80 t __GLOBAL__sub_I_PartiallyInlineLibCalls.cpp
0000000100e26cd0 t __GLOBAL__sub_I_PassTimingInfo.cpp
0000000100893640 t __GLOBAL__sub_I_PeepholeOptimizer.cpp
000000010089c3e0 t __GLOBAL__sub_I_PostRASchedulerList.cpp
0000000100b30120 t __GLOBAL__sub_I_ProfileSummaryInfo.cpp
00000001008a5690 t __GLOBAL__sub_I_PrologEpilogInserter.cpp
0000000100eaa3d0 t __GLOBAL__sub_I_RandomNumberGenerator.cpp
00000001008aa8b0 t __GLOBAL__sub_I_RegAllocBase.cpp
00000001008acd20 t __GLOBAL__sub_I_RegAllocBasic.cpp
00000001008b47e0 t __GLOBAL__sub_I_RegAllocFast.cpp
00000001008caf90 t __GLOBAL__sub_I_RegAllocGreedy.cpp
00000001008d9820 t __GLOBAL__sub_I_RegAllocPBQP.cpp
0000000100304b50 t __GLOBAL__sub_I_RegBankSelect.cpp
00000001008daa40 t __GLOBAL__sub_I_RegisterClassInfo.cpp
00000001008edca0 t __GLOBAL__sub_I_RegisterCoalescer.cpp
0000000100905a40 t __GLOBAL__sub_I_RegisterUsageInfo.cpp
00000001004508e0 t __GLOBAL__sub_I_ResourcePriorityQueue.cpp
000000010090e440 t __GLOBAL__sub_I_SafeStack.cpp
0000000100915680 t __GLOBAL__sub_I_SafeStackColoring.cpp
00000001009191d0 t __GLOBAL__sub_I_SafeStackLayout.cpp
0000000100e27df0 t __GLOBAL__sub_I_SafepointIRVerifier.cpp
0000000100bcd3e0 t __GLOBAL__sub_I_SampleProf.cpp
0000000100b830a0 t __GLOBAL__sub_I_ScalarEvolution.cpp
000000010091fae0 t __GLOBAL__sub_I_ScheduleDAG.cpp
000000010092a860 t __GLOBAL__sub_I_ScheduleDAGInstrs.cpp
000000010045eb50 t __GLOBAL__sub_I_ScheduleDAGRRList.cpp
0000000100468690 t __GLOBAL__sub_I_ScheduleDAGSDNodes.cpp
0000000100469980 t __GLOBAL__sub_I_ScheduleDAGVLIW.cpp
0000000100ba5390 t __GLOBAL__sub_I_ScopedNoAliasAA.cpp
0000000100513950 t __GLOBAL__sub_I_SelectionDAG.cpp
00000001004cb260 t __GLOBAL__sub_I_SelectionDAGBuilder.cpp
000000010051c350 t __GLOBAL__sub_I_SelectionDAGDumper.cpp
0000000100533d20 t __GLOBAL__sub_I_SelectionDAGISel.cpp
0000000100a02050 t __GLOBAL__sub_I_SeparateConstOffsetFromGEP.cpp
0000000100933c40 t __GLOBAL__sub_I_ShrinkWrap.cpp
0000000100ee76c0 t __GLOBAL__sub_I_Signals.cpp
0000000100a66f80 t __GLOBAL__sub_I_SimplifyCFG.cpp
0000000100a02330 t __GLOBAL__sub_I_SimplifyCFGPass.cpp
0000000100a692c0 t __GLOBAL__sub_I_SimplifyLibCalls.cpp
000000010095e840 t __GLOBAL__sub_I_StackColoring.cpp
000000010095f720 t __GLOBAL__sub_I_StackMapLivenessAnalysis.cpp
0000000100964bc0 t __GLOBAL__sub_I_StackMaps.cpp
0000000100968590 t __GLOBAL__sub_I_StackProtector.cpp
000000010096e9e0 t __GLOBAL__sub_I_StackSlotColoring.cpp
0000000100eb6fd0 t __GLOBAL__sub_I_Statistic.cpp
0000000100a6daa0 t __GLOBAL__sub_I_SymbolRewriter.cpp
0000000100b954d0 t __GLOBAL__sub_I_SyncDependenceAnalysis.cpp
0000000100975570 t __GLOBAL__sub_I_TailDuplicator.cpp
000000010097a420 t __GLOBAL__sub_I_TargetInstrInfo.cpp
0000000100b9c9d0 t __GLOBAL__sub_I_TargetLibraryInfo.cpp
0000000100982e60 t __GLOBAL__sub_I_TargetLoweringBase.cpp
000000010098f360 t __GLOBAL__sub_I_TargetPassConfig.cpp
0000000100996ce0 t __GLOBAL__sub_I_TargetSchedule.cpp
0000000100ba2190 t __GLOBAL__sub_I_TargetTransformInfo.cpp
00000001000352e0 t __GLOBAL__sub_I_Thumb2InstrInfo.cpp
0000000100035460 t __GLOBAL__sub_I_Thumb2SizeReduction.cpp
0000000100ebfa40 t __GLOBAL__sub_I_Timer.cpp
00000001009a2110 t __GLOBAL__sub_I_TwoAddressInstructionPass.cpp
0000000100ba46d0 t __GLOBAL__sub_I_TypeBasedAliasAnalysis.cpp
0000000100cbff10 t __GLOBAL__sub_I_TypeHashing.cpp
0000000100e34df0 t __GLOBAL__sub_I_Value.cpp
0000000100bc6070 t __GLOBAL__sub_I_ValueTracking.cpp
0000000100bc7910 t __GLOBAL__sub_I_VectorUtils.cpp
000000010001c400 t __GLOBAL__sub_I_WebAssemblyExplicitLocals.cpp
000000010001cd70 t __GLOBAL__sub_I_WebAssemblyLowerEmscriptenEHSjLj.cpp
000000010001d310 t __GLOBAL__sub_I_WebAssemblyMCInstLower.cpp
000000010001d500 t __GLOBAL__sub_I_WebAssemblyPeephole.cpp
000000010001d690 t __GLOBAL__sub_I_WebAssemblyTargetMachine.cpp
00000001009b9400 t __GLOBAL__sub_I_WinEHPrepare.cpp
0000000100ec6db0 t __GLOBAL__sub_I_WithColor.cpp
0000000100049850 t __GLOBAL__sub_I_X86AsmInstrumentation.cpp
00000001000d37e0 t __GLOBAL__sub_I_X86AvoidStoreForwardingBlocks.cpp
000000010006bc60 t __GLOBAL__sub_I_X86CallFrameOptimization.cpp
0000000100083750 t __GLOBAL__sub_I_X86CmovConversion.cpp
000000010008d420 t __GLOBAL__sub_I_X86DiscriminateMemOps.cpp
000000010008b2f0 t __GLOBAL__sub_I_X86DomainReassignment.cpp
00000001000cc980 t __GLOBAL__sub_I_X86FixupBWInsts.cpp
000000010011c120 t __GLOBAL__sub_I_X86ISelDAGToDAG.cpp
000000010023c0b0 t __GLOBAL__sub_I_X86ISelLowering.cpp
000000010023c8e0 t __GLOBAL__sub_I_X86IndirectBranchTracking.cpp
00000001002428c0 t __GLOBAL__sub_I_X86InsertPrefetch.cpp
0000000100268580 t __GLOBAL__sub_I_X86InstrInfo.cpp
00000001006038f0 t __GLOBAL__sub_I_X86MCAsmInfo.cpp
00000001005fd9e0 t __GLOBAL__sub_I_X86MCTargetDesc.cpp
000000010027ff10 t __GLOBAL__sub_I_X86OptimizeLEAs.cpp
0000000100283a30 t __GLOBAL__sub_I_X86RegisterBankInfo.cpp
0000000100286b30 t __GLOBAL__sub_I_X86RegisterInfo.cpp
000000010029c220 t __GLOBAL__sub_I_X86SpeculativeLoadHardening.cpp
00000001002a0130 t __GLOBAL__sub_I_X86Subtarget.cpp
00000001002a6ff0 t __GLOBAL__sub_I_X86TargetMachine.cpp
0000000100f02130 t __GLOBAL__sub_I_opcode.cc
                 U __NSGetEnviron
                 U __NSGetExecutablePath
                 U __Unwind_Backtrace
                 U __Unwind_DeleteException
                 U __Unwind_GetDataRelBase
                 U __Unwind_GetIP
                 U __Unwind_GetIPInfo
                 U __Unwind_GetLanguageSpecificData
                 U __Unwind_GetRegionStart
                 U __Unwind_GetTextRelBase
                 U __Unwind_RaiseException
                 U __Unwind_Resume
                 U __Unwind_SetGR
                 U __Unwind_SetIP
00000001002324b0 t __Z16SplitOpsAndApplyIZL16detectAVGPatternN4llvm7SDValueENS0_3EVTERNS0_12SelectionDAGERKNS0_12X86SubtargetERKNS0_5SDLocEE4$_48ES1_S4_S7_SA_S2_NS0_8ArrayRefIS1_EET_b
00000001002265b0 t __Z16SplitOpsAndApplyIZL17combineSubToSubusPN4llvm6SDNodeERNS0_12SelectionDAGERKNS0_12X86SubtargetEE4$_55ENS0_7SDValueES4_S7_RKNS0_5SDLocENS0_3EVTENS0_8ArrayRefIS9_EET_b
00000001015a89f8 b __ZGVZL15getOpenFileImplIN4llvm12MemoryBufferEENS0_7ErrorOrINSt3__110unique_ptrIT_NS3_14default_deleteIS5_EEEEEEiRKNS0_5TwineEyyxbbE8PageSize
000000010158e168 b __ZGVZL20ConsecutiveRegistersjjE9Registers
0000000101594070 b __ZGVZN4llvm11AddressPool10emitHeaderERNS_10AsmPrinterEPNS_9MCSectionEE8AddrSize
0000000101595560 b __ZGVZN4llvm18getTheX86_32TargetEvE15TheX86_32Target
0000000101595640 b __ZGVZN4llvm18getTheX86_64TargetEvE15TheX86_64Target
0000000101586b38 d __ZGVZN4llvm21BranchProbabilityInfo27getBranchProbStackProtectorEbE10LikelyProb
00000001015a7b00 b __ZGVZN4llvm21isFunctionInPrintListENS_9StringRefEE14PrintFuncNames
00000001015a90c8 b __ZGVZN4llvm3sys6Memory19protectMappedMemoryERKNS0_11MemoryBlockEjE8PageSize
00000001015a90b8 b __ZGVZN4llvm3sys6Memory20allocateMappedMemoryEmPKNS0_11MemoryBlockEjRNSt3__110error_codeEE8PageSize
00000001015a90d8 b __ZGVZN4llvm3sys7Process11getPageSizeEvE9page_size
00000001015a8e90 b __ZGVZN4llvm3sys7unicode11isPrintableEiE13NonPrintables
00000001015a8ea8 b __ZGVZN4llvm3sys7unicodeL9charWidthEiE19CombiningCharacters
00000001015a8ec0 b __ZGVZN4llvm3sys7unicodeL9charWidthEiE21DoubleWidthCharacters
00000001015a8730 b __ZGVZN4llvm4dbgsEvE7thestrm
00000001015a9020 b __ZGVZN4llvm4errsEvE1S
00000001015a8fd0 b __ZGVZN4llvm4outsEvE1S
00000001015a9050 b __ZGVZN4llvm5nullsEvE1S
00000001015874d0 d __ZGVZN4llvm7hashing6detail18get_execution_seedEvE4seed
0000000101595790 b __ZGVZN4llvmL19trimBlockToPageSizeENS_3sys11MemoryBlockEE8PageSize
0000000101590cd0 b __ZGVZNK12_GLOBAL__N_117X86InsertPrefetch16findPrefetchInfoEPKN4llvm10sampleprof15FunctionSamplesERKNS1_12MachineInstrERNS1_15SmallVectorImplINS0_12PrefetchInfoEEEE9HintTypes
00000001015907b0 b __ZGVZNK12_GLOBAL__N_122X86InstructionSelector10selectZextERN4llvm12MachineInstrERNS1_19MachineRegisterInfoERNS1_15MachineFunctionEE7OpTable
0000000101591b40 b __ZGVZNK4llvm10X86TTIImpl21enableMemCmpExpansionEbE13EqZeroOptions
0000000101591b00 b __ZGVZNK4llvm10X86TTIImpl21enableMemCmpExpansionEbE15ThreeWayOptions
000000010159b608 b __ZL10Aggressive
00000001015a16a8 b __ZL10CSECounter
000000010159d580 b __ZL10ClColoring
000000010158e2f0 b __ZL10DisableCGP
000000010159f720 b __ZL10DisableCGP
000000010159f5a0 b __ZL10DisableLSR
0000000101588508 b __ZL10DisableSCO
000000010159eee0 b __ZL10DisableSSC
000000010051bc10 t __ZL10DumpNodesrRN4llvm11raw_ostreamEPKNS_6SDNodeEjPKNS_12SelectionDAGERNS_11SmallPtrSetIS4_Lj32EEE
000000010158b168 b __ZL10EnableCCMP
00000001015a5f80 b __ZL10EnableTBAA
000000010158fcb0 b __ZL10Extensions
000000010158a7a0 b __ZL10FixCounter
00000001015996c0 b __ZL10FwdCounter
00000001001f39f0 t __ZL10GetTLSADDRRN4llvm12SelectionDAGENS_7SDValueEPNS_19GlobalAddressSDNodeEPS2_NS_3EVTEjhb
000000010159d950 b __ZL10HugeRegion
00000001015977a8 b __ZL10IfCvtLimit
0000000101596d30 b __ZL10InstrLimit
00000001015852e0 d __ZL10LdStFP2Int
000000010158d980 b __ZL10LocalSData
0000000100736bb0 t __ZL10LowerCTPOPRN4llvm11LLVMContextEPNS_5ValueEPNS_11InstructionE
00000001001835d0 t __ZL10LowerShiftN4llvm7SDValueERKNS_12X86SubtargetERNS_12SelectionDAGE
0000000100ee5960 t __ZL10MakeErrMsgPNSt3__112basic_stringIcNS_11char_traitsIcEENS_9allocatorIcEEEERKS5_i
000000010158d500 b __ZL10Mixed16_32
000000010158ffd8 b __ZL10NoX86CFOpt
0000000101585800 d __ZL10NumAndUses
0000000101586fc0 d __ZL10NumBitMaps
00000001015857e0 d __ZL10NumCmpUses
0000000101585940 d __ZL10NumDeletes
0000000101585f68 d __ZL10NumDeletes
0000000101586588 d __ZL10NumEvicted
00000001015857c0 d __ZL10NumExtUses
0000000101585600 d __ZL10NumGlobals
00000001015860c8 d __ZL10NumHoisted
0000000101586388 d __ZL10NumImmFold
00000001015868c8 d __ZL10NumInvokes
0000000101586f40 d __ZL10NumInvokes
00000001015863e8 d __ZL10NumLowered
0000000101586e80 d __ZL10NumNoAlias
0000000101586ec0 d __ZL10NumNonNull
0000000101587140 d __ZL10NumReassoc
0000000101584c90 d __ZL10NumReduced
0000000101585c78 d __ZL10NumReloads
0000000101586f00 d __ZL10NumRemoved
0000000101586928 d __ZL10NumRepairs
0000000101585900 d __ZL10NumRetsDup
0000000101586308 d __ZL10NumSelects
00000001015868e8 d __ZL10NumSpilled
00000001015853a0 d __ZL10NumUnfolds
000000010158f688 b __ZL10OldT2IfCvt
00000001015a2210 b __ZL10PILCounter
00000001015a7508 b __ZL10PrintAfter
00000001015a2b70 b __ZL10SinkCommon
000000010159b1e8 b __ZL10SplitEdges
00000001015a89d8 b __ZL10StaticList
0000000100971a60 t __ZL10VerifyPHIsRN4llvm15MachineFunctionEb
00000001015a5348 b __ZL10VerifySCEV
00000001012ce200 s __ZL10colorcodes
00000001001ccc70 t __ZL10combineAddPN4llvm6SDNodeERNS_12SelectionDAGERKNS_12X86SubtargetE
00000001001d4640 t __ZL10combineAndPN4llvm6SDNodeERNS_12SelectionDAGERNS_14TargetLowering15DAGCombinerInfoERKNS_12X86SubtargetE
00000001001d02b0 t __ZL10combineMulPN4llvm6SDNodeERNS_12SelectionDAGERNS_14TargetLowering15DAGCombinerInfoERKNS_12X86SubtargetE
0000000100ec7e90 t __ZL10decodeUTF8N4llvm9StringRefE
0000000101599530 b __ZL10dump_intrs
0000000100ec8000 t __ZL10encodeUTF8jRN4llvm15SmallVectorImplIcEE
0000000100366fa0 t __ZL10getAsCarryRKN4llvm14TargetLoweringENS_7SDValueE
000000010085ea60 t __ZL10getPHIDepsRKN4llvm12MachineInstrERNS_15SmallVectorImplIN12_GLOBAL__N_17DataDepEEEPKNS_17MachineBasicBlockEPKNS_19MachineRegisterInfoE
00000001008121a0 t __ZL10getPhiRegsRN4llvm12MachineInstrEPNS_17MachineBasicBlockERjS4_
0000000100cc4c30 t __ZL10initStreamN4llvm15MemoryBufferRefE
0000000100b955a0 t __ZL10initializeRN4llvm21TargetLibraryInfoImplERKNS_6TripleENS_8ArrayRefINS_9StringRefEEE
0000000100a16340 t __ZL10insertCallRN4llvm8FunctionENS_9StringRefEPNS_11InstructionENS_8DebugLocE
00000001009e3e00 t __ZL10isLegalUseRKN4llvm19TargetTransformInfoExxN12_GLOBAL__N_16LSRUse8KindTypeENS3_11MemAccessTyERKNS3_7FormulaE
0000000100061630 t __ZL10isSubclassN12_GLOBAL__N_114MatchClassKindES0_
000000010064c8a0 t __ZL10lle_X_exitPN4llvm12FunctionTypeENS_8ArrayRefINS_12GenericValueEEE
00000001010a1630 s __ZL10modRMTable
0000000101586668 d __ZL10numExtends
0000000100d0bcc0 t __ZL10orderValuePKN4llvm5ValueERN12_GLOBAL__N_18OrderMapE
0000000100813010 t __ZL10removePhisPN4llvm17MachineBasicBlockES1_
0000000100ecb360 t __ZL10wasEscapedPKcS0_
0000000101594750 b __ZL11AccelTables
000000010007b1e0 t __ZL11CC_X86_32_CjN4llvm3MVTES0_NS_11CCValAssign7LocInfoENS_3ISD10ArgFlagsTyERNS_7CCStateE
00000001000c9ae0 t __ZL11CC_X86_32_CjN4llvm3MVTES0_NS_11CCValAssign7LocInfoENS_3ISD10ArgFlagsTyERNS_7CCStateE
00000001001ecdd0 t __ZL11CC_X86_32_CjN4llvm3MVTES0_NS_11CCValAssign7LocInfoENS_3ISD10ArgFlagsTyERNS_7CCStateE
0000000100079f90 t __ZL11CC_X86_64_CjN4llvm3MVTES0_NS_11CCValAssign7LocInfoENS_3ISD10ArgFlagsTyERNS_7CCStateE
00000001000c8890 t __ZL11CC_X86_64_CjN4llvm3MVTES0_NS_11CCValAssign7LocInfoENS_3ISD10ArgFlagsTyERNS_7CCStateE
00000001001ebb80 t __ZL11CC_X86_64_CjN4llvm3MVTES0_NS_11CCValAssign7LocInfoENS_3ISD10ArgFlagsTyERNS_7CCStateE
0000000100b2a8b0 t __ZL11CanPHITransPN4llvm11InstructionE
00000001015a3b10 b __ZL11Delinearize
000000010158a008 b __ZL11EHWhitelist
000000010158d1d8 b __ZL11EraseGPOpnd
0000000100ae97c0 t __ZL11ExpandBinOpN4llvm11Instruction9BinaryOpsEPNS_5ValueES3_S1_RKNS_13SimplifyQueryEj
000000010158f5c8 b __ZL11ExpandLimit
000000010158da40 b __ZL11ExternSData
000000010044dda0 t __ZL11FindMemTypeRN4llvm12SelectionDAGERKNS_14TargetLoweringEjNS_3EVTEjj
00000001015a9498 b __ZL11FirstTarget
000000010158f508 b __ZL11ForceExapnd
00000001004be340 t __ZL11GetExponentRN4llvm12SelectionDAGENS_7SDValueERKNS_14TargetLoweringERKNS_5SDLocE
0000000101591628 b __ZL11HardenLoads
0000000101593d90 b __ZL11ISHeuristic
00000001015976e8 b __ZL11IfCvtFnStop
000000010014efe0 t __ZL11LowerVSETCCN4llvm7SDValueERKNS_12X86SubtargetERNS_12SelectionDAGE
00000001010b2b80 s __ZL11MatchTable0
00000001010eba40 s __ZL11MatchTable1
00000001015a5ac8 b __ZL11MaxExtDepth
00000001015932a0 b __ZL11MaxLdStGlue
0000000100b79bd0 t __ZL11MinOptionalN4llvm8OptionalINS_5APIntEEES2_
0000000101585e08 d __ZL11NumAssigned
0000000101585780 d __ZL11NumCastUses
0000000101586c80 d __ZL11NumCommuted
0000000101586008 d __ZL11NumCommutes
0000000101585b38 d __ZL11NumDiamonds
0000000101586988 d __ZL11NumFinished
00000001015864a8 d __ZL11NumFuncSeen
00000001015858a0 d __ZL11NumGEPsElim
0000000101586d60 d __ZL11NumIdCopies
00000001015866e8 d __ZL11NumInflated
0000000101585d38 d __ZL11NumInserted
00000001015863a8 d __ZL11NumLoadFold
0000000101586de0 d __ZL11NumNoUnwind
0000000101586118 d __ZL11NumOutlined
0000000101585760 d __ZL11NumPHIsElim
00000001015853e0 d __ZL11NumPRCopies
0000000101585fe8 d __ZL11NumPhysCSEs
0000000101586ea0 d __ZL11NumReadNone
0000000101586dc0 d __ZL11NumReadOnly
0000000101585c18 d __ZL11NumSnippets
0000000101586c20 d __ZL11NumTailDups
0000000101585ad8 d __ZL11NumTriangle
00000001011278a0 s __ZL11OpcodeTable
0000000101585300 d __ZL11OpsNarrowed
00000001015a6fe0 b __ZL11OptBisector
00000001015a7e70 b __ZL11OutputMutex
00000001015a7250 b __ZL11PrintBefore
000000010159fc60 b __ZL11PrintGCInfo
00000001015a8c79 b __ZL11PrintOnExit
000000010158f748 b __ZL11ReduceLimit
000000010120f860 s __ZL11RoundGroups
000000010158d8c0 b __ZL11SSThreshold
0000000101587040 d __ZL11SearchTimes
000000010159b470 b __ZL11SimplifyMIR
00000001015852c0 d __ZL11SlicedLoads
0000000100396940 t __ZL11SplitVSETCCPKN4llvm6SDNodeERNS_12SelectionDAGE
00000001015a8b88 b __ZL11StatsAsJSON
000000010157e780 s __ZL11TargetInfos
0000000101127c20 s __ZL11TypeObjects
000000010158ada8 b __ZL11UpdateLimit
0000000100266b20 t __ZL11addOperandsRN4llvm19MachineInstrBuilderENS_8ArrayRefINS_14MachineOperandEEEi
0000000100d62f00 t __ZL11canTrapImplPKN4llvm8ConstantERNS_15SmallPtrSetImplIPKNS_12ConstantExprEEE
000000010045c400 t __ZL11closestSuccPKN4llvm5SUnitE
00000001001d9da0 t __ZL11combineFnegPN4llvm6SDNodeERNS_12SelectionDAGERKNS_12X86SubtargetE
00000001008086f0 t __ZL11computePathPN4llvm5SUnitERNS_9SetVectorIS1_NSt3__16vectorIS1_NS3_9allocatorIS1_EEEENS_8DenseSetIS1_NS_12DenseMapInfoIS1_EEEEEESD_SD_RNS_11SmallPtrSetIS1_Lj8EEE
0000000100a92ea0 t __ZL11debugAssignRKN4llvm26BlockFrequencyInfoImplBaseERKN12_GLOBAL__N_120DitheringDistributerERKNS0_9BlockNodeERKNS_10bfi_detail9BlockMassEPKc
00000001001a4150 t __ZL11emitMonitorRN4llvm12MachineInstrEPNS_17MachineBasicBlockERKNS_12X86SubtargetEj
0000000100367240 t __ZL11flipBooleanN4llvm7SDValueERKNS_5SDLocENS_3EVTERNS_12SelectionDAGERKNS_14TargetLoweringE
0000000100e40ee0 t __ZL11forEachUserPKN4llvm5ValueERNS_11SmallPtrSetIS2_Lj32EEENS_12function_refIFbS2_EEE
000000010085ebf0 t __ZL11getDataDepsRKN4llvm12MachineInstrERNS_15SmallVectorImplIN12_GLOBAL__N_17DataDepEEEPKNS_19MachineRegisterInfoE
000000010015ec10 t __ZL11getMaskNodeN4llvm7SDValueENS_3MVTERKNS_12X86SubtargetERNS_12SelectionDAGERKNS_5SDLocE
000000010021bb80 t __ZL11getPMOVMSKBRKN4llvm5SDLocENS_7SDValueERNS_12SelectionDAGERKNS_12X86SubtargetE
000000010098c4c0 t __ZL11getPassInfoN4llvm9StringRefE
000000010099ff30 t __ZL11isCopyToRegRN4llvm12MachineInstrEPKNS_15TargetInstrInfoERjS5_RbS6_
00000001006f2590 t __ZL11isCrossCopyRKN4llvm19MachineRegisterInfoERKNS_12MachineInstrEPKNS_19TargetRegisterClassERKNS_14MachineOperandE
00000001008db120 t __ZL11isMoveInstrRKN4llvm18TargetRegisterInfoEPKNS_12MachineInstrERjS6_S6_S6_
000000010064ca10 t __ZL11lle_X_abortPN4llvm12FunctionTypeENS_8ArrayRefINS_12GenericValueEEE
000000010064d510 t __ZL11lle_X_scanfPN4llvm12FunctionTypeENS_8ArrayRefINS_12GenericValueEEE
0000000101586688 d __ZL11numCommutes
00000001015866a8 d __ZL11numCrossRCs
0000000100ec18a0 t __ZL11parseVendorN4llvm9StringRefE
0000000100850f10 t __ZL11performSinkRN4llvm12MachineInstrERNS_17MachineBasicBlockENS_26MachineInstrBundleIteratorIS0_Lb0EEEPNS_15SmallVectorImplIPS0_EE
0000000100594360 t __ZL11printValuesRN4llvm11raw_ostreamERKNS_12DIEValueListENS_9StringRefEjj
0000000100aea1b0 t __ZL11simplifyDivN4llvm11Instruction9BinaryOpsEPNS_5ValueES3_RKNS_13SimplifyQueryEj
0000000100aeb180 t __ZL11simplifyRemN4llvm11Instruction9BinaryOpsEPNS_5ValueES3_RKNS_13SimplifyQueryEj
0000000100926470 t __ZL11toggleKillsRKN4llvm19MachineRegisterInfoERNS_12LivePhysRegsERNS_12MachineInstrEb
00000001015907b8 b __ZL12AndImmShrink
00000001015878f0 b __ZL12CTRLoopLimit
000000010159d3c0 b __ZL12DumpRegUsage
000000010121d990 s __ZL12EAXThunkName
000000010121d9b0 s __ZL12ECXThunkName
000000010121d9f0 s __ZL12EDIThunkName
000000010121d9d0 s __ZL12EDXThunkName
000000010158db00 b __ZL12EmbeddedData
00000001015855a0 d __ZL12EmittedInsts
000000010158a320 b __ZL12EnableEmSjLj
00000001015894c8 b __ZL12EnableGEPOpt
000000010158bbe8 b __ZL12EnableGEPOpt
0000000101587fb0 b __ZL12EnableTLSOpt
00000001015a88f0 b __ZL12ErrorHandler
000000010021be40 t __ZL12ExtendToTypeN4llvm7SDValueENS_3MVTERNS_12SelectionDAGEb
00000001015904a0 b __ZL12FixupBWInsts
0000000101589d08 b __ZL12FullRegNames
0000000101589b88 b __ZL12GenerateISEL
00000001015a7e80 b __ZL12GlobalParser
0000000100b627a0 t __ZL12HasSameValuePKN4llvm4SCEVES2_
00000001006ad120 t __ZL12HashEndOfMBBRKN4llvm17MachineBasicBlockE
0000000101597628 b __ZL12IfCvtFnStart
0000000101598f08 b __ZL12JumpInstCost
00000001015a1ef0 b __ZL12LSRExpNarrow
000000010014e5c0 t __ZL12LowerAndToBTN4llvm7SDValueENS_3ISD8CondCodeERKNS_5SDLocERNS_12SelectionDAGERS0_
0000000100b79000 t __ZL12MatchNotExprPKN4llvm4SCEVE
0000000101598e48 b __ZL12MisfetchCost
0000000101586ce0 d __ZL12Num3AddrSunk
0000000101586be0 d __ZL12NumAddedPHIs
0000000101586b10 d __ZL12NumAddrTaken
0000000101585820 d __ZL12NumAndsAdded
0000000101585010 d __ZL12NumBBsPadded
0000000101586568 d __ZL12NumCoalesced
0000000101585f88 d __ZL12NumCoalesces
00000001015861e8 d __ZL12NumCoalesces
00000001015854e0 d __ZL12NumDAGBlocks
00000001015857a0 d __ZL12NumExtsMoved
0000000101586448 d __ZL12NumFixedAnti
0000000101585b78 d __ZL12NumIfConvBBs
00000001015855e0 d __ZL12NumInitBytes
0000000101584e70 d __ZL12NumLoadMoved
0000000101586508 d __ZL12NumNewQueued
0000000101586e20 d __ZL12NumNoCapture
0000000101586288 d __ZL12NumPHICycles
0000000101586160 d __ZL12NumPipelined
0000000101586a88 d __ZL12NumStackMaps
0000000101584ff0 d __ZL12NumSubstLEAs
0000000101584e90 d __ZL12NumTailCalls
00000001015856a0 d __ZL12NumTailCalls
0000000101585640 d __ZL12NumTailMerge
00000001015a81f8 b __ZL12PrintOptions
000000010156fa70 s __ZL12PtrKindNames
000000010156fc80 s __ZL12PtrModeNames
0000000100b551d0 t __ZL12PushLoopPHIsPKN4llvm4LoopERNS_15SmallVectorImplIPNS_11InstructionEEE
0000000100071ef0 t __ZL12RetCC_X86_64jN4llvm3MVTES0_NS_11CCValAssign7LocInfoENS_3ISD10ArgFlagsTyERNS_7CCStateE
00000001000bd960 t __ZL12RetCC_X86_64jN4llvm3MVTES0_NS_11CCValAssign7LocInfoENS_3ISD10ArgFlagsTyERNS_7CCStateE
00000001001e4080 t __ZL12RetCC_X86_64jN4llvm3MVTES0_NS_11CCValAssign7LocInfoENS_3ISD10ArgFlagsTyERNS_7CCStateE
0000000100ae6ee0 t __ZL12SimplifyCallIPN4llvm3UseEEPNS0_5ValueENS0_17ImmutableCallSiteES4_T_S6_RKNS0_13SimplifyQueryEj
00000001015a09e0 b __ZL12StopAfterOpt
000000010159a1f0 b __ZL12SwpLoopLimit
0000000101599fb0 b __ZL12SwpMaxStages
000000010159a070 b __ZL12SwpPruneDeps
000000010159e458 b __ZL12TailDupLimit
000000010158a3e0 b __ZL12TransformAll
000000010158a560 b __ZL12TransformAll
0000000101593b50 b __ZL12ViewISelDAGs
0000000100a30750 t __ZL12changeToCallPN4llvm10InvokeInstEPNS_14DomTreeUpdaterE
00000001001d6d40 t __ZL12combineStorePN4llvm6SDNodeERNS_12SelectionDAGERKNS_12X86SubtargetE
00000001002205f0 t __ZL12createPSADBWRN4llvm12SelectionDAGERKNS_7SDValueES4_RKNS_5SDLocERKNS_12X86SubtargetE
0000000100c5c410 t __ZL12emitAbsValueRN4llvm10MCStreamerEPKNS_6MCExprEj
000000010159c230 b __ZL12fastRegAlloc
000000010079b110 t __ZL12getBlockNamePKN4llvm17MachineBasicBlockE
00000001009e4140 t __ZL12getExactSDivPKN4llvm4SCEVES2_RNS_15ScalarEvolutionEb
0000000100892630 t __ZL12getNewSourcePN4llvm19MachineRegisterInfoEPKNS_15TargetInstrInfoENS2_13RegSubRegPairERKNS_13SmallDenseMapIS5_N12_GLOBAL__N_118ValueTrackerResultELj4ENS_12DenseMapInfoIS5_EENS_6detail12DenseMapPairIS5_S8_EEEEb
000000010069f8f0 t __ZL12getNoopInputPKN4llvm5ValueERNS_15SmallVectorImplIjEERjRKNS_18TargetLoweringBaseERKNS_10DataLayoutE
0000000100980730 t __ZL12getOpEnabledbN4llvm3EVTENS_9StringRefE
00000001002be3f0 t __ZL12getPredStateRN4llvm8DenseMapIPNS_10BasicBlockEiNS_12DenseMapInfoIS2_EENS_6detail12DenseMapPairIS2_iEEEERNS_8FunctionEiS2_
00000001009e4840 t __ZL12isAddressUseRKN4llvm19TargetTransformInfoEPNS_11InstructionEPNS_5ValueE
0000000100298de0 t __ZL12isEFLAGSLiveRN4llvm17MachineBasicBlockENS_26MachineInstrBundleIteratorINS_12MachineInstrELb0EEERKNS_18TargetRegisterInfoE
00000001009a0830 t __ZL12isTwoAddrUseRN4llvm12MachineInstrEjRj
0000000100aeb8b0 t __ZL12isUndefShiftPN4llvm5ValueE
000000010064c820 t __ZL12lle_X_atexitPN4llvm12FunctionTypeENS_8ArrayRefINS_12GenericValueEEE
000000010064d8c0 t __ZL12lle_X_memcpyPN4llvm12FunctionTypeENS_8ArrayRefINS_12GenericValueEEE
000000010064d7d0 t __ZL12lle_X_memsetPN4llvm12FunctionTypeENS_8ArrayRefINS_12GenericValueEEE
000000010064ca60 t __ZL12lle_X_printfPN4llvm12FunctionTypeENS_8ArrayRefINS_12GenericValueEEE
000000010064d400 t __ZL12lle_X_sscanfPN4llvm12FunctionTypeENS_8ArrayRefINS_12GenericValueEEE
0000000100c8cec0 t __ZL12multikeySortN4llvm15MutableArrayRefIPNSt3__14pairINS_19CachedHashStringRefEmEEEEi
000000010098ad00 t __ZL12overridePassPKvN4llvm18IdentifyingPassPtrE
0000000100ec07c0 t __ZL12parseBPFArchN4llvm9StringRefE
0000000100c235f0 t __ZL12parseHexOctaRN12_GLOBAL__N_19AsmParserERyS2_
0000000100ec17c0 t __ZL12parseSubArchN4llvm9StringRefE
000000010051c070 t __ZL12printOperandRN4llvm11raw_ostreamEPKNS_12SelectionDAGENS_7SDValueE
0000000100067230 t __ZL12printOperandRN4llvm13X86AsmPrinterEPKNS_12MachineInstrEjRNS_11raw_ostreamEPKcj
0000000100c062d0 t __ZL12readInitExprRN4llvm4wasm12WasmInitExprERNS_6object14WasmObjectFile11ReadContextE
0000000100037160 t __ZL12regionReaderPKvPhy
0000000100c26670 t __ZL12rewritesSortPKN4llvm10AsmRewriteES2_
0000000100e79e60 t __ZL12rotateModulojRKN4llvm5APIntE
00000001008f7f50 t __ZL12scavengeVRegRN4llvm19MachineRegisterInfoERNS_12RegScavengerEjb
0000000100381900 t __ZL12visitFMinMaxRN4llvm12SelectionDAGEPNS_6SDNodeEPFNS_7APFloatERKS4_S6_E
0000000101598908 b __ZL13AlignAllBlock
0000000101589948 b __ZL13CacheLineSize
0000000100030ab0 t __ZL13CheckXWPInstrPN4llvm12MachineInstrEbRKN12_GLOBAL__N_111ReduceEntryE
00000001015a3ee0 b __ZL13ColdThreshold
00000001015a1518 b __ZL13ConstHoistGEP
00000001015888c8 b __ZL13ConvertRegReg
0000000100dbe8b0 t __ZL13DecodeIITTypeRjN4llvm8ArrayRefIhEERNS0_15SmallVectorImplINS0_9Intrinsic13IITDescriptorEEE
0000000101587b30 b __ZL13DisableCmpOpt
0000000101595d40 b __ZL13DisableGCOpts
0000000101597868 b __ZL13DisableSimple
0000000100d42820 t __ZL13EmitX86SelectRN4llvm9IRBuilderINS_14ConstantFolderENS_24IRBuilderDefaultInserterEEEPNS_5ValueES6_S6_
000000010158ba68 b __ZL13EnableCondOpt
000000010159cd88 b __ZL13EnableJoining
00000001015a19b0 b __ZL13EnableLicmCap
00000001015a1d70 b __ZL13EnablePhiElim
000000010158a7a8 b __ZL13EnableRedZone
00000001015a6410 b __ZL13ErrorCategory
00000001015a6b20 b __ZL13ErrorCategory
00000001015a88d8 b __ZL13ErrorErrorCat
0000000101598a88 b __ZL13ExitBlockBias
00000001009ece50 t __ZL13ExtractSymbolRPKN4llvm4SCEVERNS_15ScalarEvolutionE
000000010158f148 b __ZL13ForceFastISel
0000000101595710 b __ZL13FunctionsLock
000000010045c9e0 t __ZL13GetCostForDefRKN4llvm18ScheduleDAGSDNodes10RegDefIterEPKNS_14TargetLoweringEPKNS_15TargetInstrInfoEPKNS_18TargetRegisterInfoERjSD_RKNS_15MachineFunctionE
00000001015a3d60 b __ZL13HintThreshold
0000000101570380 s __ZL13LabelTypeEnum
000000010156db40 s __ZL13LeafTypeNames
000000010159a5c8 b __ZL13MISchedCutoff
0000000100b4aec0 t __ZL13MatchBinaryOpPN4llvm5ValueERNS_13DominatorTreeE
00000001015a5b88 b __ZL13MaxAddRecSize
00000001015a5948 b __ZL13MaxArithDepth
00000001015a4c78 b __ZL13MaxCheckLimit
00000001015a3a40 b __ZL13MaxIterations
000000010158d440 b __ZL13NoDPLoadStore
0000000101585240 d __ZL13NodesCombined
0000000101586e00 d __ZL13NumArgMemOnly
0000000101586aa8 d __ZL13NumBBsVisited
0000000101585380 d __ZL13NumBacktracks
0000000101585740 d __ZL13NumBlocksElim
0000000101585680 d __ZL13NumBranchOpts
00000001015868a8 d __ZL13NumCandidates
0000000101585da8 d __ZL13NumDCEDeleted
0000000101585660 d __ZL13NumDeadBlocks
0000000101586bc0 d __ZL13NumDeadBlocks
0000000101586b40 d __ZL13NumEliminated
0000000101585dc8 d __ZL13NumFracRanges
0000000101586fa0 d __ZL13NumLinearMaps
0000000101586908 d __ZL13NumLocalRenum
00000001015869c8 d __ZL13NumMarkerSeen
0000000101586d20 d __ZL13NumReSchedUps
0000000101586d40 d __ZL13NumSpillSlots
0000000101586088 d __ZL13NumStoreConst
0000000101584d90 d __ZL13NumSubstZexts
0000000101585e28 d __ZL13NumUnassigned
00000001015a6ff8 b __ZL13PassDebugging
00000001015a7880 b __ZL13PrintAfterAll
0000000100b6b7a0 t __ZL13PrintLoopInfoRN4llvm11raw_ostreamEPNS_15ScalarEvolutionEPKNS_4LoopE
0000000101594078 b __ZL13PrintSchedule
0000000101595648 b __ZL13PrintVolatile
000000010159da10 b __ZL13ReductionSize
000000010159a688 b __ZL13SchedOnlyFunc
0000000100ee7340 t __ZL13SignalHandleri
0000000101593390 b __ZL13SimpleVTArray
0000000100ae6c60 t __ZL13SimplifyBinOpjPN4llvm5ValueES1_RKNS_13SimplifyQueryEj
0000000100aeb5a0 t __ZL13SimplifyShiftN4llvm11Instruction9BinaryOpsEPNS_5ValueES3_RKNS_13SimplifyQueryEj
0000000101588d48 b __ZL13StackPtrConst
00000001015a0810 b __ZL13StartAfterOpt
00000001015a0ac8 b __ZL13StopBeforeOpt
00000001015a2130 b __ZL13StressIVChain
000000010159e398 b __ZL13TailDupVerify
0000000101595ac8 b __ZL13TailMergeSize
00000001015a3a20 b __ZL13UR_TAKEN_PROB
00000001015919f8 b __ZL13UseVZeroUpper
00000001015a2468 b __ZL13UserKeepLoops
0000000101593028 b __ZL13VLIWScheduler
00000001015a5408 b __ZL13VerifySCEVMap
0000000100b2a680 t __ZL13VerifySubExprPN4llvm5ValueERNS_15SmallVectorImplIPNS_11InstructionEEE
0000000101593cd0 b __ZL13ViewSUnitDAGs
0000000101593c10 b __ZL13ViewSchedDAGs
000000010159c060 b __ZL13WarnStackSize
000000010159c1f0 b __ZL13basicRegAlloc
00000001001c68e0 t __ZL13combineSelectPN4llvm6SDNodeERNS_12SelectionDAGERNS_14TargetLowering15DAGCombinerInfoERKNS_12X86SubtargetE
0000000100a97290 t __ZL13combineWeightRN4llvm26BlockFrequencyInfoImplBase6WeightERKS1_
0000000100257110 t __ZL13expandMOV32r1RN4llvm19MachineInstrBuilderERKNS_15TargetInstrInfoEb
00000001000864e0 t __ZL13findUncondBrIPN4llvm17MachineBasicBlockE
000000010069ec30 t __ZL13firstRealTypePN4llvm4TypeERNS_15SmallVectorImplIPNS_13CompositeTypeEEERNS2_IjEE
00000001000865b0 t __ZL13fixPHIsInSuccPN4llvm17MachineBasicBlockES1_S1_
00000001000420a0 t __ZL13fixupRegValuePN4llvm15X86Disassembler19InternalInstructionENS0_11OperandTypeEhPh
00000001009e4b40 t __ZL13getAccessTypeRKN4llvm19TargetTransformInfoEPNS_11InstructionEPNS_5ValueE
00000001004af9b0 t __ZL13getMemCmpLoadPKN4llvm5ValueENS_3MVTERNS_19SelectionDAGBuilderE
0000000100142210 t __ZL13getOnesVectorN4llvm3EVTERNS_12SelectionDAGERKNS_5SDLocE
0000000100967980 t __ZL13getStackGuardPKN4llvm18TargetLoweringBaseEPNS_6ModuleERNS_9IRBuilderINS_14ConstantFolderENS_24IRBuilderDefaultInserterEEEPb
0000000100d42b50 t __ZL13getX86MaskVecRN4llvm9IRBuilderINS_14ConstantFolderENS_24IRBuilderDefaultInserterEEEPNS_5ValueEj
0000000100154c40 t __ZL13getX86XALUOOpRN4llvm3X868CondCodeENS_7SDValueERNS_12SelectionDAGE
000000010013d070 t __ZL13getZeroVectorN4llvm3MVTERKNS_12X86SubtargetERNS_12SelectionDAGERKNS_5SDLocE
0000000101599470 b __ZL13inc_threshold
00000001001158e0 t __ZL13insertDAGNodeRN4llvm12SelectionDAGENS_7SDValueES2_
00000001009e6270 t __ZL13isExistingPhiPKN4llvm14SCEVAddRecExprERNS_15ScalarEvolutionE
0000000100ad97f0 t __ZL13isInterestingPKN4llvm4SCEVEPKNS_11InstructionEPKNS_4LoopEPNS_15ScalarEvolutionEPNS_8LoopInfoE
0000000100bc3570 t __ZL13isKnownNonNaNPKN4llvm5ValueENS_13FastMathFlagsE
000000010069fec0 t __ZL13isNoopBitcastPN4llvm4TypeES1_RKNS_18TargetLoweringBaseE
00000001009bb5f0 t __ZL13isNullOrUndefPKN4llvm8ConstantE
00000001008de2c0 t __ZL13isTerminalRegjRKN4llvm12MachineInstrEPKNS_19MachineRegisterInfoE
000000010064d620 t __ZL13lle_X_fprintfPN4llvm12FunctionTypeENS_8ArrayRefINS_12GenericValueEEE
000000010064cc40 t __ZL13lle_X_sprintfPN4llvm12FunctionTypeENS_8ArrayRefINS_12GenericValueEEE
000000010089d290 t __ZL13lowerObjCCallRN4llvm8FunctionEPKcb
000000010027a4d0 t __ZL13printConstantPKN4llvm8ConstantERNS_11raw_ostreamE
000000010027a3b0 t __ZL13printConstantRKN4llvm5APIntERNS_11raw_ostreamE
0000000100750c40 t __ZL13printDebugLocRKN4llvm8DebugLocERNS_11raw_ostreamERKNS_11LLVMContextE
0000000100837af0 t __ZL13priorNonDebugN4llvm26MachineInstrBundleIteratorINS_12MachineInstrELb0EEENS0_IKS1_Lb0EEE
00000001008615c0 t __ZL13pushDepHeightRKN12_GLOBAL__N_17DataDepERKN4llvm12MachineInstrEjRNS3_8DenseMapIPS5_jNS3_12DenseMapInfoIS8_EENS3_6detail12DenseMapPairIS8_jEEEERKNS3_16TargetSchedModelEPKNS3_15TargetInstrInfoE
0000000100041d80 t __ZL13readImmediatePN4llvm15X86Disassembler19InternalInstructionEh
0000000100cd6950 t __ZL13readWideAPIntN4llvm8ArrayRefIyEEj
0000000100a6c7d0 t __ZL13rewriteComdatRN4llvm6ModuleEPNS_12GlobalObjectERKNSt3__112basic_stringIcNS4_11char_traitsIcEENS4_9allocatorIcEEEESC_
0000000100a15d90 t __ZL13runOnFunctionRN4llvm8FunctionEb
00000001005e6370 t __ZL13shouldEmitUdtPKN4llvm6DITypeE
00000001002e9b10 t __ZL13simpleLibcallRN4llvm12MachineInstrERNS_16MachineIRBuilderEjPNS_4TypeE
0000000100367170 t __ZL13tryFoldToZeroRKN4llvm5SDLocERKNS_14TargetLoweringENS_3EVTERNS_12SelectionDAGEb
0000000100e05a90 t __ZL13tryMergeRangeRN4llvm15SmallVectorImplIPNS_11ConstantIntEEES2_S2_
00000001009c1560 t __ZL13updateOperandPN4llvm11InstructionEjS1_
0000000100d43510 t __ZL13upgradePMULDQRN4llvm9IRBuilderINS_14ConstantFolderENS_24IRBuilderDefaultInserterEEERNS_8CallInstEb
00000001015a4af0 b __ZL14BlockScanLimit
00000001000795f0 t __ZL14CC_X86_Win64_CjN4llvm3MVTES0_NS_11CCValAssign7LocInfoENS_3ISD10ArgFlagsTyERNS_7CCStateE
00000001000c7ef0 t __ZL14CC_X86_Win64_CjN4llvm3MVTES0_NS_11CCValAssign7LocInfoENS_3ISD10ArgFlagsTyERNS_7CCStateE
00000001001eb1e0 t __ZL14CC_X86_Win64_CjN4llvm3MVTES0_NS_11CCValAssign7LocInfoENS_3ISD10ArgFlagsTyERNS_7CCStateE
000000010158e5f0 b __ZL14CPMaxIteration
00000001015a91d0 b __ZL14CallBacksToRun
0000000101591c30 b __ZL14CoveragePrefix
00000001015a3198 b __ZL14DisableBasicAA
0000000101597ce8 b __ZL14DisableDiamond
0000000101588388 b __ZL14DisableILPPref
000000010159e070 b __ZL14DisableSharing
0000000101597928 b __ZL14DisableSimpleF
00000001009ea420 t __ZL14DoInitialMatchPKN4llvm4SCEVEPNS_4LoopERNS_15SmallVectorImplIS2_EES7_RNS_15ScalarEvolutionE
00000001015a3570 b __ZL14DoubleCalcBits
0000000100c82540 t __ZL14EmitUnwindInfoRN4llvm10MCStreamerEPNS_5WinEH9FrameInfoE
000000010158e230 b __ZL14EnableARM3Addr
0000000101589588 b __ZL14EnablePrefetch
00000001015869e8 d __ZL14EscapedAllocas
0000000101127cf0 s __ZL14FeatureBitsets
0000000100a634a0 t __ZL14GetCaseResultsPN4llvm10SwitchInstEPNS_11ConstantIntEPNS_10BasicBlockEPS5_RNS_15SmallVectorImplINSt3__14pairIPNS_7PHINodeEPNS_8ConstantEEEEERKNS_10DataLayoutERKNS_19TargetTransformInfoE
0000000100a5c800 t __ZL14GetConstantIntPN4llvm5ValueERKNS_10DataLayoutE
00000001004be610 t __ZL14GetSignificandRN4llvm12SelectionDAGENS_7SDValueERKNS_5SDLocE
000000010159b158 b __ZL14ILPMaxRegistry
000000010159b188 b __ZL14ILPMinRegistry
00000001015a18f0 b __ZL14LICMN2Theshold
00000001012bd500 s __ZL14LiveOnEntryStr
0000000101585400 d __ZL14LoadsClustered
0000000100217f70 t __ZL14LowerAVXExtendN4llvm7SDValueERNS_12SelectionDAGERKNS_12X86SubtargetE
00000001015a47e0 b __ZL14MaxDependences
0000000101590ce0 b __ZL14MemUnfoldTable
000000010158ce18 b __ZL14NoZeroDivCheck
0000000101585e48 d __ZL14NumAllocations
0000000101585fa8 d __ZL14NumCrossBBCSEs
0000000101585460 d __ZL14NumEntryBlocks
0000000101585c98 d __ZL14NumFoldedLoads
0000000101586048 d __ZL14NumHighLatency
00000001015865c8 d __ZL14NumLocalSplits
0000000101585a00 d __ZL14NumMemCmpCalls
0000000101585880 d __ZL14NumMemoryInsts
0000000101586e40 d __ZL14NumReadOnlyArg
0000000101586e60 d __ZL14NumReturnedArg
0000000101585ab8 d __ZL14NumSimpleFalse
0000000101586f60 d __ZL14NumSinkCommons
0000000101585af8 d __ZL14NumTriangleRev
00000001015a7b10 b __ZL14OptBisectLimit
0000000100e98900 t __ZL14OptNameComparePKNSt3__14pairIPKcPN4llvm2cl6OptionEEES9_
000000010159cb40 b __ZL14PBQPCoalescing
000000010159cc00 b __ZL14PBQPDumpGraphs
00000001015a1a70 b __ZL14PrefetchWrites
00000001015a77c0 b __ZL14PrintBeforeAll
00000001015a3890 b __ZL14PrintBlockFreq
0000000100c47740 t __ZL14PrintCFIEscapeRN4llvm21formatted_raw_ostreamENS_9StringRefE
00000001015a7a00 b __ZL14PrintFuncsList
000000010159fba0 b __ZL14PrintISelInput
000000010159a8f0 b __ZL14ReadyListLimit
00000001000755c0 t __ZL14RetCC_X86_64_CjN4llvm3MVTES0_NS_11CCValAssign7LocInfoENS_3ISD10ArgFlagsTyERNS_7CCStateE
00000001000c1030 t __ZL14RetCC_X86_64_CjN4llvm3MVTES0_NS_11CCValAssign7LocInfoENS_3ISD10ArgFlagsTyERNS_7CCStateE
00000001001e7750 t __ZL14RetCC_X86_64_CjN4llvm3MVTES0_NS_11CCValAssign7LocInfoENS_3ISD10ArgFlagsTyERNS_7CCStateE
000000010159a770 b __ZL14SchedOnlyBlock
0000000100c8df40 t __ZL14SetImpliedBitsRN4llvm13FeatureBitsetERKNS_18SubtargetFeatureKVENS_8ArrayRefIS2_EE
0000000100ade410 t __ZL14SimplifyOrInstPN4llvm5ValueES1_RKNS_13SimplifyQueryEj
000000010158ced8 b __ZL14SkipLongBranch
00000001007e6b90 t __ZL14SortSymbolPairPKNSt3__14pairIPN4llvm8MCSymbolENS1_14PointerIntPairIS3_Lj1EbNS1_21PointerLikeTypeTraitsIS3_EENS1_18PointerIntPairInfoIS3_Lj1ES6_EEEEEESC_
000000010159c270 b __ZL14SplitSpillMode
00000001015a08f8 b __ZL14StartBeforeOpt
000000010159d710 b __ZL14StressSchedOpt
0000000100e98910 t __ZL14SubNameComparePKNSt3__14pairIPKcPN4llvm2cl10SubCommandEEES9_
00000001015a90e0 b __ZL14TermColorMutex
0000000101595708 b __ZL14TheInterpreter
00000001015a8e48 b __ZL14TimerGroupList
0000000100a06320 t __ZL14UpdatePHINodesPN4llvm10BasicBlockES1_NS_8ArrayRefIS1_EEPNS_10BranchInstEb
000000010158ee30 b __ZL14UseFusedMulOps
000000010158b0a8 b __ZL14UseNonLazyBind
00000001015a6f10 b __ZL14VerifyDomInfoX
000000010159c130 b __ZL14VerifyRegAlloc
00000001015a8918 b __ZL14ViewBackground
00000001015917b8 b __ZL14X86EarlyIfConv
00000001001c9e50 t __ZL14combineBitcastPN4llvm6SDNodeERNS_12SelectionDAGERNS_14TargetLowering15DAGCombinerInfoERKNS_12X86SubtargetE
00000001001dd6b0 t __ZL14combineShufflePN4llvm6SDNodeERNS_12SelectionDAGERNS_14TargetLowering15DAGCombinerInfoERKNS_12X86SubtargetE
0000000100b6ed00 t __ZL14containsUndefsPKN4llvm4SCEVE
00000001015a6428 b __ZL14error_category
00000001006457c0 t __ZL14executeCmpInstjN4llvm12GenericValueES0_PNS_4TypeE
000000010062c600 t __ZL14executeICMP_EQN4llvm12GenericValueES0_PNS_4TypeE
000000010062c9f0 t __ZL14executeICMP_NEN4llvm12GenericValueES0_PNS_4TypeE
0000000100977eb0 t __ZL14foldPatchpointRN4llvm15MachineFunctionERNS_12MachineInstrENS_8ArrayRefIjEEiRKNS_15TargetInstrInfoE
000000010022ff50 t __ZL14getConstVectorN4llvm8ArrayRefINS_5APIntEEERS1_NS_3MVTERNS_12SelectionDAGERKNS_5SDLocE
00000001002102f0 t __ZL14getConstVectorN4llvm8ArrayRefIiEENS_3MVTERNS_12SelectionDAGERKNS_5SDLocEb
000000010046d940 t __ZL14getCopyToPartsRN4llvm12SelectionDAGERKNS_5SDLocENS_7SDValueEPS5_jNS_3MVTEPKNS_5ValueENS_8OptionalIjEENS_3ISD8NodeTypeE
0000000100960000 t __ZL14getDwarfRegNumjPKN4llvm18TargetRegisterInfoE
0000000100191e80 t __ZL14getExtendInVecbRKN4llvm5SDLocENS_3EVTENS_7SDValueERNS_12SelectionDAGE
00000001004be540 t __ZL14getF32ConstantRN4llvm12SelectionDAGEjRKNS_5SDLocE
00000001000ed8c0 t __ZL14getHiPELiteralPN4llvm11NamedMDNodeENS_9StringRefE
0000000100c69830 t __ZL14getLabelOffsetRKN4llvm11MCAsmLayoutERKNS_8MCSymbolEbRy
00000001008f0330 t __ZL14getLiveLanesAtRKN4llvm13LiveIntervalsERKNS_19MachineRegisterInfoEbjNS_9SlotIndexE
000000010050f060 t __ZL14getMemsetValueN4llvm7SDValueENS_3EVTERNS_12SelectionDAGERKNS_5SDLocE
0000000100498b70 t __ZL14getUniformBaseRPKN4llvm5ValueERNS_7SDValueES5_S5_PNS_19SelectionDAGBuilderE
000000010159cac8 b __ZL14greedyRegAlloc
0000000100e286c0 t __ZL14isKeyValuePairPN4llvm7MDTupleEPKcS3_
0000000100bc3420 t __ZL14isKnownNonZeroPKN4llvm5ValueE
0000000100ba6c40 t __ZL14isKnownNonZeroPKN4llvm5ValueEjRKN12_GLOBAL__N_15QueryE
0000000100bd6130 t __ZL14malformedErrorN4llvm5TwineE
0000000100bf8420 t __ZL14malformedErrorN4llvm5TwineE
0000000100bed580 t __ZL14malformedErrorRKN4llvm5TwineE
00000001008f18a0 t __ZL14removeRegLanesRN4llvm15SmallVectorImplINS_16RegisterMaskPairEEES1_
0000000100f2859e s __ZL14segmentRegnums
0000000100aea480 t __ZL14simplifyDivRemPN4llvm5ValueES1_b
0000000100367dc0 t __ZL14simplifyDivRemPN4llvm6SDNodeERNS_12SelectionDAGE
00000001008faa10 t __ZL14subRangeLiveAtRKN4llvm12LiveIntervalENS_9SlotIndexE
00000001001ab3a0 t __ZL14widenSubVectorN4llvm3MVTENS_7SDValueEbRKNS_12X86SubtargetERNS_12SelectionDAGERKNS_5SDLocE
0000000100ea9790 t __ZL14write_unsignedIyEvRN4llvm11raw_ostreamET_mNS0_12IntegerStyleEb
0000000100f28ac0 s __ZL14x86OperandSets
000000010158e9b0 b __ZL15ARMInterworking
00000001004cf940 t __ZL15AddNodeIDCustomRN4llvm16FoldingSetNodeIDEPKNS_6SDNodeE
00000001015967c0 b __ZL15AddrSinkNewPhis
0000000101595170 b __ZL15AsmWriterFlavor
000000010158a620 b __ZL15BlockInstrLimit
0000000101596e00 b __ZL15BlockInstrLimit
000000010120fa80 s __ZL15BroadcastGroups
00000001015a5c58 b __ZL15ClVectorLibrary
00000001009ec930 t __ZL15CollectSubexprsPKN4llvm4SCEVEPKNS_12SCEVConstantERNS_15SmallVectorImplIS2_EEPKNS_4LoopERNS_15ScalarEvolutionEj
00000001015a2070 b __ZL15ComplexityLimit
0000000101124530 s __ZL15ConversionTable
00000001015a8550 b __ZL15DebugBufferSize
00000001015a86c8 b __ZL15DebugOnlyOptLoc
0000000100dbf870 t __ZL15DecodeFixedTypeRN4llvm8ArrayRefINS_9Intrinsic13IITDescriptorEEENS0_IPNS_4TypeEEERNS_11LLVMContextE
0000000101589048 b __ZL15DisableCTRLoops
00000001015a12b8 b __ZL15DisableCleanups
000000010159dbc8 b __ZL15DisableColoring
000000010159f7e0 b __ZL15DisableCopyProp
00000001015924e8 b __ZL15DisableDFASched
00000001015a11f8 b __ZL15DisableDemotion
00000001015980d8 b __ZL15DisableHoisting
000000010159b6c8 b __ZL15DisablePeephole
00000001015979e8 b __ZL15DisableTriangle
00000001002194b0 t __ZL15EmitTruncSStorebN4llvm7SDValueERKNS_5SDLocES0_S0_NS_3EVTEPNS_17MachineMemOperandERNS_12SelectionDAGE
000000010159d7d0 b __ZL15EnableAASchedMI
0000000101589a08 b __ZL15EnablePPCColdCC
00000001015a5eb8 b __ZL15EnableReduxCost
0000000100ea4ce0 t __ZL15ExecGraphViewerN4llvm9StringRefERNSt3__16vectorIS0_NS1_9allocatorIS0_EEEES0_bRNS1_12basic_stringIcNS1_11char_traitsIcEENS3_IcEEEE
00000001015914a8 b __ZL15FenceCallAndRet
000000010158cf98 b __ZL15ForceLongBranch
0000000101590228 b __ZL15ForceMemOperand
0000000101596580 b __ZL15ForceSplitStore
0000000101127b20 s __ZL15ForwardST0Table
0000000101127b80 s __ZL15ForwardSTiTable
00000001015a7ef8 b __ZL15GenericCategory
0000000101599968 b __ZL15HoistCheapInsts
00000001015a2c30 b __ZL15HoistCondStores
0000000101597e68 b __ZL15IfCvtBranchFold
00000001015a6a48 b __ZL15InjectFieldList
00000001015a3ca0 b __ZL15InlineThreshold
000000010159acd0 b __ZL15MachineSchedOpt
00000001015a10e8 b __ZL15MaxDataFlowEdge
000000010156f950 s __ZL15MemberKindNames
00000001015a2cf0 b __ZL15MergeCondStores
000000010158d680 b __ZL15Mips16HardFloat
0000000101584df0 d __ZL15NumAddsInserted
0000000101586ca0 d __ZL15NumAggrCommuted
0000000101585ea8 d __ZL15NumCondBranches
0000000101585f48 d __ZL15NumCopyForwards
00000001015859e0 d __ZL15NumDiamondsConv
00000001015859a0 d __ZL15NumDiamondsSeen
00000001015855c0 d __ZL15NumDynamicInsts
0000000101585320 d __ZL15NumFastIselDead
0000000101584d30 d __ZL15NumFixedCondBrs
0000000101586af0 d __ZL15NumFunProtected
00000001015865a8 d __ZL15NumGlobalSplits
0000000101585f28 d __ZL15NumInstCombined
0000000101586648 d __ZL15NumLaneResolves
0000000101587000 d __ZL15NumLookupTables
0000000101586348 d __ZL15NumNAPhysCopies
0000000101586cc0 d __ZL15NumReSchedDowns
0000000101585e88 d __ZL15NumReplacements
00000001015865e8 d __ZL15NumShrinkToUses
0000000101586f80 d __ZL15NumSpeculations
0000000101586c00 d __ZL15NumTailDupAdded
000000010158a4a0 b __ZL15OverrideBalance
00000001015a7bd0 b __ZL15PassRegistryObj
0000000101585280 d __ZL15PreIndexedNodes
0000000100279960 t __ZL15PrevCrossBBInstN4llvm26MachineInstrBundleIteratorIKNS_12MachineInstrELb0EEE
00000001015a82b8 b __ZL15PrintAllOptions
00000001015a3958 b __ZL15PrintBranchProb
00000001015897c8 b __ZL15ReduceCRLogical
000000010158f8c8 b __ZL15ReduceLimitLdSt
0000000100736850 t __ZL15ReplaceCallWithIPN4llvm3UseEEPNS0_8CallInstEPKcS4_T_S7_PNS0_4TypeE
0000000100736e90 t __ZL15ReplaceCallWithIPPN4llvm5ValueEEPNS0_8CallInstEPKcS5_T_S8_PNS0_4TypeE
0000000100074d40 t __ZL15RetCC_X86CommonjN4llvm3MVTES0_NS_11CCValAssign7LocInfoENS_3ISD10ArgFlagsTyERNS_7CCStateE
00000001000c07b0 t __ZL15RetCC_X86CommonjN4llvm3MVTES0_NS_11CCValAssign7LocInfoENS_3ISD10ArgFlagsTyERNS_7CCStateE
00000001001e6ed0 t __ZL15RetCC_X86CommonjN4llvm3MVTES0_NS_11CCValAssign7LocInfoENS_3ISD10ArgFlagsTyERNS_7CCStateE
0000000101127b50 s __ZL15ReverseST0Table
0000000101127bb0 s __ZL15ReverseSTiTable
00000001015a30b0 b __ZL15RewriteMapFiles
000000010159b908 b __ZL15RewritePHILimit
0000000101589dc8 b __ZL15ShowVSRNumsAsVR
0000000100adc8a0 t __ZL15SimplifyAddInstPN4llvm5ValueES1_bbRKNS_13SimplifyQueryEj
0000000100add850 t __ZL15SimplifyAndInstPN4llvm5ValueES1_RKNS_13SimplifyQueryEj
0000000100ae5130 t __ZL15SimplifyGEPInstPN4llvm4TypeENS_8ArrayRefIPNS_5ValueEEERKNS_13SimplifyQueryEj
0000000100add0a0 t __ZL15SimplifyMulInstPN4llvm5ValueES1_RKNS_13SimplifyQueryEj
0000000100add3f0 t __ZL15SimplifyShlInstPN4llvm5ValueES1_bbRKNS_13SimplifyQueryEj
0000000100adcad0 t __ZL15SimplifySubInstPN4llvm5ValueES1_bbRKNS_13SimplifyQueryEj
0000000100adeaf0 t __ZL15SimplifyXorInstPN4llvm5ValueES1_RKNS_13SimplifyQueryEj
0000000101592368 b __ZL15SinkLocalValues
000000010159dee8 b __ZL15StackMapVersion
0000000101586a28 d __ZL15StackSlotMerged
0000000101586a08 d __ZL15StackSpaceSaved
000000010159a2b0 b __ZL15SwpIgnoreRecMII
000000010156ba80 s __ZL15SymbolTypeNames
000000010159ce48 b __ZL15UseTerminalRule
000000010158e770 b __ZL15VerifyARMPseudo
00000001015a4a20 b __ZL15VerifyLoopInfoX
00000001015a29c0 b __ZL15VerifyLoopLCSSA
0000000101593790 b __ZL15ViewDAGCombine1
00000001015939d0 b __ZL15ViewDAGCombine2
0000000101596f90 b __ZL15ViewEdgeBundles
000000010159a448 b __ZL15ViewMISchedDAGs
0000000100bf0b30 t __ZL15checkSubCommandRKN4llvm6object15MachOObjectFileERKNS1_15LoadCommandInfoEjPKcmS8_jS8_
0000000100a32fd0 t __ZL15collectBitPartsPN4llvm5ValueEbbRNSt3__13mapIS1_NS_8OptionalIN12_GLOBAL__N_17BitPartEEENS2_4lessIS1_EENS2_9allocatorINS2_4pairIKS1_S7_EEEEEE
0000000100234c00 t __ZL15combineExtSetccPN4llvm6SDNodeERNS_12SelectionDAGERKNS_12X86SubtargetE
00000001001da170 t __ZL15combineTruncatePN4llvm6SDNodeERNS_12SelectionDAGERKNS_12X86SubtargetE
0000000100ba3ba0 t __ZL15createAccessTagPKN4llvm6MDNodeE
00000001015a0e70 b __ZL15defaultRegAlloc
0000000100632390 t __ZL15executeFCMP_OEQN4llvm12GenericValueES0_PNS_4TypeE
00000001006371e0 t __ZL15executeFCMP_OGEN4llvm12GenericValueES0_PNS_4TypeE
00000001006354c0 t __ZL15executeFCMP_OGTN4llvm12GenericValueES0_PNS_4TypeE
0000000100636350 t __ZL15executeFCMP_OLEN4llvm12GenericValueES0_PNS_4TypeE
0000000100634630 t __ZL15executeFCMP_OLTN4llvm12GenericValueES0_PNS_4TypeE
0000000100633230 t __ZL15executeFCMP_ONEN4llvm12GenericValueES0_PNS_4TypeE
00000001006311f0 t __ZL15executeFCMP_ORDN4llvm12GenericValueES0_PNS_4TypeE
00000001006317b0 t __ZL15executeFCMP_UEQN4llvm12GenericValueES0_PNS_4TypeE
0000000100636600 t __ZL15executeFCMP_UGEN4llvm12GenericValueES0_PNS_4TypeE
00000001006348e0 t __ZL15executeFCMP_UGTN4llvm12GenericValueES0_PNS_4TypeE
0000000100635770 t __ZL15executeFCMP_ULEN4llvm12GenericValueES0_PNS_4TypeE
0000000100633a50 t __ZL15executeFCMP_ULTN4llvm12GenericValueES0_PNS_4TypeE
0000000100632650 t __ZL15executeFCMP_UNEN4llvm12GenericValueES0_PNS_4TypeE
00000001006314d0 t __ZL15executeFCMP_UNON4llvm12GenericValueES0_PNS_4TypeE
000000010062daf0 t __ZL15executeICMP_SGEN4llvm12GenericValueES0_PNS_4TypeE
000000010062d2b0 t __ZL15executeICMP_SGTN4llvm12GenericValueES0_PNS_4TypeE
000000010062d6d0 t __ZL15executeICMP_SLEN4llvm12GenericValueES0_PNS_4TypeE
000000010062ce90 t __ZL15executeICMP_SLTN4llvm12GenericValueES0_PNS_4TypeE
000000010062d8e0 t __ZL15executeICMP_UGEN4llvm12GenericValueES0_PNS_4TypeE
000000010062d0a0 t __ZL15executeICMP_UGTN4llvm12GenericValueES0_PNS_4TypeE
000000010062d4c0 t __ZL15executeICMP_ULEN4llvm12GenericValueES0_PNS_4TypeE
000000010062cc80 t __ZL15executeICMP_ULTN4llvm12GenericValueES0_PNS_4TypeE
0000000100257350 t __ZL15expandNOVLXLoadRN4llvm19MachineInstrBuilderEPKNS_18TargetRegisterInfoERKNS_11MCInstrDescES7_j
000000010025bdc0 t __ZL15extractLoadMMOsN4llvm8ArrayRefIPNS_17MachineMemOperandEEERNS_15MachineFunctionE
0000000100381170 t __ZL15foldFPToIntToFPPN4llvm6SDNodeERNS_12SelectionDAGERKNS_14TargetLoweringE
000000010059a9a0 t __ZL15getExceptionSymPN4llvm10AsmPrinterE
0000000100d4ef80 t __ZL15getFoldedSizeOfPN4llvm4TypeES1_b
0000000100cb4590 t __ZL15getLeafTypeNameN4llvm8codeview12TypeLeafKindE
0000000100ea7ef0 t __ZL15getOpenFileImplIN4llvm12MemoryBufferEENS0_7ErrorOrINSt3__110unique_ptrIT_NS3_14default_deleteIS5_EEEEEEiRKNS0_5TwineEyyxbb
0000000100bf3300 t __ZL15getSectionFlagsRKN4llvm6object15MachOObjectFileENS0_11DataRefImplE
000000010045c880 t __ZL15hasVRegCycleUsePKN4llvm5SUnitE
0000000100ea7700 t __ZL15initializeMutexv
00000001001efd20 t __ZL15insertSubVectorN4llvm7SDValueES0_jRNS_12SelectionDAGERKNS_5SDLocEj
0000000100156380 t __ZL15isAndOrOfSetCCsN4llvm7SDValueERj
00000001001f61d0 t __ZL15isConstantSplatN4llvm7SDValueERNS_5APIntE
0000000100299750 t __ZL15isDataInvariantRN4llvm12MachineInstrE
00000001009a1670 t __ZL15isPlainlyKilledPN4llvm12MachineInstrEjPNS_13LiveIntervalsE
000000010027f490 t __ZL15isSimilarDispOpRKN4llvm14MachineOperandES2_
00000001001a6b00 t __ZL15isTargetShufflej
0000000100bc44c0 t __ZL15isTruePredicateN4llvm7CmpInst9PredicateEPKNS_5ValueES4_RKNS_10DataLayoutEj
0000000100baf2a0 t __ZL15lookThroughCastPN4llvm7CmpInstEPNS_5ValueES3_PNS_11Instruction7CastOpsE
000000010089cb20 t __ZL15lowerIntrinsicsRN4llvm6ModuleE
00000001001245d0 t __ZL15lowerMasksToRegRKN4llvm7SDValueERKNS_3EVTERKNS_5SDLocERNS_12SelectionDAGE
0000000100125d00 t __ZL15lowerRegToMasksRKN4llvm7SDValueERKNS_3EVTES5_RKNS_5SDLocERNS_12SelectionDAGE
0000000100ba2880 t __ZL15matchAccessTagsPKN4llvm6MDNodeES2_PS2_
00000001015a89e0 b __ZL15mutex_init_flag
00000001006a6a20 t __ZL15performAtomicOpN4llvm13AtomicRMWInst5BinOpERNS_9IRBuilderINS_14ConstantFolderENS_24IRBuilderDefaultInserterEEEPNS_5ValueES8_
000000010051b430 t __ZL15printMemOperandRN4llvm11raw_ostreamERKNS_17MachineMemOperandEPKNS_12SelectionDAGE
0000000100eb1300 t __ZL15printSourceLineRN4llvm11raw_ostreamENS_9StringRefE
00000001008fb4a0 t __ZL15runOnBasicBlockPN4llvm17MachineBasicBlockERNSt3__16vectorINS_9StringRefENS2_9allocatorIS4_EEEERNS3_IjNS5_IjEEEERjSC_RN12_GLOBAL__N_115NamedVRegCursorE
0000000100af5690 t __ZL15simplifyFPBinopPN4llvm5ValueES1_
0000000100a36b20 t __ZL15simplifyOneLoopPN4llvm4LoopERNS_15SmallVectorImplIS1_EEPNS_13DominatorTreeEPNS_8LoopInfoEPNS_15ScalarEvolutionEPNS_15AssumptionCacheEb
0000000100d0afb0 t __ZL15writeDILocationRN4llvm11raw_ostreamEPKNS_10DILocationEPN12_GLOBAL__N_112TypePrintingEPNS_11SlotTrackerEPKNS_6ModuleE
0000000100ea9fe0 t __ZL15writeWithCommasRN4llvm11raw_ostreamENS_8ArrayRefIcEE
0000000100989d60 t __ZL16APIntToHexStringRKN4llvm5APIntE
00000001012bd280 s __ZL16AllocationFnData
000000010158c2a8 b __ZL16AsmWriterVariant
00000001015998a8 b __ZL16AvoidSpeculation
000000010045c4e0 t __ZL16BUCompareLatencyPN4llvm5SUnitES1_bPN12_GLOBAL__N_118RegReductionPQBaseE
00000001015a4bb0 b __ZL16BlockNumberLimit
000000010158bca8 b __ZL16BranchRelaxation
000000010007b3d0 t __ZL16CC_X86_32_CommonjN4llvm3MVTES0_NS_11CCValAssign7LocInfoENS_3ISD10ArgFlagsTyERNS_7CCStateE
00000001000c9cd0 t __ZL16CC_X86_32_CommonjN4llvm3MVTES0_NS_11CCValAssign7LocInfoENS_3ISD10ArgFlagsTyERNS_7CCStateE
00000001001ecfc0 t __ZL16CC_X86_32_CommonjN4llvm3MVTES0_NS_11CCValAssign7LocInfoENS_3ISD10ArgFlagsTyERNS_7CCStateE
000000010159c948 b __ZL16CSRFirstTimeCost
0000000101570df0 s __ZL16ChecksumKindName
000000010156f600 s __ZL16ClassOptionNames
0000000100c8de60 t __ZL16ClearImpliedBitsRN4llvm13FeatureBitsetERKNS_18SubtargetFeatureKVENS_8ArrayRefIS2_EE
0000000101591f80 b __ZL16CombinerGlobalAA
0000000100030c40 t __ZL16ConsecutiveInstrPN4llvm12MachineInstrES1_
0000000101592d28 b __ZL16Disable2AddrHack
00000001015882c8 b __ZL16DisablePPCPreinc
00000001015a16b0 b __ZL16DisablePromotion
000000010158e8f0 b __ZL16DisableShifterOp
0000000101597b68 b __ZL16DisableTriangleF
0000000101597aa8 b __ZL16DisableTriangleR
00000001015910d8 b __ZL16DisableX86LEAOpt
00000001015a6508 b __ZL16DwarfExtendedLoc
000000010158b8e8 b __ZL16EnableAtomicTidy
000000010158f2c8 b __ZL16EnableAtomicTidy
0000000101587ef0 b __ZL16EnableBranchHint
000000010158b5e8 b __ZL16EnableCollectLOH
000000010159aa70 b __ZL16EnableCyclicPath
000000010159cf08 b __ZL16EnableJoinSplits
0000000101599e30 b __ZL16EnableSWPOptSize
00000001015a0f68 b __ZL16EnableSchedItins
00000001015a0ea8 b __ZL16EnableSchedModel
000000010159c648 b __ZL16ExhaustiveSearch
0000000100256fb0 t __ZL16Expand2AddrUndefRN4llvm19MachineInstrBuilderERKNS_11MCInstrDescE
00000001015a4360 b __ZL16ExpensiveAsserts
00000001009e8730 t __ZL16ExtractImmediateRPKN4llvm4SCEVERNS_15ScalarEvolutionE
0000000100456810 t __ZL16FindCallSeqStartPN4llvm6SDNodeERjS2_PKNS_15TargetInstrInfoE
000000010158d058 b __ZL16FixGlobalBaseReg
00000001004f4550 t __ZL16FoldBUILD_VECTORRKN4llvm5SDLocENS_3EVTENS_8ArrayRefINS_7SDValueEEERNS_12SelectionDAGE
00000001003813b0 t __ZL16FoldIntToFPToIntPN4llvm6SDNodeERNS_12SelectionDAGE
00000001015860f8 d __ZL16FunctionsCreated
0000000100a55500 t __ZL16GetBranchWeightsPN4llvm11InstructionERNS_15SmallVectorImplIyEE
0000000100984030 t __ZL16GetObjCImageInfoRN4llvm6ModuleERjS2_RNS_9StringRefE
0000000100bace20 t __ZL16GetStringLengthHPKN4llvm5ValueERNS_15SmallPtrSetImplIPKNS_7PHINodeEEEj
0000000101599ae8 b __ZL16HoistConstStores
000000010159c888 b __ZL16HugeSizeForSplit
0000000100502ad0 t __ZL16InferPointerInfoRKN4llvm18MachinePointerInfoERNS_12SelectionDAGENS_7SDValueEx
0000000100457f30 t __ZL16IsChainDependentPN4llvm6SDNodeES1_jPKNS_15TargetInstrInfoE
000000010159e818 b __ZL16JumpTableDensity
0000000101593058 b __ZL16LimitFPPrecision
00000001001f7fa0 t __ZL16Lower256IntUnaryN4llvm7SDValueERNS_12SelectionDAGE
00000001001f8050 t __ZL16Lower512IntUnaryN4llvm7SDValueERNS_12SelectionDAGE
0000000100936f40 t __ZL16MarkBlocksLiveInPN4llvm10BasicBlockERNS_15SmallPtrSetImplIS1_EE
0000000101592de8 b __ZL16MaxReorderWindow
0000000101587080 d __ZL16MaxSCCIterations
0000000101210e30 s __ZL16MemoryFoldTable0
00000001012112d0 s __ZL16MemoryFoldTable1
0000000101212470 s __ZL16MemoryFoldTable2
0000000101214ed0 s __ZL16MemoryFoldTable3
0000000101216e00 s __ZL16MemoryFoldTable4
000000010158c740 b __ZL16NoLoadRelaxation
0000000101585e68 d __ZL16NumBaseRegisters
0000000101585920 d __ZL16NumDbgValueMoved
00000001015862a8 d __ZL16NumDeadPHICycles
0000000101585060 d __ZL16NumInstsInserted
0000000101586628 d __ZL16NumLaneConflicts
0000000101585a60 d __ZL16NumMemCmpInlined
0000000101585580 d __ZL16NumOfStatepoints
0000000101586028 d __ZL16NumPostRAHoisted
0000000101584fd0 d __ZL16NumRedundantLEAs
0000000101586708 d __ZL16NumScavengedRegs
0000000101585bf8 d __ZL16NumSpilledRanges
0000000101585cf8 d __ZL16NumSpillsRemoved
0000000101584dd0 d __ZL16NumTestsInserted
0000000101585b18 d __ZL16NumTriangleFalse
00000001015859c0 d __ZL16NumTrianglesConv
0000000101585980 d __ZL16NumTrianglesSeen
0000000101586140 d __ZL16NumTrytoPipeline
000000010159f2a0 b __ZL16OptimizeRegAlloc
00000001015852a0 d __ZL16PostIndexedNodes
00000001015a1b30 b __ZL16PrefetchDistance
0000000100d08d80 t __ZL16PrintCallingConvjRN4llvm11raw_ostreamE
00000001015a7940 b __ZL16PrintModuleScope
0000000101590e80 b __ZL16ReMatPICStubLoad
000000010158f808 b __ZL16ReduceLimit2Addr
0000000100ee6900 t __ZL16RegisterHandlersv
0000000100b2b8e0 t __ZL16RemoveInstInputsPN4llvm5ValueERNS_15SmallVectorImplIPNS_11InstructionEEE
00000001015a6a00 b __ZL16SentinelFragment
000000010159b1b8 b __ZL16ShufflerRegistry
0000000100add780 t __ZL16SimplifyAShrInstPN4llvm5ValueES1_bRKNS_13SimplifyQueryEj
0000000100ae5ed0 t __ZL16SimplifyCastInstjPN4llvm5ValueEPNS_4TypeERKNS_13SimplifyQueryEj
0000000100ae6580 t __ZL16SimplifyFAddInstPN4llvm5ValueES1_NS_13FastMathFlagsERKNS_13SimplifyQueryEj
0000000100ae4140 t __ZL16SimplifyFCmpInstjPN4llvm5ValueES1_NS_13FastMathFlagsERKNS_13SimplifyQueryEj
0000000100ae6a40 t __ZL16SimplifyFDivInstPN4llvm5ValueES1_NS_13FastMathFlagsERKNS_13SimplifyQueryEj
0000000100ae6880 t __ZL16SimplifyFMulInstPN4llvm5ValueES1_NS_13FastMathFlagsERKNS_13SimplifyQueryEj
0000000100ae6ba0 t __ZL16SimplifyFRemInstPN4llvm5ValueES1_NS_13FastMathFlagsERKNS_13SimplifyQueryEj
0000000100ae66f0 t __ZL16SimplifyFSubInstPN4llvm5ValueES1_NS_13FastMathFlagsERKNS_13SimplifyQueryEj
0000000100adec30 t __ZL16SimplifyICmpInstjPN4llvm5ValueES1_RKNS_13SimplifyQueryEj
0000000100add520 t __ZL16SimplifyLShrInstPN4llvm5ValueES1_bRKNS_13SimplifyQueryEj
0000000100add350 t __ZL16SimplifySRemInstPN4llvm5ValueES1_RKNS_13SimplifyQueryEj
0000000101598fc8 b __ZL16TailDupPlacement
0000000100af01c0 t __ZL16ThreadCmpOverPHIN4llvm7CmpInst9PredicateEPNS_5ValueES3_RKNS_13SimplifyQueryEj
00000001015944f8 b __ZL16UnknownLocations
0000000100715d50 t __ZL16UpdatePredRedefsRN4llvm12MachineInstrERNS_12LivePhysRegsE
000000010159b2a8 b __ZL16UseBlockFreqInfo
000000010158d380 b __ZL16UseMipsTailCalls
0000000101587bf0 b __ZL16VSXSelfCopyCrash
000000010159d088 b __ZL16VerifyCoalescing
00000001015a4d38 b __ZL16VerifyMemorySSAX
00000001015a22e8 b __ZL16VerifyNoDeadCode
000000010159abf0 b __ZL16VerifyScheduling
0000000101593a90 b __ZL16ViewDAGCombineLT
0000000101593910 b __ZL16ViewLegalizeDAGs
0000000100b08670 t __ZL16addLoopIntoQueuePN4llvm4LoopERNSt3__15dequeIS1_NS2_9allocatorIS1_EEEE
0000000100384f30 t __ZL16areUsedBitsDenseRKN4llvm5APIntE
0000000100715ca0 t __ZL16canFallThroughToRN4llvm17MachineBasicBlockES1_
0000000100befd10 t __ZL16checkDyldCommandRKN4llvm6object15MachOObjectFileERKNS1_15LoadCommandInfoEjPKc
0000000100bf03c0 t __ZL16checkVersCommandRKN4llvm6object15MachOObjectFileERKNS1_15LoadCommandInfoEjPPKcS8_
0000000100ba5590 t __ZL16computeKnownBitsPKN4llvm5ValueERNS_9KnownBitsEjRKN12_GLOBAL__N_15QueryE
0000000100c51b70 t __ZL16computeLabelDiffRN4llvm11MCAsmLayoutEPKNS_8MCSymbolES4_
00000001002c6d70 t __ZL16computeValueLLTsRKN4llvm10DataLayoutERNS_4TypeERNS_15SmallVectorImplINS_3LLTEEEPNS5_IyEEy
00000001006a6400 t __ZL16createMaskInstrsRN4llvm9IRBuilderINS_14ConstantFolderENS_24IRBuilderDefaultInserterEEEPNS_11InstructionEPNS_4TypeEPNS_5ValueEj
0000000100231bb0 t __ZL16detectAVGPatternN4llvm7SDValueENS_3EVTERNS_12SelectionDAGERKNS_12X86SubtargetERKNS_5SDLocE
0000000100631090 t __ZL16executeFCMP_BOOLN4llvm12GenericValueES0_PNS_4TypeEb
0000000100257430 t __ZL16expandNOVLXStoreRN4llvm19MachineInstrBuilderEPKNS_18TargetRegisterInfoERKNS_11MCInstrDescES7_j
000000010025bfd0 t __ZL16extractStoreMMOsN4llvm8ArrayRefIPNS_17MachineMemOperandEEERNS_15MachineFunctionE
0000000100154620 t __ZL16extractSubVectorN4llvm7SDValueEjRNS_12SelectionDAGERKNS_5SDLocEj
000000010046a9d0 t __ZL16getCopyFromPartsRN4llvm12SelectionDAGERKNS_5SDLocEPKNS_7SDValueEjNS_3MVTENS_3EVTEPKNS_5ValueENS_8OptionalIjEENSD_INS_3ISD8NodeTypeEEE
0000000100ec2280 t __ZL16getDefaultFormatRKN4llvm6TripleE
0000000100d4f190 t __ZL16getFoldedAlignOfPN4llvm4TypeES1_b
0000000100120bf0 t __ZL16getMaxByValAlignPN4llvm4TypeERj
0000000100cfb690 t __ZL16getModuleFromValPKN4llvm5ValueE
00000001000cf2b0 t __ZL16getPreviousInstrRN4llvm26MachineInstrBundleIteratorINS_12MachineInstrELb0EEENS_14ilist_iteratorINS_12ilist_detail12node_optionsINS_17MachineBasicBlockELb1ELb0EvEELb0ELb0EEE
00000001005e6640 t __ZL16getQualifiedNameN4llvm8ArrayRefINS_9StringRefEEES1_
0000000100c7e4f0 t __ZL16getWinCFISectionRN4llvm9MCContextEPjPNS_9MCSectionEPKS3_
0000000100125760 t __ZL16getv64i1ArgumentRN4llvm11CCValAssignES1_RNS_7SDValueERNS_12SelectionDAGERKNS_5SDLocERKNS_12X86SubtargetEPS2_
00000001001ee5e0 t __ZL16isHopBuildVectorPKN4llvm17BuildVectorSDNodeERNS_12SelectionDAGERjRNS_7SDValueES7_
00000001007da560 t __ZL16isInvariantStoreRKN4llvm12MachineInstrEPKNS_18TargetRegisterInfoEPKNS_19MachineRegisterInfoE
00000001005cc150 t __ZL16isUnsignedDITypePN4llvm10DwarfDebugEPKNS_6DITypeE
0000000100d09df0 t __ZL16maybePrintComdatRN4llvm21formatted_raw_ostreamERKNS_12GlobalObjectE
0000000100ec1fa0 t __ZL16parseEnvironmentN4llvm9StringRefE
00000001007ee120 t __ZL16printCFIRegisterjRN4llvm11raw_ostreamEPKNS_18TargetRegisterInfoE
0000000100cc5d60 t __ZL16readBlobInRecordRN4llvm15BitstreamCursorEjj
00000001000415f0 t __ZL16readDisplacementPN4llvm15X86Disassembler19InternalInstructionE
0000000100240ea0 t __ZL16reorderSubVectorN4llvm3MVTERNS_15SmallVectorImplIPNS_5ValueEEENS_8ArrayRefIS3_EENS6_IjEEjjNS_9IRBuilderINS_14ConstantFolderENS_24IRBuilderDefaultInserterEEE
0000000100a43500 t __ZL16setBranchWeightsPN4llvm11InstructionEjj
0000000100041290 t __ZL16setPrefixPresentPN4llvm15X86Disassembler19InternalInstructionEh
000000010021a310 t __ZL16split256IntArithN4llvm7SDValueERNS_12SelectionDAGE
0000000100037180 t __ZL16translateOperandRN4llvm6MCInstERKNS_15X86Disassembler16OperandSpecifierERNS2_19InternalInstructionEPKNS_14MCDisassemblerE
0000000100d43220 t __ZL16upgradeIntMinMaxRN4llvm9IRBuilderINS_14ConstantFolderENS_24IRBuilderDefaultInserterEEERNS_8CallInstENS_7CmpInst9PredicateE
0000000100d43b90 t __ZL16upgradeX86RotateRN4llvm9IRBuilderINS_14ConstantFolderENS_24IRBuilderDefaultInserterEEERNS_8CallInstEb
0000000101595ec0 b __ZL17AddrSinkUsingGEPs
00000001008a4810 t __ZL17AdjustStackOffsetRN4llvm16MachineFrameInfoEibRxRjj
00000001015997b8 b __ZL17AlignAllFunctions
0000000101588bc8 b __ZL17AlwaysBasePointer
0000000100773990 t __ZL17BuildInstOrderMapN4llvm26MachineInstrBundleIteratorINS_12MachineInstrELb0EEERNS_8DenseMapIPS1_jNS_12DenseMapInfoIS4_EENS_6detail12DenseMapPairIS4_jEEEE
0000000100443610 t __ZL17CollectOpsToWidenRN4llvm12SelectionDAGERKNS_14TargetLoweringERNS_15SmallVectorImplINS_7SDValueEEEjNS_3EVTES9_S9_
00000001015a8e68 b __ZL17DefaultTimerGroup
000000010159b788 b __ZL17DisableAdvCopyOpt
000000010159eb20 b __ZL17DisableBranchFold
0000000101595c80 b __ZL17DisableBranchOpts
0000000101589408 b __ZL17DisableMIPeephole
000000010159f1e0 b __ZL17DisableMachineCSE
000000010159efa0 b __ZL17DisableMachineDCE
000000010159fa20 b __ZL17DisableMergeICmps
0000000101589108 b __ZL17DisablePreIncPrep
0000000101597c28 b __ZL17DisableTriangleFR
0000000101594f18 b __ZL17DwarfLinkageNames
0000000101588b08 b __ZL17EnableBasePointer
00000001015911a0 b __ZL17EnableBasePointer
000000010158e470 b __ZL17EnableDSPWithImms
000000010158a260 b __ZL17EnableEmException
000000010158be28 b __ZL17EnableGlobalMerge
000000010158f448 b __ZL17EnableGlobalMerge
00000001015971a8 b __ZL17EnableGlobalMerge
000000010159b538 b __ZL17EnableMacroFusion
000000010159a9b0 b __ZL17EnableRegPressure
00000001015874e0 d __ZL17ErrorHandlerMutex
0000000101595728 b __ZL17ExportedFunctions
0000000100b8dbf0 t __ZL17ExposePointerBaseRPKN4llvm4SCEVES3_RNS_15ScalarEvolutionE
0000000100b86fd0 t __ZL17FactorOutConstantRPKN4llvm4SCEVES3_S2_RNS_15ScalarEvolutionERKNS_10DataLayoutE
00000001006dba80 t __ZL17FindAllMemoryUsesPN4llvm11InstructionERNS_15SmallVectorImplINSt3__14pairIS1_jEEEERNS_15SmallPtrSetImplIS1_EERKNS_14TargetLoweringERKNS_18TargetRegisterInfoEi
0000000100eb9670 t __ZL17GetAutoSenseRadixRN4llvm9StringRefE
0000000100b3fac0 t __ZL17GroupByComplexityRN4llvm15SmallVectorImplIPKNS_4SCEVEEEPNS_8LoopInfoERNS_13DominatorTreeE
0000000101592f68 b __ZL17HighLatencyCycles
00000001015a92b0 b __ZL17InterruptFunction
00000001006085a0 t __ZL17Is64BitMemOperandRKN4llvm6MCInstEj
000000010158d118 b __ZL17LoadTargetFromGOT
0000000100052600 t __ZL17MatchRegisterNameN4llvm9StringRefE
00000001015922a8 b __ZL17MaySplitLoadIndex
000000010156f7e0 s __ZL17MemberAccessNames
000000010156f880 s __ZL17MethodOptionNames
00000001015a1bf0 b __ZL17MinPrefetchStride
0000000101585520 d __ZL17NumDAGIselRetries
0000000101585d88 d __ZL17NumDCEFoldedLoads
0000000101584eb0 d __ZL17NumEndBranchAdded
0000000101585260 d __ZL17NumFPLogicOpsConv
0000000101585500 d __ZL17NumFastIselBlocks
0000000101585bb8 d __ZL17NumForkedDiamonds
0000000101586748 d __ZL17NumFunctionsReset
0000000101587430 d __ZL17NumMDRecordLoaded
0000000101587450 d __ZL17NumMDStringLoaded
0000000101587120 d __ZL17NumNoMemFunctions
0000000101586248 d __ZL17NumPostRACopySink
0000000101585cd8 d __ZL17NumReloadsRemoved
0000000101585960 d __ZL17NumResumesLowered
0000000101584db0 d __ZL17NumSetCCsInserted
0000000101586fe0 d __ZL17NumTableCmpReuses
0000000101586ba0 d __ZL17NumTailDupRemoved
0000000101585ec8 d __ZL17NumUncondBranches
00000001015871a0 d __ZL17ObjectVisitorLoad
0000000101590b80 b __ZL17PrefetchHintsFile
00000001015a8800 b __ZL17PrintDebugCounter
0000000101590dc0 b __ZL17PrintFailedFusing
0000000100c47000 t __ZL17PrintQuotedStringN4llvm9StringRefERNS_11raw_ostreamE
00000001015a6a60 b __ZL17PrintSummaryGUIDs
0000000100464320 t __ZL17ProcessSourceNodePN4llvm6SDNodeEPNS_12SelectionDAGERNS_12InstrEmitterERNS_8DenseMapINS_7SDValueEjNS_12DenseMapInfoIS7_EENS_6detail12DenseMapPairIS7_jEEEERNS_15SmallVectorImplINSt3__14pairIjPNS_12MachineInstrEEEEERNS_8SmallSetIjLj8ENSG_4lessIjEEEE
000000010156fd50 s __ZL17PtrMemberRepNames
0000000101588ec8 b __ZL17QPXStackUnaligned
0000000101591d20 b __ZL17RegBankSelectMode
0000000101218590 s __ZL17ReplaceableInstrs
00000001015921e8 b __ZL17StressLoadSlicing
000000010159e218 b __ZL17TailDuplicateSize
000000010156fec0 s __ZL17TypeModifierNames
0000000101591000 b __ZL17UndefRegClearance
0000000100d43990 t __ZL17UpgradeMaskedLoadRN4llvm9IRBuilderINS_14ConstantFolderENS_24IRBuilderDefaultInserterEEEPNS_5ValueES6_S6_b
0000000101587cb0 b __ZL17UseOldLatencyCalc
0000000101588e08 b __ZL17UseSubRegLiveness
00000001015891c8 b __ZL17VSXFMAMutateEarly
00000001015933a8 b __ZL17VerboseDAGDumping
000000010159fd20 b __ZL17VerifyMachineCode
000000010159a508 b __ZL17ViewMISchedCutoff
000000010158a0e0 b __ZL17WasmKeepRegisters
0000000100bef660 t __ZL17checkDylibCommandRKN4llvm6object15MachOObjectFileERKNS1_15LoadCommandInfoEjPKc
00000001002ea150 t __ZL17conversionLibcallRN4llvm12MachineInstrERNS_16MachineIRBuilderEPNS_4TypeES5_
0000000100d0b610 t __ZL17createSlotTrackerPKN4llvm5ValueE
0000000100232c90 t __ZL17detectSSatPatternN4llvm7SDValueENS_3EVTEb
00000001002333d0 t __ZL17detectUSatPatternN4llvm7SDValueENS_3EVTERNS_12SelectionDAGERKNS_5SDLocE
00000001002201a0 t __ZL17detectZextAbsDiffRKN4llvm7SDValueERS0_S3_
00000001005afe70 t __ZL17emitDebugLocValueRKN4llvm10AsmPrinterEPKNS_11DIBasicTypeERKNS_13DebugLocEntry5ValueERNS_15DwarfExpressionE
000000010063a3a0 t __ZL17executeSelectInstN4llvm12GenericValueES0_S0_PNS_4TypeE
0000000100ada830 t __ZL17findAddRecForLoopPKN4llvm4SCEVEPKNS_4LoopE
0000000100b0c570 t __ZL17getAllocationSizePKN4llvm5ValueEPKNS_17TargetLibraryInfoE
00000001006af2b0 t __ZL17getBranchDebugLocRN4llvm17MachineBasicBlockE
000000010048d0d0 t __ZL17getLoadStackGuardRN4llvm12SelectionDAGERKNS_5SDLocERNS_7SDValueE
00000001005dac30 t __ZL17getMCSymbolForMBBPN4llvm10AsmPrinterEPKNS_17MachineBasicBlockE
0000000100dbdd50 t __ZL17getMangledTypeStrPN4llvm4TypeE
0000000100279b40 t __ZL17getShuffleCommentPKN4llvm12MachineInstrEjjNS_8ArrayRefIiEE
00000001009310f0 t __ZL17giveUpWithRemarksPN4llvm32MachineOptimizationRemarkEmitterENS_9StringRefES2_RKNS_18DiagnosticLocationEPKNS_17MachineBasicBlockE
00000001007a7a30 t __ZL17hasSameSuccessorsRN4llvm17MachineBasicBlockERNS_15SmallPtrSetImplIPKS0_EE
00000001002577e0 t __ZL17hasUndefRegUpdatej
0000000100243c30 t __ZL17isFrameLoadOpcodeiRj
00000001002230d0 t __ZL17isHorizontalBinOpRN4llvm7SDValueES1_b
0000000100205cb0 t __ZL17isNoopShuffleMaskN4llvm8ArrayRefIiEE
0000000100234520 t __ZL17lowerX86FPLogicOpPN4llvm6SDNodeERNS_12SelectionDAGERKNS_12X86SubtargetE
0000000100125fd0 t __ZL17mayTailCallThisCCj
00000001009ec7c0 t __ZL17mayUsePostIncModeRKN4llvm19TargetTransformInfoERN12_GLOBAL__N_16LSRUseEPKNS_4SCEVEPKNS_4LoopERNS_15ScalarEvolutionE
00000001015861a8 d __ZL17numMachineRegions
0000000100622fa0 t __ZL17printFMA3CommentsPKN4llvm6MCInstERNS_11raw_ostreamE
00000001000679f0 t __ZL17printMemReferenceRN4llvm13X86AsmPrinterEPKNS_12MachineInstrEjRNS_11raw_ostreamEPKc
0000000100d03cf0 t __ZL17printMetadataImplRN4llvm11raw_ostreamERKNS_8MetadataERNS_17ModuleSlotTrackerEPKNS_6ModuleEb
0000000100af0390 t __ZL17setLimitsForBinOpRN4llvm14BinaryOperatorERNS_5APIntES3_RKNS_14InstrInfoQueryE
0000000100bd3940 t __ZL17setupMemoryBufferRKN4llvm5TwineE
000000010058b8c0 t __ZL17srcMgrDiagHandlerRKN4llvm12SMDiagnosticEPv
0000000100aea0d0 t __ZL17valueDominatesPHIPN4llvm5ValueEPNS_7PHINodeEPKNS_13DominatorTreeE
0000000100cacc00 t __ZL17visitMemberRecordRN4llvm8codeview14CVMemberRecordERNS0_20TypeVisitorCallbacksE
0000000100d0ace0 t __ZL17writeDIExpressionRN4llvm11raw_ostreamEPKNS_12DIExpressionEPN12_GLOBAL__N_112TypePrintingEPNS_11SlotTrackerEPKNS_6ModuleE
0000000100373520 t __ZL17zeroExtendToMatchRN4llvm5APIntES1_j
0000000101596880 b __ZL18AddrSinkNewSelects
000000010007c770 t __ZL18CC_X86_32_FastCalljN4llvm3MVTES0_NS_11CCValAssign7LocInfoENS_3ISD10ArgFlagsTyERNS_7CCStateE
00000001000cb070 t __ZL18CC_X86_32_FastCalljN4llvm3MVTES0_NS_11CCValAssign7LocInfoENS_3ISD10ArgFlagsTyERNS_7CCStateE
00000001001ee360 t __ZL18CC_X86_32_FastCalljN4llvm3MVTES0_NS_11CCValAssign7LocInfoENS_3ISD10ArgFlagsTyERNS_7CCStateE
000000010156ff40 s __ZL18CallingConventions
0000000100a632d0 t __ZL18CasesAreContiguousRN4llvm15SmallVectorImplIPNS_11ConstantIntEEE
0000000100457d80 t __ZL18CheckForLiveRegDefPN4llvm5SUnitEjPS1_RNS_8SmallSetIjLj4ENSt3__14lessIjEEEERNS_15SmallVectorImplIjEEPKNS_18TargetRegisterInfoE
0000000100391790 t __ZL18CheckForMaskedLoadN4llvm7SDValueES0_S0_
0000000101592100 b __ZL18CombinerAAOnlyFunc
00000001015a8738 b __ZL18DebugCounterOption
00000001012bd630 s __ZL18DefaultCutoffsData
0000000101587a70 b __ZL18DisableCTRLoopAnal
00000001015a6bf8 b __ZL18DisableLazyLoading
000000010159f120 b __ZL18DisableMachineLICM
000000010159f420 b __ZL18DisableMachineSink
000000010158ecb0 b __ZL18DisableParallelDSP
000000010159ea60 b __ZL18DisablePostRASched
0000000101592728 b __ZL18DisableSchedCycles
0000000101592c68 b __ZL18DisableSchedHeight
0000000101592ae8 b __ZL18DisableSchedStalls
00000001015a04f8 b __ZL18EarlyLiveIntervals
000000010158bb28 b __ZL18EnableA53Fix835769
000000010158b228 b __ZL18EnableCondBrTuning
000000010159cfc8 b __ZL18EnableGlobalCopies
000000010158b828 b __ZL18EnableLoadStoreOpt
000000010159afa8 b __ZL18EnableMachineSched
00000001015931e0 b __ZL18EnableMemCpyDAGOpt
000000010159ab30 b __ZL18EnableMemOpCluster
00000001015a1028 b __ZL18EnableRescheduling
0000000100b601d0 t __ZL18EvaluateExpressionPN4llvm5ValueEPKNS_4LoopERNS_8DenseMapIPNS_11InstructionEPNS_8ConstantENS_12DenseMapInfoIS7_EENS_6detail12DenseMapPairIS7_S9_EEEERKNS_10DataLayoutEPKNS_17TargetLibraryInfoE
0000000101588808 b __ZL18FixedPointRegToImm
00000001004f7010 t __ZL18FoldCONCAT_VECTORSRKN4llvm5SDLocENS_3EVTENS_8ArrayRefINS_7SDValueEEERNS_12SelectionDAGE
00000001015a34b0 b __ZL18ForceAtLeast64Bits
0000000101598c08 b __ZL18ForceLoopColdBlock
0000000101570300 s __ZL18FunctionOptionEnum
0000000101590168 b __ZL18GainCycleThreshold
00000001015a41e0 b __ZL18HotCallSiteRelFreq
00000001015712e0 s __ZL18IntrinsicNameTable
0000000100b4d4c0 t __ZL18IsAvailableOnEntryPKN4llvm4LoopERNS_13DominatorTreeEPKNS_4SCEVEPNS_10BasicBlockE
00000001015a89e8 b __ZL18ManagedStaticMutex
0000000101597ff8 b __ZL18MaxInstsToConsider
000000010159b9c8 b __ZL18MaxRecurrenceChain
000000010158d298 b __ZL18Mips32FunctionMask
00000001015a8e18 b __ZL18NamedGroupedTimers
00000001015864e8 d __ZL18NumBytesStackSpace
00000001015854a0 d __ZL18NumFastIselSuccess
0000000101585080 d __ZL18NumLFENCEsInserted
0000000101587470 d __ZL18NumMDNodeTemporary
0000000101586180 d __ZL18NumNodeOrderIssues
0000000101584d10 d __ZL18NumOfLoopCandidate
0000000101586328 d __ZL18NumRewrittenCopies
00000001015858c0 d __ZL18NumSelectsExpanded
0000000100124780 t __ZL18Passv64i1ArgInRegsRKN4llvm5SDLocERNS_12SelectionDAGENS_7SDValueERS5_RNS_11SmallVectorINSt3__14pairIjS5_EELj8EEERNS_11CCValAssignESE_RKNS_12X86SubtargetE
00000001015a01b8 b __ZL18PrintMachineInstrs
0000000100464b30 t __ZL18ProcessSDDbgValuesPN4llvm6SDNodeEPNS_12SelectionDAGERNS_12InstrEmitterERNS_15SmallVectorImplINSt3__14pairIjPNS_12MachineInstrEEEEERNS_8DenseMapINS_7SDValueEjNS_12DenseMapInfoISF_EENS_6detail12DenseMapPairISF_jEEEEj
0000000100b48f60 t __ZL18PushDefUseChildrenPN4llvm11InstructionERNS_15SmallVectorImplIS1_EE
00000001009cfca0 t __ZL18ReduceLoopStrengthPN4llvm4LoopERNS_7IVUsersERNS_15ScalarEvolutionERNS_13DominatorTreeERNS_8LoopInfoERKNS_19TargetTransformInfoE
0000000101589c48 b __ZL18RunPreEmitPeephole
0000000101587060 d __ZL18SearchLimitReached
0000000100aebd80 t __ZL18SimplifyRightShiftN4llvm11Instruction9BinaryOpsEPNS_5ValueES3_bRKNS_13SimplifyQueryEj
0000000101596100 b __ZL18StressStoreExtract
0000000101595a08 b __ZL18TailMergeThreshold
0000000100ae9d20 t __ZL18ThreadBinOpOverPHIN4llvm11Instruction9BinaryOpsEPNS_5ValueES3_RKNS_13SimplifyQueryEj
0000000101599388 b __ZL18TriangleChainCount
0000000100d42490 t __ZL18UpgradeMaskedStoreRN4llvm9IRBuilderINS_14ConstantFolderENS_24IRBuilderDefaultInserterEEEPNS_5ValueES6_S6_b
0000000101587d70 b __ZL18UseBitPermRewriter
00000001015a2528 b __ZL18UserSwitchToLookup
00000001015995f0 b __ZL18VerifyPatternOrder
0000000100c71980 t __ZL18absoluteSymbolDiffRN4llvm11MCAssemblerEPKNS_8MCSymbolES4_
0000000100225390 t __ZL18canReduceVMulWidthPN4llvm6SDNodeERNS_12SelectionDAGER10ShrinkMode
0000000100bf15e0 t __ZL18checkThreadCommandRKN4llvm6object15MachOObjectFileERKNS1_15LoadCommandInfoEjPKc
0000000100221c90 t __ZL18combineSetCCEFLAGSN4llvm7SDValueERNS_3X868CondCodeERNS_12SelectionDAGERKNS_12X86SubtargetE
00000001008dd5e0 t __ZL18compareMBBPriorityPKN12_GLOBAL__N_115MBBPriorityInfoES2_
0000000100c51c60 t __ZL18compressAnnotationjRN4llvm15SmallVectorImplIcEE
0000000100aef620 t __ZL18computePointerICmpRKN4llvm10DataLayoutEPKNS_17TargetLibraryInfoEPKNS_13DominatorTreeENS_7CmpInst9PredicateEPNS_15AssumptionCacheEPKNS_11InstructionERKNS_14InstrInfoQueryEPNS_5ValueESK_
00000001009972e0 t __ZL18createSchedInfoStrjd
0000000100ee25a0 t __ZL18createUniqueEntityRKN4llvm5TwineERiRNS_15SmallVectorImplIcEEbj8FSEntityNS_3sys2fs9OpenFlagsE
00000001005fb1e0 t __ZL18createX86MCAsmInfoRKN4llvm14MCRegisterInfoERKNS_6TripleE
0000000100c5c290 t __ZL18emitOneV5FileEntryPN4llvm10MCStreamerERKNS_11MCDwarfFileEbbRNS_8OptionalINS_14MCDwarfLineStrEEE
0000000100988390 t __ZL18getComdatGVForCOFFPKN4llvm11GlobalValueE
000000010021d120 t __ZL18getFauxShuffleMaskN4llvm7SDValueERNS_15SmallVectorImplIiEERNS1_IS0_EERKNS_12SelectionDAGE
00000001005df490 t __ZL18getFunctionOptionsPKN4llvm16DISubroutineTypeEPKNS_15DICompositeTypeENS_9StringRefE
0000000100bf5650 t __ZL18getLoadCommandInfoRKN4llvm6object15MachOObjectFileEPKcj
0000000100e048b0 t __ZL18getOrSelfReferenceRN4llvm11LLVMContextENS_8ArrayRefIPNS_8MetadataEEE
0000000100a21230 t __ZL18getUnwindDestTokenPN4llvm11InstructionERNS_8DenseMapIS1_PNS_5ValueENS_12DenseMapInfoIS1_EENS_6detail12DenseMapPairIS1_S4_EEEE
0000000100204f60 t __ZL18getV4X86ShuffleImmN4llvm8ArrayRefIiEE
00000001002b98a0 t __ZL18getWinAllocaAmountPN4llvm12MachineInstrEPNS_19MachineRegisterInfoE
000000010045b200 t __ZL18hasOnlyLiveOutUsesPKN4llvm5SUnitE
000000010013d2f0 t __ZL18insert128BitVectorN4llvm7SDValueES0_jRNS_12SelectionDAGERKNS_5SDLocE
0000000100b079f0 t __ZL18isBlockInLCSSAFormRKN4llvm4LoopERKNS_10BasicBlockERNS_13DominatorTreeE
00000001002446c0 t __ZL18isFrameStoreOpcodeiRj
0000000100bb0ae0 t __ZL18isImpliedCondAndOrPKN4llvm14BinaryOperatorEPKNS_8ICmpInstERKNS_10DataLayoutEbj
000000010011b320 t __ZL18isLegalMaskComparePN4llvm6SDNodeEPKNS_12X86SubtargetE
000000010037e520 t __ZL18isNegatibleForFreeN4llvm7SDValueEbRKNS_14TargetLoweringEPKNS_13TargetOptionsEj
0000000100209110 t __ZL18isSingleSHUFPSMaskN4llvm8ArrayRefIiEE
000000010017ea40 t __ZL18lowerVectorShuffleN4llvm7SDValueERKNS_12X86SubtargetERNS_12SelectionDAGE
0000000100baf4b0 t __ZL18matchSelectPatternN4llvm7CmpInst9PredicateENS_13FastMathFlagsEPNS_5ValueES4_S4_S4_RS4_S5_j
0000000100d03960 t __ZL18printAsOperandImplRKN4llvm5ValueERNS_11raw_ostreamEbRNS_17ModuleSlotTrackerE
00000001000667d0 t __ZL18printSymbolOperandRN4llvm13X86AsmPrinterERKNS_14MachineOperandERNS_11raw_ostreamE
0000000100379fd0 t __ZL18tryToFoldExtOfLoadRN4llvm12SelectionDAGERN12_GLOBAL__N_111DAGCombinerERKNS_14TargetLoweringENS_3EVTEbPNS_6SDNodeENS_7SDValueENS_3ISD11LoadExtTypeENSC_8NodeTypeE
00000001015a6760 b __ZL19AsSecureLogFileName
000000010158ac28 b __ZL19BCCDisplacementBits
0000000101599088 b __ZL19BranchFoldPlacement
000000010158ab68 b __ZL19CBZDisplacementBits
0000000100464750 t __ZL19CloneNodeWithValuesPN4llvm6SDNodeEPNS_12SelectionDAGENS_8ArrayRefINS_3EVTEEENS_7SDValueE
00000001015a6a30 b __ZL19CodeViewErrCategory
00000001015a4120 b __ZL19ColdCallSiteRelFreq
0000000101585ee8 d __ZL19CondBranchTakenFreq
00000001015a1770 b __ZL19ControlFlowHoisting
000000010159eca0 b __ZL19DisableEarlyTailDup
0000000101588448 b __ZL19DisablePPCUnaligned
0000000101589348 b __ZL19DisableQPXLoadSplat
0000000101596040 b __ZL19DisableStoreExtract
000000010158c980 b __ZL19DisableSuccBBSearch
0000000101589ac8 b __ZL19DisableVSXFMAMutate
0000000100a54e00 t __ZL19DominatesMergePointPN4llvm5ValueEPNS_10BasicBlockERNS_15SmallPtrSetImplIPNS_11InstructionEEERjRKNS_19TargetTransformInfoEj
00000001015949a8 b __ZL19DwarfInlinedStrings
000000010158b468 b __ZL19EnableAdvSIMDScalar
0000000101595f80 b __ZL19EnableAndCmpSinking
000000010158c128 b __ZL19EnableBranchTargets
00000001015900a8 b __ZL19EnableCmovConverter
000000010158c068 b __ZL19EnableFalkorHWPFFix
0000000101593468 b __ZL19EnableFastISelAbort
000000010158bfa8 b __ZL19EnableGlobalISelAtO
00000001015885c8 b __ZL19EnableQuadPrecision
00000001015a6048 b __ZL19EnableScopedNoAlias
000000010159dae0 b __ZL19EnableShrinkWrapOpt
0000000100c665f0 t __ZL19EvaluateSymbolicAddPKN4llvm11MCAssemblerEPKNS_11MCAsmLayoutEPKNS_8DenseMapIPKNS_9MCSectionEyNS_12DenseMapInfoIS9_EENS_6detail12DenseMapPairIS9_yEEEEbRKNS_7MCValueEPKNS_15MCSymbolRefExprESN_xRSI_
00000001015a1fb0 b __ZL19FilterSameScaledReg
0000000101595948 b __ZL19FlagEnableTailMerge
0000000100a5aaa0 t __ZL19FoldCondBranchOnPHIPN4llvm10BranchInstERKNS_10DataLayoutEPNS_15AssumptionCacheE
00000001015926f8 b __ZL19ILPListDAGScheduler
0000000101593118 b __ZL19LimitFloatPrecision
00000001001f8100 t __ZL19LowerVectorIntUnaryN4llvm7SDValueERNS_12SelectionDAGE
00000001015953c8 b __ZL19MarkedJTDataRegions
00000001015a1830 b __ZL19MaxNumUsesTraversed
00000001015a5708 b __ZL19MaxSCEVCompareDepth
00000001015a2f30 b __ZL19MaxSpeculationDepth
00000001015850c0 d __ZL19NumAddrRegsHardened
0000000101587200 d __ZL19NumArrayLenItCounts
0000000101585040 d __ZL19NumBranchesUntraced
0000000101586d80 d __ZL19NumConstantsHoisted
0000000101586da0 d __ZL19NumConstantsRebased
0000000101586d00 d __ZL19NumConvertedTo3Addr
0000000101584e10 d __ZL19NumCopiesEliminated
00000001015854c0 d __ZL19NumFastIselFailures
0000000101587100 d __ZL19NumReadMemFunctions
0000000101586c60 d __ZL19NumTwoAddressInstrs
0000000101598cc8 b __ZL19PreciseRotationCost
0000000101599bd8 b __ZL19PrintRegMaskNumRegs
00000001015a3268 b __ZL19SaturationThreshold
0000000100b874e0 t __ZL19SimplifyAddOperandsRN4llvm15SmallVectorImplIPKNS_4SCEVEEEPNS_4TypeERNS_15ScalarEvolutionE
0000000100218590 t __ZL19SplitAndExtendv16i1jN4llvm3MVTENS_7SDValueERKNS_5SDLocERNS_12SelectionDAGE
0000000101593120 b __ZL19SwitchPeelThreshold
0000000100a5fc00 t __ZL19SwitchToLookupTablePN4llvm10SwitchInstERNS_9IRBuilderINS_14ConstantFolderENS_24IRBuilderDefaultInserterEEERKNS_10DataLayoutERKNS_19TargetTransformInfoE
000000010159a130 b __ZL19SwpPruneLoopCarried
000000010158e6b0 b __ZL19SynthesizeThumb1TBB
000000010158aaa8 b __ZL19TBZDisplacementBits
0000000100aefe10 t __ZL19ThreadCmpOverSelectN4llvm7CmpInst9PredicateEPNS_5ValueES3_RKNS_13SimplifyQueryEj
0000000101124510 s __ZL19TiedAsmOperandTable
00000001015a26a8 b __ZL19UserSinkCommonInsts
00000001015a44e0 b __ZL19VectorizationFactor
00000001015a2900 b __ZL19VerifyLoopLCSSAFlag
00000001006b0850 t __ZL19addRegAndItsAliasesIN4llvm8SmallSetIjLj4ENSt3__14lessIjEEEEEvjPKNS0_18TargetRegisterInfoERT_
00000001004b2fd0 t __ZL19addStackMapLiveVarsN4llvm17ImmutableCallSiteEjRKNS_5SDLocERNS_15SmallVectorImplINS_7SDValueEEERNS_19SelectionDAGBuilderE
0000000100bf05a0 t __ZL19checkEncryptCommandRKN4llvm6object15MachOObjectFileERKNS1_15LoadCommandInfoEjyyPPKcS8_
00000001007bdd50 t __ZL19clampStackAlignmentbjj
0000000100226fd0 t __ZL19combineCompareEqualPN4llvm6SDNodeERNS_12SelectionDAGERNS_14TargetLowering15DAGCombinerInfoERKNS_12X86SubtargetE
0000000100223a10 t __ZL19combineIncDecVectorPN4llvm6SDNodeERNS_12SelectionDAGE
00000001003764c0 t __ZL19combineMinNumMaxNumRKN4llvm5SDLocENS_3EVTENS_7SDValueES4_S4_S4_NS_3ISD8CondCodeERKNS_14TargetLoweringERNS_12SelectionDAGE
0000000100234810 t __ZL19combineToExtendCMOVPN4llvm6SDNodeERNS_12SelectionDAGE
00000001007d4010 t __ZL19computeExprForSpillRKN4llvm12MachineInstrE
0000000100bbae90 t __ZL19computeKnownBitsMulPKN4llvm5ValueES2_bRNS_9KnownBitsES4_jRKN12_GLOBAL__N_15QueryE
0000000100cbed70 t __ZL19discoverTypeIndicesN4llvm8ArrayRefIhEENS_8codeview12TypeLeafKindERNS_15SmallVectorImplINS2_11TiReferenceEEE
00000001005b0490 t __ZL19emitDebugRangesImplRN4llvm10DwarfDebugEPNS_10AsmPrinterERKNS_9DwarfFileEPNS_8MCSymbolE
0000000100140f30 t __ZL19extract128BitVectorN4llvm7SDValueEjRNS_12SelectionDAGERKNS_5SDLocE
00000001001f2750 t __ZL19extract256BitVectorN4llvm7SDValueEjRNS_12SelectionDAGERKNS_5SDLocE
0000000100365e80 t __ZL19foldAddSubOfSignBitPN4llvm6SDNodeERNS_12SelectionDAGE
0000000100985280 t __ZL19getAssociatedSymbolPKN4llvm12GlobalObjectERKNS_13TargetMachineE
0000000100279a60 t __ZL19getConstantFromPoolRKN4llvm12MachineInstrERKNS_14MachineOperandE
000000010023a930 t __ZL19getPSHUFShuffleMaskN4llvm7SDValueE
00000001001a6820 t __ZL19getPackDemandedEltsN4llvm3EVTERKNS_5APIntERS1_S4_
0000000100982990 t __ZL19getReciprocalOpNamebN4llvm3EVTE
00000001009882c0 t __ZL19getSelectionForCOFFPKN4llvm11GlobalValueE
0000000100237860 t __ZL19getShuffleScalarEltPN4llvm6SDNodeEjRNS_12SelectionDAGEj
0000000100b0ab10 t __ZL19getSizeWithOverflowRKNSt3__14pairIN4llvm5APIntES2_EE
0000000100c674a0 t __ZL19getSymbolOffsetImplRKN4llvm11MCAsmLayoutERKNS_8MCSymbolEbRy
000000010015e310 t __ZL19getTargetVShiftNodejRKN4llvm5SDLocENS_3MVTENS_7SDValueES4_RKNS_12X86SubtargetERNS_12SelectionDAGE
0000000100257660 t __ZL19hasPartialRegUpdatejRKN4llvm12X86SubtargetE
0000000100371b00 t __ZL19isBSwapHWordElementN4llvm7SDValueENS_15MutableArrayRefIPNS_6SDNodeEEE
0000000100297d80 t __ZL19isDataInvariantLoadRN4llvm12MachineInstrE
00000001009e6090 t __ZL19isHighCostExpansionPKN4llvm4SCEVERNS_15SmallPtrSetImplIS2_EERNS_15ScalarEvolutionE
0000000100a5d7a0 t __ZL19isSafeToHoistInvokePN4llvm10BasicBlockES1_PNS_11InstructionES3_
00000001002017a0 t __ZL19isShuffleEquivalentN4llvm7SDValueES0_NS_8ArrayRefIiEES2_
0000000100242c50 t __ZL19lookupFoldTableImplN4llvm8ArrayRefINS_23X86MemoryFoldTableEntryEEEj
0000000100bc3860 t __ZL19matchMinMaxOfMinMaxN4llvm7CmpInst9PredicateEPNS_5ValueES3_S3_S3_j
00000001002368f0 t __ZL19promoteExtBeforeAddPN4llvm6SDNodeERNS_12SelectionDAGERKNS_12X86SubtargetE
0000000100aec640 t __ZL19simplifyAndOrOfCmpsRKN4llvm13SimplifyQueryEPNS_5ValueES4_b
0000000100807730 t __ZL19swapAntiDependencesRNSt3__16vectorIN4llvm5SUnitENS_9allocatorIS2_EEEE
0000000100039640 t __ZL19translateRMRegisterRN4llvm6MCInstERNS_15X86Disassembler19InternalInstructionE
0000000100ea9e50 t __ZL19write_unsigned_implIjEvRN4llvm11raw_ostreamET_mNS0_12IntegerStyleEb
000000010158c5c0 b __ZL20AlignConstantIslands
00000001015a8900 b __ZL20BadAllocErrorHandler
000000010159af78 b __ZL20DefaultSchedRegistry
000000010159ba98 b __ZL20DisableEdgeSplitting
0000000101597da8 b __ZL20DisableForkedDiamond
000000010158c8c0 b __ZL20DisableForwardSearch
000000010159b848 b __ZL20DisableNAPhysCopyOpt
0000000101589888 b __ZL20DisablePPCConstHoist
00000001015928a8 b __ZL20DisableSchedLiveUses
00000001015a9100 b __ZL20DisableSymbolication
000000010159ebe0 b __ZL20DisableTailDuplicate
00000001015a6110 b __ZL20DomConditionsMaxUses
0000000100c46e80 t __ZL20EmitSDKVersionSuffixRN4llvm11raw_ostreamERKNS_12VersionTupleE
0000000101591c50 b __ZL20EnableCSEInLegalizer
000000010158af28 b __ZL20EnableEarlyIfConvert
00000001015a0038 b __ZL20EnableFastISelOption
0000000101596c40 b __ZL20EnableGEPOffsetSplit
0000000101588c88 b __ZL20EnableGPRToVecSpills
0000000101588688 b __ZL20EnablePEVectorSpills
00000001015a33f0 b __ZL20EnableRecPhiAnalysis
000000010159dfa8 b __ZL20EnableSelectionDAGSP
000000010158b3a8 b __ZL20EnableStPairSuppress
000000010159a388 b __ZL20EnableSubRegLiveness
00000001015a2ff0 b __ZL20EnableUnsafeFPShrink
00000001015a88f8 b __ZL20ErrorHandlerUserData
00000001015a8470 b __ZL20ExtraVersionPrinters
0000000100d4f360 t __ZL20ExtractConstantBytesPN4llvm8ConstantEjj
00000001015964c0 b __ZL20FreqRatioToSkipMerge
000000010159b128 b __ZL20GenericSchedRegistry
000000010037e9d0 t __ZL20GetNegatedExpressionN4llvm7SDValueERNS_12SelectionDAGEbj
0000000100b77a30 t __ZL20GetQuadraticEquationPKN4llvm14SCEVAddRecExprE
00000001004b1f80 t __ZL20GetRegistersForValueRN4llvm12SelectionDAGERKNS_5SDLocERN12_GLOBAL__N_120SDISelAsmOperandInfoES7_
0000000101597268 b __ZL20GlobalMergeMaxOffset
00000001015a3fa0 b __ZL20HotCallSiteThreshold
0000000100e3bd50 t __ZL20IsScalarTBAANodeImplPKN4llvm6MDNodeERNS_15SmallPtrSetImplIS2_EE
0000000101598b48 b __ZL20LoopToColdBlockRatio
00000001015a5888 b __ZL20MaxValueCompareDepth
000000010159e758 b __ZL20MaximumJumpTableSize
0000000101210920 s __ZL20MemoryFoldTable2Addr
0000000101594c00 b __ZL20NoDwarfRangesSection
0000000101586ac8 d __ZL20NumBBsHaveNoStackmap
0000000101586888 d __ZL20NumCandidatesDropped
0000000101584d50 d __ZL20NumClosuresConverted
0000000101587020 d __ZL20NumLookupTablesHoles
0000000101585a20 d __ZL20NumMemCmpNotConstant
00000001015a92d0 b __ZL20NumRegisteredSignals
0000000100b88a90 t __ZL20PickMostRelevantLoopPKN4llvm4LoopES2_RNS_13DominatorTreeE
0000000101587790 s __ZL20PrettyStackTraceHead
0000000101587868 s __ZL20PrettyStackTraceHead$tlv$init
00000001015925a8 b __ZL20RegPressureThreshold
000000010159cb10 b __ZL20RegisterPBQPRepAlloc
00000001015a92e0 b __ZL20RegisteredSignalInfo
0000000100b0df20 t __ZL20RemoveFromReverseMapIN4llvm14PointerIntPairIPKNS0_5ValueELj1EbNS0_21PointerLikeTypeTraitsIS4_EENS0_18PointerIntPairInfoIS4_Lj1ES6_EEEEEvRNS0_8DenseMapIPNS0_11InstructionENS0_11SmallPtrSetIT_Lj4EEENS0_12DenseMapInfoISC_EENS0_6detail12DenseMapPairISC_SF_EEEESC_SE_
0000000100b0dcf0 t __ZL20RemoveFromReverseMapIPN4llvm11InstructionEEvRNS0_8DenseMapIS2_NS0_11SmallPtrSetIT_Lj4EEENS0_12DenseMapInfoIS2_EENS0_6detail12DenseMapPairIS2_S6_EEEES2_S5_
000000010158a868 b __ZL20ReverseCSRRestoreSeq
000000010158e830 b __ZL20SpillAlignedNEONRegs
0000000101596280 b __ZL20StressExtLdPromotion
0000000100d63f70 t __ZL20TypeToFloatSemanticsPN4llvm4TypeE
00000001015997a8 b __ZL20VerifyMachineDomInfo
00000001015a7ee8 b __ZL20WrappedHiddenPrinter
00000001015a7ed8 b __ZL20WrappedNormalPrinter
0000000100bc66f0 t __ZL20addToAccessGroupListIN4llvm14SmallSetVectorIPNS0_8MetadataELj4EEEEvRT_PNS0_6MDNodeE
0000000101592668 b __ZL20burrListDAGScheduler
0000000100bee1d0 t __ZL20checkDyldInfoCommandRKN4llvm6object15MachOObjectFileERKNS1_15LoadCommandInfoEjPPKcS8_RNSt3__14listI12MachOElementNSA_9allocatorISC_EEEE
000000010050dd70 t __ZL20checkForCyclesHelperPKN4llvm6SDNodeERNS_15SmallPtrSetImplIS2_EES5_PKNS_12SelectionDAGE
0000000100237ea0 t __ZL20combineTargetShuffleN4llvm7SDValueERNS_12SelectionDAGERNS_14TargetLowering15DAGCombinerInfoERKNS_12X86SubtargetE
00000001006a68c0 t __ZL20createCmpXchgInstFunRN4llvm9IRBuilderINS_14ConstantFolderENS_24IRBuilderDefaultInserterEEEPNS_5ValueES6_S6_NS_14AtomicOrderingERS6_S8_
0000000100843840 t __ZL20createConveringSchedPN4llvm19MachineSchedContextE
00000001005fb510 t __ZL20createX86MCInstrInfov
0000000100584400 t __ZL20emitGlobalConstantFPN4llvm7APFloatEPNS_4TypeERNS_10AsmPrinterE
0000000100d537e0 t __ZL20evaluateFCmpRelationPN4llvm8ConstantES1_
0000000100d53990 t __ZL20evaluateICmpRelationPN4llvm8ConstantES1_b
0000000100b85620 t __ZL20findInsertPointAfterPN4llvm11InstructionEPNS_10BasicBlockE
0000000100b3e8e0 t __ZL20getExtendAddRecStartIN4llvm18SCEVSignExtendExprEEPKNS0_4SCEVEPKNS0_14SCEVAddRecExprEPNS0_4TypeEPNS0_15ScalarEvolutionEj
0000000100b3a9b0 t __ZL20getExtendAddRecStartIN4llvm18SCEVZeroExtendExprEEPKNS0_4SCEVEPKNS0_14SCEVAddRecExprEPNS0_4TypeEPNS0_15ScalarEvolutionEj
000000010060aa90 t __ZL20getFixupKindLog2Sizej
00000001001eec90 t __ZL20getHopForBuildVectorPKN4llvm17BuildVectorSDNodeERNS_12SelectionDAGEjNS_7SDValueES5_
00000001003643a0 t __ZL20getInputChainForNodePN4llvm6SDNodeE
00000001002cac60 t __ZL20getOffsetFromIndicesRKN4llvm4UserERKNS_10DataLayoutE
0000000100980ce0 t __ZL20getOpRefinementStepsbN4llvm3EVTENS_9StringRefE
000000010015dfb0 t __ZL20getScalarMaskingNodeN4llvm7SDValueES0_S0_RKNS_12X86SubtargetERNS_12SelectionDAGE
00000001001a6dd0 t __ZL20getTargetShuffleMaskPN4llvm6SDNodeENS_3MVTEbRNS_15SmallVectorImplINS_7SDValueEEERNS3_IiEERb
0000000100805610 t __ZL20getUnderlyingObjectsPN4llvm12MachineInstrERNS_15SmallVectorImplIPNS_5ValueEEERKNS_10DataLayoutE
000000010015de00 t __ZL20getVectorMaskingNodeN4llvm7SDValueES0_S0_RKNS_12X86SubtargetERNS_12SelectionDAGE
0000000100121550 t __ZL20hasStackGuardSlotTLSRKN4llvm6TripleE
0000000100dca0f0 t __ZL20haveSameSpecialStatePKN4llvm11InstructionES2_b
00000001009e8bf0 t __ZL20isAMCompletelyFoldedRKN4llvm19TargetTransformInfoEN12_GLOBAL__N_16LSRUse8KindTypeENS3_11MemAccessTyEPNS_11GlobalValueExbxPNS_11InstructionE
00000001009f03b0 t __ZL20isAMCompletelyFoldedRKN4llvm19TargetTransformInfoERKN12_GLOBAL__N_16LSRUseERKNS3_7FormulaE
0000000100d55ea0 t __ZL20isMaybeZeroSizedTypePN4llvm4TypeE
00000001009ace60 t __ZL20isTopLevelPadForMSVCPKN4llvm11InstructionE
0000000100cc1770 t __ZL20mapNameAndUniqueNameRN4llvm8codeview16CodeViewRecordIOERNS_9StringRefES4_b
0000000100af7d40 t __ZL20maskIsAllZeroOrUndefPN4llvm5ValueE
000000010053b120 t __ZL20pushStackMapConstantRN4llvm15SmallVectorImplINS_7SDValueEEERNS_19SelectionDAGBuilderEy
0000000100ce1a30 t __ZL20readAbbreviatedFieldRN4llvm15BitstreamCursorERKNS_15BitCodeAbbrevOpE
0000000100d42e30 t __ZL20upgradeMaskedCompareRN4llvm9IRBuilderINS_14ConstantFolderENS_24IRBuilderDefaultInserterEEERNS_8CallInstEjb
00000001015a5648 b __ZL21AddOpsInlineThreshold
0000000100a43240 t __ZL21AddPredecessorToBlockPN4llvm10BasicBlockES1_S1_
0000000101596a00 b __ZL21AddrSinkCombineBaseGV
000000010158e530 b __ZL21AdjustJumpTableBlocks
0000000100b61670 t __ZL21BuildConstantFromSCEVPKN4llvm4SCEVE
000000010044e2c0 t __ZL21BuildVectorFromScalarRN4llvm12SelectionDAGENS_3EVTERNS_15SmallVectorImplINS_7SDValueEEEjj
00000001015a3e20 b __ZL21ColdCallSiteThreshold
0000000100b6fe00 t __ZL21CompareSCEVComplexityRN4llvm18EquivalenceClassesIPKNS_4SCEVEEERNS0_IPKNS_5ValueEEEPKNS_8LoopInfoES3_S3_RNS_13DominatorTreeEj
000000010158ca40 b __ZL21DisableBackwardSearch
000000010159ed60 b __ZL21DisableBlockPlacement
00000001015961c0 b __ZL21DisableExtLdPromotion
0000000101592968 b __ZL21DisableSchedVRegCycle
0000000101595e00 b __ZL21DisableSelectToBranch
0000000101589288 b __ZL21DisableVSXSwapRemoval
000000010158f388 b __ZL21EnableARMLoadStoreOpt
000000010159bdb8 b __ZL21EnableAntiDepBreaking
0000000101592428 b __ZL21EnableExpensiveChecks
0000000101589648 b __ZL21EnableExtraTOCRegDeps
00000001015a02a0 b __ZL21EnableGlobalISelAbort
000000010159fde0 b __ZL21EnableMachineOutliner
000000010159bcf8 b __ZL21EnablePostRAScheduler
000000010158b528 b __ZL21EnablePromoteConstant
0000000101588988 b __ZL21EnableSExtElimination
0000000101598508 b __ZL21EnableTrapUnreachable
0000000101588a48 b __ZL21EnableZExtElimination
00000001001ef7d0 t __ZL21ExpandHorizontalBinOpRKN4llvm7SDValueES2_RKNS_5SDLocERNS_12SelectionDAGEjbbb
00000001015942b8 b __ZL21GenerateARangeSection
0000000101597328 b __ZL21GlobalMergeGroupByUse
0000000101591328 b __ZL21HardenEdgesWithLFENCE
00000001012c7670 s __ZL21IIT_LongEncodingTable
000000010159c120 b __ZL21InitializePEIPassFlag
000000010013bb80 t __ZL21LowerBUILD_VECTORvXi1N4llvm7SDValueERNS_12SelectionDAGERKNS_12X86SubtargetE
00000001002187f0 t __ZL21LowerSIGN_EXTEND_MaskN4llvm7SDValueERKNS_12X86SubtargetERNS_12SelectionDAGE
000000010158d740 b __ZL21Mips16ConstantIslands
00000001015a5588 b __ZL21MulOpsInlineThreshold
00000001015850a0 d __ZL21NumCondBranchesTraced
0000000101585720 d __ZL21NumConditionalRelaxed
00000001015863c8 d __ZL21NumCriticalEdgesSplit
0000000101585bd8 d __ZL21NumImplicitNullChecks
00000001015870e0 d __ZL21NumIndirectGlobalVars
00000001015864c8 d __ZL21NumLeafFuncWithSpills
00000001015871c0 d __ZL21NumTripCountsComputed
0000000101587180 d __ZL21ObjectVisitorArgument
00000001006cd470 t __ZL21OptimizeCmpExpressionPN4llvm7CmpInstEPKNS_14TargetLoweringE
0000000100584cc0 t __ZL21PrintChildLoopCommentRN4llvm11raw_ostreamEPKNS_11MachineLoopEj
0000000101598840 b __ZL21PrintMachineBlockFreq
0000000100236370 t __ZL21PromoteMaskArithmeticPN4llvm6SDNodeERNS_12SelectionDAGERKNS_12X86SubtargetE
0000000101218940 s __ZL21ReplaceableInstrsAVX2
00000001015879b0 b __ZL21SmallCTRLoopThreshold
000000010159bb58 b __ZL21SplitAllCriticalEdges
0000000100b3fcd0 t __ZL21StrengthenNoWrapFlagsPN4llvm15ScalarEvolutionENS_9SCEVTypesERKNS_15SmallVectorImplIPKNS_4SCEVEEENS4_11NoWrapFlagsE
0000000100ae9a20 t __ZL21ThreadBinOpOverSelectN4llvm11Instruction9BinaryOpsEPNS_5ValueES3_RKNS_13SimplifyQueryEj
0000000101585f08 d __ZL21UncondBranchTakenFreq
0000000100d49e70 t __ZL21UpgradePTESTIntrinsicPN4llvm8FunctionENS_9Intrinsic2IDERS1_
0000000100d45140 t __ZL21UpgradeX86MaskedShiftRN4llvm9IRBuilderINS_14ConstantFolderENS_24IRBuilderDefaultInserterEEERNS_8CallInstENS_9Intrinsic2IDE
00000001015a25e8 b __ZL21UserForwardSwitchCond
00000001015a3328 b __ZL21VerifyAssumptionCache
00000001015996e8 b __ZL21VerifyMachineDomInfoX
0000000101593850 b __ZL21ViewLegalizeTypesDAGs
0000000100d01750 t __ZL21WriteConstantInternalRN4llvm11raw_ostreamEPKNS_8ConstantERN12_GLOBAL__N_112TypePrintingEPNS_11SlotTrackerEPKNS_6ModuleE
0000000100d1a2b0 t __ZL21WriteOptimizationInfoRN4llvm11raw_ostreamEPKNS_4UserE
000000010069f660 t __ZL21advanceToNextLeafTypeRN4llvm15SmallVectorImplIPNS_13CompositeTypeEEERNS0_IjEE
0000000100373740 t __ZL21calculateByteProviderN4llvm7SDValueEjjb
000000010045b340 t __ZL21canClobberPhysRegDefsPKN4llvm5SUnitES2_PKNS_15TargetInstrInfoEPKNS_18TargetRegisterInfoE
00000001001e0fc0 t __ZL21clobbersFlagRegistersRKN4llvm11SmallVectorINS_9StringRefELj4EEE
000000010069f410 t __ZL21collectEHScopeMembersRN4llvm8DenseMapIPKNS_17MachineBasicBlockEiNS_12DenseMapInfoIS3_EENS_6detail12DenseMapPairIS3_iEEEEiS3_
0000000100b97860 t __ZL21compareByScalarFnNameRKN4llvm7VecDescES2_
0000000100b978b0 t __ZL21compareByVectorFnNameRKN4llvm7VecDescES2_
0000000100844470 t __ZL21createILPMaxSchedulerPN4llvm19MachineSchedContextE
0000000100844510 t __ZL21createILPMinSchedulerPN4llvm19MachineSchedContextE
000000010020d2f0 t __ZL21createPackShuffleMaskN4llvm3MVTERNS_15SmallVectorImplIiEEb
00000001001eff50 t __ZL21createVariablePermuteN4llvm3MVTENS_7SDValueES1_RNS_5SDLocERNS_12SelectionDAGERKNS_12X86SubtargetE
0000000100036d50 t __ZL21createX86DisassemblerRKN4llvm6TargetERKNS_15MCSubtargetInfoERNS_9MCContextE
0000000100371fc0 t __ZL21extractShiftForRotateRN4llvm12SelectionDAGENS_7SDValueES2_RS2_RKNS_5SDLocE
000000010053f840 t __ZL21findPreviousSpillSlotPKN4llvm5ValueERNS_19SelectionDAGBuilderEi
00000001005e9180 t __ZL21getCommonClassOptionsPKN4llvm15DICompositeTypeE
0000000100d7ea20 t __ZL21getIRBForDbgInsertionPKN4llvm10DILocationEPNS_10BasicBlockEPNS_11InstructionE
0000000100266340 t __ZL21getLoadStoreRegOpcodejPKN4llvm19TargetRegisterClassEbRKNS_12X86SubtargetEb
0000000100df95f0 t __ZL21getNameWithPrefixImplRN4llvm11raw_ostreamERKNS_5TwineEN12_GLOBAL__N_115ManglerPrefixTyERKNS_10DataLayoutEc
00000001005f7e70 t __ZL21getRelaxedOpcodeArithRKN4llvm6MCInstE
0000000100855da0 t __ZL21hasRegisterDependencyPN4llvm12MachineInstrERNS_15SmallVectorImplIjEES4_RNS_12LiveRegUnitsES6_
000000010089f2e0 t __ZL21initializePEIPassOnceRN4llvm12PassRegistryE
00000001001ef0e0 t __ZL21isHorizontalBinOpPartPKN4llvm17BuildVectorSDNodeEjRNS_12SelectionDAGEjjRNS_7SDValueES6_
0000000100206390 t __ZL21isRepeatedShuffleMaskjN4llvm3MVTENS_8ArrayRefIiEERNS_15SmallVectorImplIiEE
0000000100216a70 t __ZL21isUnpackWdShuffleMaskN4llvm8ArrayRefIiEENS_3MVTE
00000001007edfa0 t __ZL21printIRValueReferenceRN4llvm11raw_ostreamERKNS_5ValueERNS_17ModuleSlotTrackerE
000000010051bef0 t __ZL21printrWithDepthHelperRN4llvm11raw_ostreamEPKNS_6SDNodeEPKNS_12SelectionDAGEjj
0000000100525be0 t __ZL21reportFastISelFailureRN4llvm15MachineFunctionERNS_25OptimizationRemarkEmitterERNS_24OptimizationRemarkMissedEb
0000000100af3c60 t __ZL21simplifySelectBitTestPN4llvm5ValueES1_S1_PKNS_5APIntEb
000000010037b320 t __ZL21tryToFoldExtOfExtloadRN4llvm12SelectionDAGERN12_GLOBAL__N_111DAGCombinerERKNS_14TargetLoweringENS_3EVTEbPNS_6SDNodeENS_7SDValueENS_3ISD11LoadExtTypeE
0000000100edf440 t __ZL21updateTripleOSVersionNSt3__112basic_stringIcNS_11char_traitsIcEENS_9allocatorIcEEEE
0000000100d43ef0 t __ZL21upgradeX86ConcatShiftRN4llvm9IRBuilderINS_14ConstantFolderENS_24IRBuilderDefaultInserterEEERNS_8CallInstEbb
00000001004bde60 t __ZL21widenVectorToPartTypeRN4llvm12SelectionDAGENS_7SDValueERKNS_5SDLocENS_3EVTE
0000000101596940 b __ZL22AddrSinkCombineBaseReg
0000000100d428e0 t __ZL22ApplyX86MaskOn1BitsVecRN4llvm9IRBuilderINS_14ConstantFolderENS_24IRBuilderDefaultInserterEEEPNS_5ValueES6_
0000000101587e30 b __ZL22BPermRewriterNoMasking
0000000100b705e0 t __ZL22CompareValueComplexityRN4llvm18EquivalenceClassesIPKNS_5ValueEEEPKNS_8LoopInfoEPS1_S9_j
0000000100bc1640 t __ZL22ComputeNumSignBitsImplPKN4llvm5ValueEjRKN12_GLOBAL__N_15QueryE
000000010158c800 b __ZL22DisableDelaySlotFiller
00000001015a4e00 b __ZL22EnableARCOptimizations
0000000101588f88 b __ZL22EnableBranchCoalescing
000000010159c7c8 b __ZL22EnableDeferredSpilling
00000001015a00f8 b __ZL22EnableGlobalISelOption
000000010158bee8 b __ZL22EnableLoopDataPrefetch
0000000101594378 b __ZL22GenerateDwarfTypeUnits
000000010052f8b0 t __ZL22HandleMergeInputChainsRN4llvm15SmallVectorImplIPNS_6SDNodeEEEPNS_12SelectionDAGE
0000000101590ab8 b __ZL22IndirectBranchTracking
0000000101585d58 d __ZL22NumInsertedDebugValues
0000000101584cb0 d __ZL22NumOfSkippedCmovGroups
0000000101586a68 d __ZL22NumStackMapFuncSkipped
0000000101586a48 d __ZL22NumStackMapFuncVisited
00000001015858e0 d __ZL22NumStoreExtractExposed
00000001015862c8 d __ZL22NumUncoalescableCopies
00000001015a8380 b __ZL22OverrideVersionPrinter
0000000100584ab0 t __ZL22PrintParentLoopCommentRN4llvm11raw_ostreamEPKNS_11MachineLoopEj
00000001015a5100 b __ZL22ProfileSummaryHotCount
0000000100a42be0 t __ZL22SafeToMergeTerminatorsPN4llvm11InstructionES1_PNS_14SmallSetVectorIPNS_10BasicBlockELj4EEE
000000010156a440 s __ZL22SectionAttrDescriptors
000000010156a180 s __ZL22SectionTypeDescriptors
0000000100af3fc0 t __ZL22SimplifyWithOpReplacedPN4llvm5ValueES1_S1_RKNS_13SimplifyQueryEj
0000000101599a28 b __ZL22SinkInstsToAvoidSpills
0000000100a58f10 t __ZL22SpeculativelyExecuteBBPN4llvm10BranchInstEPNS_10BasicBlockERKNS_19TargetTransformInfoE
00000001015a23a8 b __ZL22UserBonusInstThreshold
00000001015a8468 b __ZL22VersionPrinterInstance
0000000100d09930 t __ZL22WriteAsOperandInternalRN4llvm11raw_ostreamEPKNS_5ValueEPN12_GLOBAL__N_112TypePrintingEPNS_11SlotTrackerEPKNS_6ModuleE
0000000100d0a860 t __ZL22WriteAsOperandInternalRN4llvm11raw_ostreamEPKNS_8MetadataEPN12_GLOBAL__N_112TypePrintingEPNS_11SlotTrackerEPKNS_6ModuleEb
0000000100222d10 t __ZL22combineCarryThroughADDN4llvm7SDValueE
00000001002299a0 t __ZL22combineX86ShuffleChainN4llvm8ArrayRefINS_7SDValueEEES1_NS0_IiEEibbRNS_12SelectionDAGERKNS_12X86SubtargetE
00000001005fb800 t __ZL22createX86MCInstPrinterRKN4llvm6TripleEjRKNS_9MCAsmInfoERKNS_11MCInstrInfoERKNS_14MCRegisterInfoE
0000000100e9b010 t __ZL22debug_user_sig_handlerPv
0000000100581760 t __ZL22emitGlobalConstantImplRKN4llvm10DataLayoutEPKNS_8ConstantERNS_10AsmPrinterES5_y
00000001000e0de0 t __ZL22findDeadCallerSavedRegRN4llvm17MachineBasicBlockERNS_26MachineInstrBundleIteratorINS_12MachineInstrELb0EEEPKNS_15X86RegisterInfoEb
0000000100486630 t __ZL22findUnwindDestinationsRN4llvm20FunctionLoweringInfoEPKNS_10BasicBlockENS_17BranchProbabilityERNS_15SmallVectorImplINSt3__14pairIPNS_17MachineBasicBlockES5_EEEE
0000000100ec42e0 t __ZL22getArchPointerBitWidthN4llvm6Triple8ArchTypeE
00000001005f7c50 t __ZL22getRelaxedOpcodeBranchRKN4llvm6MCInstEb
00000001015926c8 b __ZL22hybridListDAGScheduler
0000000100ba6410 t __ZL22isKnownToBeAPowerOfTwoPKN4llvm5ValueEbjRKN12_GLOBAL__N_15QueryE
0000000100584780 t __ZL22isRepeatedByteSequencePKN4llvm5ValueERKNS_10DataLayoutE
0000000100dd3be0 t __ZL22isSingleSourceMaskImplN4llvm8ArrayRefIiEEi
0000000100a5b730 t __ZL22mergeConditionalStoresPN4llvm10BranchInstES1_RKNS_10DataLayoutE
00000001002c8360 t __ZL22reportTranslationErrorRN4llvm15MachineFunctionERKNS_16TargetPassConfigERNS_25OptimizationRemarkEmitterERNS_24OptimizationRemarkMissedE
000000010027b350 t __ZL22shouldScheduleAdjacentRKN4llvm15TargetInstrInfoERKNS_19TargetSubtargetInfoEPKNS_12MachineInstrERS7_
0000000100af6e00 t __ZL22simplifyUnaryIntrinsicPN4llvm8FunctionEPNS_5ValueERKNS_13SimplifyQueryE
0000000101592698 b __ZL22sourceListDAGScheduler
000000010014aa30 t __ZL22truncateVectorWithPACKjN4llvm3EVTENS_7SDValueERKNS_5SDLocERNS_12SelectionDAGERKNS_12X86SubtargetE
00000001008364b0 t __ZL22useDefaultMachineSchedPN4llvm19MachineSchedContextE
0000000101596ac0 b __ZL23AddrSinkCombineBaseOffs
00000001015a6448 b __ZL23AsmMacroMaxNestingDepth
000000010007c430 t __ZL23CC_X86_32_Vector_CommonjN4llvm3MVTES0_NS_11CCValAssign7LocInfoENS_3ISD10ArgFlagsTyERNS_7CCStateE
00000001000cad30 t __ZL23CC_X86_32_Vector_CommonjN4llvm3MVTES0_NS_11CCValAssign7LocInfoENS_3ISD10ArgFlagsTyERNS_7CCStateE
00000001001ee020 t __ZL23CC_X86_32_Vector_CommonjN4llvm3MVTES0_NS_11CCValAssign7LocInfoENS_3ISD10ArgFlagsTyERNS_7CCStateE
0000000101596700 b __ZL23DisableComplexAddrModes
000000010159f660 b __ZL23DisableConstantHoisting
000000010159e518 b __ZL23DisableHazardRecognizer
0000000101596340 b __ZL23DisablePreheaderProtect
0000000101592a28 b __ZL23DisableSchedPhysRegJoin
00000001015927e8 b __ZL23DisableSchedRegPressure
000000010158c500 b __ZL23DontExpandCondPseudos16
0000000101591b68 b __ZL23EnableCSEInIRTranslator
0000000101591938 b __ZL23EnableCondBrFoldingPass
000000010158b9a8 b __ZL23EnableEarlyIfConversion
000000010159c708 b __ZL23EnableLocalReassignment
00000001015a2780 b __ZL23EnableNoAliasConversion
00000001015913e8 b __ZL23EnablePostLoadHardening
000000010037b6d0 t __ZL23ExtendUsesToFormExtLoadN4llvm3EVTEPNS_6SDNodeENS_7SDValueEjRNS_15SmallVectorImplIS2_EERKNS_14TargetLoweringE
00000001015936a8 b __ZL23FilterDAGBasicBlockName
0000000101589e88 b __ZL23FullRegNamesWithPercent
0000000101591568 b __ZL23HardenInterprocedurally
000000010159e5d8 b __ZL23JumpIsExpensiveOverride
000000010159dd48 b __ZL23LifetimeStartOnFirstUse
00000001015a5288 b __ZL23MaxBruteForceIterations
000000010159e698 b __ZL23MinimumJumpTableEntries
000000010158cb00 b __ZL23MipsCompactBranchPolicy
00000001015909f8 b __ZL23MulConstantOptimization
0000000101585100 d __ZL23NumCallsOrJumpsHardened
0000000101585a40 d __ZL23NumMemCmpGreaterThanMax
0000000101584cd0 d __ZL23NumOfCmovGroupCandidate
00000001015850e0 d __ZL23NumPostLoadRegsHardened
00000001015856e0 d __ZL23NumUnconditionalRelaxed
00000001015851a0 d __ZL23NumValueMappingsCreated
000000010159e8d8 b __ZL23OptsizeJumpTableDensity
00000001015a29f0 b __ZL23PHINodeFoldingThreshold
00000001015a51c0 b __ZL23ProfileSummaryColdCount
00000001015a4ec0 b __ZL23ProfileSummaryCutoffHot
0000000101218e20 s __ZL23ReplaceableCustomInstrs
0000000101218a10 s __ZL23ReplaceableInstrsAVX512
000000010021a820 t __ZL23SupportedVectorVarShiftN4llvm3MVTERKNS_12X86SubtargetEj
00000001015992c8 b __ZL23TailDupPlacementPenalty
00000001015a45a0 b __ZL23VectorizationInterleave
0000000100d0e090 t __ZL23WriteMDNodeBodyInternalRN4llvm11raw_ostreamEPKNS_6MDNodeEPN12_GLOBAL__N_112TypePrintingEPNS_11SlotTrackerEPKNS_6ModuleE
00000001003847b0 t __ZL23canFoldInAddressingModePN4llvm6SDNodeES1_RNS_12SelectionDAGERKNS_14TargetLoweringE
00000001001f85e0 t __ZL23canWidenShuffleElementsN4llvm8ArrayRefIiEERNS_15SmallVectorImplIiEE
0000000100bf5b10 t __ZL23checkOverlappingElementRNSt3__14listI12MachOElementNS_9allocatorIS1_EEEEyyPKc
00000001001c3540 t __ZL23combineExtractVectorEltPN4llvm6SDNodeERNS_12SelectionDAGERNS_14TargetLowering15DAGCombinerInfoERKNS_12X86SubtargetE
0000000100ac2aa0 t __ZL23completeEphemeralValuesRN4llvm15SmallPtrSetImplIPKNS_5ValueEEERNS_15SmallVectorImplIS3_EES5_
00000001008f3d10 t __ZL23computeMaxPressureDeltaN4llvm8ArrayRefIjEES1_NS0_INS_14PressureChangeEEES1_RNS_16RegPressureDeltaE
000000010021a910 t __ZL23convertShiftLeftToScaleN4llvm7SDValueERKNS_5SDLocERKNS_12X86SubtargetERNS_12SelectionDAGE
00000001005fb560 t __ZL23createX86MCRegisterInfoRKN4llvm6TripleE
0000000101594038 b __ZL23defaultListDAGScheduler
00000001005b0380 t __ZL23emitRnglistsTableHeaderPN4llvm10AsmPrinterERKNS_9DwarfFileE
000000010037bf30 t __ZL23foldExtendedSignBitTestPN4llvm6SDNodeERNS_12SelectionDAGEb
0000000100119420 t __ZL23foldMaskAndShiftToScaleRN4llvm12SelectionDAGENS_7SDValueEyS2_S2_RN12_GLOBAL__N_118X86ISelAddressModeE
00000001009b7cc0 t __ZL23getCleanupRetUnwindDestPKN4llvm14CleanupPadInstE
00000001009b7d90 t __ZL23getEHPadFromPredecessorPKN4llvm10BasicBlockEPNS_5ValueE
00000001004be740 t __ZL23getLimitedPrecisionExp2N4llvm7SDValueERKNS_5SDLocERNS_12SelectionDAGE
00000001004fa350 t __ZL23getMemcpyLoadsAndStoresRN4llvm12SelectionDAGERKNS_5SDLocENS_7SDValueES5_S5_yjbbNS_18MachinePointerInfoES6_
0000000100192260 t __ZL23getReadTimeStampCounterPN4llvm6SDNodeERKNS_5SDLocEjRNS_12SelectionDAGERKNS_12X86SubtargetERNS_15SmallVectorImplINS_7SDValueEEE
0000000100447cf0 t __ZL23isSETCCorConvertedSETCCN4llvm7SDValueE
0000000100d1a720 t __ZL23maybePrintCallAddrSpacePKN4llvm5ValueEPKNS_11InstructionERNS_11raw_ostreamE
0000000100222ec0 t __ZL23needCarryOrOverflowFlagN4llvm7SDValueE
00000001015861c8 d __ZL23numMachineSimpleRegions
0000000100c473d0 t __ZL23printDwarfFileDirectivejN4llvm9StringRefES0_PNS_3MD59MD5ResultENS_8OptionalIS0_EEbRNS_19raw_svector_ostreamE
0000000100d0a4e0 t __ZL23printMetadataIdentifierN4llvm9StringRefERNS_21formatted_raw_ostreamE
0000000100cc6cf0 t __ZL23readIdentificationBlockRN4llvm15BitstreamCursorE
0000000100af7290 t __ZL23simplifyBinaryIntrinsicPN4llvm8FunctionEPNS_5ValueES3_RKNS_13SimplifyQueryE
0000000100f2b630 s __ZL23x86DisassemblerContexts
0000000101596b80 b __ZL24AddrSinkCombineScaledReg
00000001015a7ec8 b __ZL24CategorizedHiddenPrinter
00000001015a7eb8 b __ZL24CategorizedNormalPrinter
000000010158ff08 b __ZL24ClAsanInstrumentAssembly
0000000100a5d230 t __ZL24ConstantIntSortPredicatePKPN4llvm11ConstantIntES3_
0000000100154940 t __ZL24ConvertI1VectorToIntegerN4llvm7SDValueERNS_12SelectionDAGE
000000010158f208 b __ZL24DisableA15SDOptimization
0000000101594138 b __ZL24DisableDebugInfoPrinting
000000010159f060 b __ZL24DisableEarlyIfConversion
000000010159f360 b __ZL24DisablePostRAMachineLICM
000000010159f4e0 b __ZL24DisablePostRAMachineSink
0000000101592ba8 b __ZL24DisableSchedCriticalPath
00000001015a91c0 b __ZL24DisableSymbolicationFlag
000000010013d3c0 t __ZL24EltsFromConsecutiveLoadsN4llvm3EVTENS_8ArrayRefINS_7SDValueEEERKNS_5SDLocERNS_12SelectionDAGERKNS_12X86SubtargetEb
000000010158bd68 b __ZL24EnableCompressJumpTables
000000010158ea70 b __ZL24EnableConstpoolPromotion
00000001015903d8 b __ZL24EnableDiscriminateMemops
00000001015974a8 b __ZL24EnableGlobalMergeOnConst
000000010159f960 b __ZL24EnableImplicitNullChecks
000000010158a9e8 b __ZL24EnableOptimizeLogicalImm
000000010159de18 b __ZL24EnablePatchPointLiveness
000000010159b068 b __ZL24EnablePostRAMachineSched
0000000101598420 b __ZL24EnablePrecomputePhysRegs
0000000101596640 b __ZL24EnableTypePromotionMerge
000000010050e6a0 t __ZL24FindOptimalMemOpLoweringRNSt3__16vectorIN4llvm3EVTENS_9allocatorIS2_EEEEjyjjbbbbjjRNS1_12SelectionDAGERKNS1_14TargetLoweringE
0000000101598d88 b __ZL24ForcePreciseRotationCost
00000001015a6a54 b __ZL24InjectMethodOverloadList
000000010159d148 b __ZL24LateRematUpdateThreshold
00000001001f31f0 t __ZL24LowerBuildVectorAsInsertN4llvm7SDValueEjjjRNS_12SelectionDAGERKNS_12X86SubtargetE
0000000100144ca0 t __ZL24LowerI64IntToFP_AVX512DQN4llvm7SDValueERNS_12SelectionDAGERKNS_12X86SubtargetE
0000000101598198 b __ZL24LowerInterleavedAccesses
00000001015a5a08 b __ZL24MaxConstantEvolvingDepth
00000001015a61d0 b __ZL24MaxInterleaveGroupFactor
0000000101585360 d __ZL24NumFastIselSuccessTarget
0000000101585840 d __ZL24NumMemoryInstsPhiCreated
00000001015870a0 d __ZL24NumNonAddrTakenFunctions
0000000101584cf0 d __ZL24NumOfOptimizedCmovGroups
00000001015871e0 d __ZL24NumTripCountsNotComputed
0000000101585180 d __ZL24NumValueMappingsAccessed
00000001015a42a0 b __ZL24OptComputeFullInlineCost
00000001015a4f80 b __ZL24ProfileSummaryCutoffCold
0000000100ae8ce0 t __ZL24SimplifyAssociativeBinOpN4llvm11Instruction9BinaryOpsEPNS_5ValueES3_RKNS_13SimplifyQueryEj
000000010158afe8 b __ZL24UseAddressTopByteIgnored
0000000100a64280 t __ZL24ValidLookupTableConstantPN4llvm8ConstantERKNS_19TargetTransformInfoE
00000001009ae630 t __ZL24calculateCXXStateNumbersRN4llvm13WinEHFuncInfoEPKNS_11InstructionEi
00000001009acf50 t __ZL24calculateSEHStateNumbersRN4llvm13WinEHFuncInfoEPKNS_11InstructionEi
0000000100196fd0 t __ZL24checkAndUpdateEFLAGSKillN4llvm26MachineInstrBundleIteratorINS_12MachineInstrELb0EEEPNS_17MachineBasicBlockEPKNS_18TargetRegisterInfoE
0000000100bed730 t __ZL24checkLinkeditDataCommandRKN4llvm6object15MachOObjectFileERKNS1_15LoadCommandInfoEjPPKcS8_RNSt3__14listI12MachOElementNSA_9allocatorISC_EEEES8_
0000000100227850 t __ZL24convertIntLogicToFPLogicPN4llvm6SDNodeERNS_12SelectionDAGERKNS_12X86SubtargetE
00000001005fb7d0 t __ZL24createX86MCInstrAnalysisPKN4llvm11MCInstrInfoE
0000000100dfcca0 t __ZL24getLocalFunctionMetadataPN4llvm5ValueE
0000000100ea8540 t __ZL24getMemoryBufferForStreamiRKN4llvm5TwineE
00000001002343e0 t __ZL24getNullFPConstForNullValN4llvm7SDValueERNS_12SelectionDAGERKNS_12X86SubtargetE
0000000100584370 t __ZL24getNumGlobalVariableUsesPKN4llvm8ConstantE
00000001000fa9d0 t __ZL24getRegClassFromGRPhysRegj
0000000100986190 t __ZL24getStaticStructorSectionRN4llvm9MCContextEbbjPKNS_8MCSymbolE
0000000100a224b0 t __ZL24getUnwindDestTokenHelperPN4llvm11InstructionERNS_8DenseMapIS1_PNS_5ValueENS_12DenseMapInfoIS1_EENS_6detail12DenseMapPairIS1_S4_EEEE
0000000100bf8970 t __ZL24initializeRecordStreamerRKN4llvm6ModuleENS_12function_refIFvRNS_14RecordStreamerEEEE
00000001007af110 t __ZL24insertDeleteInstructionsPN4llvm17MachineBasicBlockERNS_12MachineInstrENS_11SmallVectorIPS2_Lj16EEES6_PNS_19MachineTraceMetrics8EnsembleERNS_9SparseSetINS_11LiveRegUnitENS_8identityIjEEhEEb
0000000100b1f810 t __ZL24instructionClobbersQueryPKN4llvm9MemoryDefERKNS_14MemoryLocationEPKNS_11InstructionERNS_9AAResultsE
0000000100a67b10 t __ZL24isCallingConvCCompatiblePN4llvm8CallInstE
0000000100a7ffa0 t __ZL24isNonEscapingLocalObjectPKN4llvm5ValueE
00000001000d2710 t __ZL24isRelevantAddressingModePN4llvm12MachineInstrE
00000001001fa460 t __ZL24lower128BitVectorShuffleRKN4llvm5SDLocENS_8ArrayRefIiEENS_3MVTENS_7SDValueES6_RKNS_5APIntERKNS_12X86SubtargetERNS_12SelectionDAGE
00000001001fe9a0 t __ZL24lower256BitVectorShuffleRKN4llvm5SDLocENS_8ArrayRefIiEENS_3MVTENS_7SDValueES6_RKNS_5APIntERKNS_12X86SubtargetERNS_12SelectionDAGE
00000001001f83d0 t __ZL24lowerAtomicArithWithLOCKN4llvm7SDValueERNS_12SelectionDAGERKNS_12X86SubtargetE
00000001002123b0 t __ZL24lowerV2X128VectorShuffleRKN4llvm5SDLocENS_3MVTENS_7SDValueES4_NS_8ArrayRefIiEERKNS_5APIntERKNS_12X86SubtargetERNS_12SelectionDAGE
00000001002171e0 t __ZL24lowerV4X128VectorShuffleRKN4llvm5SDLocENS_3MVTENS_8ArrayRefIiEERKNS_5APIntENS_7SDValueES9_RKNS_12X86SubtargetERNS_12SelectionDAGE
0000000100ba3440 t __ZL24mayBeAccessToSubobjectOfN12_GLOBAL__N_121TBAAStructTagNodeImplIKN4llvm6MDNodeEEES4_PS3_PS5_Rb
00000001008d0590 t __ZL24normalizePBQPSpillWeightfjj
0000000100a36590 t __ZL24placeSplitBlockCarefullyPN4llvm10BasicBlockERNS_15SmallVectorImplIS1_EEPNS_4LoopE
0000000100d0bb50 t __ZL24predictValueUseListOrderPKN4llvm5ValueEPKNS_8FunctionERN12_GLOBAL__N_18OrderMapERNSt3__16vectorINS_12UseListOrderENS9_9allocatorISB_EEEE
0000000100aee110 t __ZL24simplifyOrOfICmpsWithAddPN4llvm8ICmpInstES1_RKNS_14InstrInfoQueryE
00000001015989c8 b __ZL25AlignAllNonFallThruBlocks
0000000101587520 d __ZL25BadAllocErrorHandlerMutex
000000010045b760 t __ZL25CalcNodeSethiUllmanNumberPKN4llvm5SUnitERNSt3__16vectorIjNS3_9allocatorIjEEEE
000000010159ca08 b __ZL25ConsiderLocalIntervalCost
000000010158eb30 b __ZL25ConstpoolPromotionMaxSize
0000000101594cc0 b __ZL25DwarfSectionsAsReferences
000000010159ee20 b __ZL25EnableBlockPlacementStats
000000010158c1e8 b __ZL25EnableFalkorHWPFUnrollFix
0000000101589708 b __ZL25EnableMachineCombinerPass
0000000101591878 b __ZL25EnableMachineCombinerPass
00000001015a48a0 b __ZL25EnableMemAccessVersioning
0000000100a435b0 t __ZL25EraseTerminatorAndDCECondPN4llvm11InstructionE
00000001015a6b38 b __ZL25ImportFullTypeDefinitions
000000010159c228 b __ZL25InitializeRABasicPassFlag
00000001015a4720 b __ZL25MemoryCheckMergeThreshold
00000001015a15d8 b __ZL25MinNumOfDependentToRebase
000000010159bc18 b __ZL25NoPhiElimLiveOutEarlyExit
00000001015a7da0 b __ZL25NonGlobalValueMaxNameSize
00000001015870c0 d __ZL25NumNonAddrTakenGlobalVars
0000000101585160 d __ZL25NumPartialMappingsCreated
0000000101590f40 b __ZL25PartialRegUpdateClearance
000000010159dc88 b __ZL25ProtectFromEscapedAllocas
0000000101218a90 s __ZL25ReplaceableInstrsAVX512DQ
0000000100d46a10 t __ZL25ShouldUpgradeX86IntrinsicPN4llvm8FunctionENS_9StringRefE
00000001015a2e70 b __ZL25SpeculateOneExpensiveInst
000000010159e2d8 b __ZL25TailDupIndirectBranchSize
0000000101599148 b __ZL25TailDupPlacementThreshold
0000000100a05b60 t __ZL25UpdateAnalysisInformationPN4llvm10BasicBlockES1_NS_8ArrayRefIS1_EEPNS_13DominatorTreeEPNS_8LoopInfoEPNS_16MemorySSAUpdaterEbRb
0000000100d265e0 t __ZL25UpgradeIntrinsicFunction1PN4llvm8FunctionERS1_
0000000100d44620 t __ZL25UpgradeX86ALIGNIntrinsicsRN4llvm9IRBuilderINS_14ConstantFolderENS_24IRBuilderDefaultInserterEEEPNS_5ValueES6_S6_S6_S6_b
0000000101589f48 b __ZL25WasmDisableExplicitLocals
0000000100223e40 t __ZL25combineAddOrSubToADCOrSBBPN4llvm6SDNodeERNS_12SelectionDAGE
00000001008445b0 t __ZL25createInstructionShufflerPN4llvm19MachineSchedContextE
00000001005fb880 t __ZL25createX86MCRelocationInfoRKN4llvm6TripleERNS_9MCContextE
00000001009a25a0 t __ZL25eliminateUnreachableBlockRN4llvm8FunctionE
00000001005b7ae0 t __ZL25emitListsTableHeaderStartPN4llvm10AsmPrinterERKNS_9DwarfFileEPNS_8MCSymbolES6_
00000001003659d0 t __ZL25foldAddSubBoolOfMaskedValPN4llvm6SDNodeERNS_12SelectionDAGE
0000000100e5db60 t __ZL25getParameterABIAttributesiN4llvm13AttributeListE
000000010098a6e0 t __ZL25getPassNameAndInstanceNumN4llvm9StringRefE
0000000100b52740 t __ZL25getRangeForAffineARHelperN4llvm5APIntERKNS_13ConstantRangeERKS0_jb
0000000100192ae0 t __ZL25getReadPerformanceCounterPN4llvm6SDNodeERKNS_5SDLocERNS_12SelectionDAGERKNS_12X86SubtargetERNS_15SmallVectorImplINS_7SDValueEEE
00000001001f6d10 t __ZL25getTargetConstantFromNodeN4llvm7SDValueE
00000001008aaaa0 t __ZL25initializeRABasicPassOnceRN4llvm12PassRegistryE
0000000100218dd0 t __ZL25lowerAddSubToHorizontalOpN4llvm7SDValueERNS_12SelectionDAGERKNS_12X86SubtargetE
0000000100202410 t __ZL25lowerVectorShuffleAsBlendRKN4llvm5SDLocENS_3MVTENS_7SDValueES4_NS_8ArrayRefIiEERKNS_5APIntERKNS_12X86SubtargetERNS_12SelectionDAGE
0000000100201930 t __ZL25lowerVectorShuffleAsShiftRKN4llvm5SDLocENS_3MVTENS_7SDValueES4_NS_8ArrayRefIiEERKNS_5APIntERKNS_12X86SubtargetERNS_12SelectionDAGE
0000000100205d70 t __ZL25matchVectorShuffleAsBlendN4llvm7SDValueES0_NS_15MutableArrayRefIiEERbS3_Ry
000000010020f0b0 t __ZL25matchVectorShuffleAsEXTRQN4llvm3MVTERNS_7SDValueES2_NS_8ArrayRefIiEERyS5_RKNS_5APIntE
0000000100205080 t __ZL25matchVectorShuffleAsShiftRN4llvm3MVTERjjNS_8ArrayRefIiEEiRKNS_5APIntERKNS_12X86SubtargetE
0000000100ea0fc0 t __ZL25out_of_memory_new_handlerv
0000000100ee6450 t __ZL25printSymbolizedStackTraceN4llvm9StringRefEPPviRNS_11raw_ostreamE
0000000100d63990 t __ZL25removeDeadUsersOfConstantPKN4llvm8ConstantE
00000001008fff90 t __ZL25rescheduleLexographicallyNSt3__16vectorIPN4llvm12MachineInstrENS_9allocatorIS3_EEEEPNS1_17MachineBasicBlockENS_8functionIFNS1_26MachineInstrBundleIteratorIS2_Lb0EEEvEEE
0000000100989ab0 t __ZL25scalarConstantToHexStringPKN4llvm8ConstantE
00000001009854e0 t __ZL25selectELFSectionForGlobalRN4llvm9MCContextEPKNS_12GlobalObjectENS_11SectionKindERNS_7ManglerERKNS_13TargetMachineEbjPjPKNS_11MCSymbolELFE
0000000100a2bc10 t __ZL25simplifyAndDCEInstructionPN4llvm11InstructionERNS_14SmallSetVectorIS1_Lj16EEERKNS_10DataLayoutEPKNS_17TargetLibraryInfoE
0000000100aed6a0 t __ZL25simplifyAndOfICmpsWithAddPN4llvm8ICmpInstES1_RKNS_14InstrInfoQueryE
0000000100379840 t __ZL25tryToFoldExtendOfConstantPN4llvm6SDNodeERKNS_14TargetLoweringERNS_12SelectionDAGEb
000000010158ed70 b __ZL26AssumeMisalignedLoadStores
000000010159d228 b __ZL26CanonicalizeFunctionNumber
000000010158c680 b __ZL26ConstantIslandsSmallOffset
000000010158ebf0 b __ZL26ConstpoolPromotionMaxTotal
000000010158a928 b __ZL26EnableAArch64SlrGeneration
0000000101599ca0 b __ZL26EnableLinkOnceODROutlining
00000001015973e8 b __ZL26GlobalMergeIgnoreSingleUse
000000010159cb00 b __ZL26InitializeRAGreedyPassFlag
00000001015a1cb0 b __ZL26MaxPrefetchIterationsAhead
0000000101585220 d __ZL26NumOperandsMappingsCreated
0000000101585140 d __ZL26NumPartialMappingsAccessed
0000000101596400 b __ZL26ProfileGuidedSectionPrefix
00000001007371e0 t __ZL26ReplaceFPIntrinsicWithCallPN4llvm8CallInstEPKcS3_S3_
000000010159d4b0 b __ZL26SafeStackUsePointerAddress
0000000100a62fc0 t __ZL26SimplifyTerminatorOnSelectPN4llvm11InstructionEPNS_5ValueEPNS_10BasicBlockES5_jj
0000000101585560 d __ZL26StatepointMaxSlotsRequired
00000001015a6290 b __ZL26StaticFuncFullModulePrefix
00000001015a7ea8 b __ZL26UncategorizedHiddenPrinter
00000001015a7e98 b __ZL26UncategorizedNormalPrinter
0000000100d44a90 t __ZL26UpgradeX86PSLLDQIntrinsicsRN4llvm9IRBuilderINS_14ConstantFolderENS_24IRBuilderDefaultInserterEEEPNS_5ValueEj
0000000100d44de0 t __ZL26UpgradeX86PSRLDQIntrinsicsRN4llvm9IRBuilderINS_14ConstantFolderENS_24IRBuilderDefaultInserterEEEPNS_5ValueEj
0000000101590640 b __ZL26X86AvoidSFBInspectionLimit
0000000100ac2950 t __ZL26appendSpeculatableOperandsPKN4llvm5ValueERNS_15SmallPtrSetImplIS2_EERNS_15SmallVectorImplIS2_EE
0000000100234fb0 t __ZL26combineToExtendVectorInRegPN4llvm6SDNodeERNS_12SelectionDAGERNS_14TargetLowering15DAGCombinerInfoERKNS_12X86SubtargetE
00000001008f3b00 t __ZL26computeExcessPressureDeltaN4llvm8ArrayRefIjEES1_RNS_16RegPressureDeltaEPKNS_17RegisterClassInfoES1_
0000000100bb62f0 t __ZL26computeKnownBitsFromAssumePKN4llvm5ValueERNS_9KnownBitsEjRKN12_GLOBAL__N_15QueryE
0000000100a09070 t __ZL26createPHIsForSplitLoopExitN4llvm8ArrayRefIPNS_10BasicBlockEEES2_S2_
0000000100193210 t __ZL26getExtendedControlRegisterPN4llvm6SDNodeERKNS_5SDLocERNS_12SelectionDAGERKNS_12X86SubtargetERNS_15SmallVectorImplINS_7SDValueEEE
00000001005e6470 t __ZL26getQualifiedNameComponentsPKN4llvm7DIScopeERNS_15SmallVectorImplINS_9StringRefEEE
00000001001f7540 t __ZL26getTargetVShiftByConstNodejRKN4llvm5SDLocENS_3MVTENS_7SDValueEyRNS_12SelectionDAGE
00000001008b4990 t __ZL26initializeRAGreedyPassOnceRN4llvm12PassRegistryE
0000000100364cd0 t __ZL26isConstantOrConstantVectorN4llvm7SDValueEb
0000000100203cf0 t __ZL26lowerVectorShuffleAsRotateRKN4llvm5SDLocENS_3MVTENS_7SDValueES4_NS_8ArrayRefIiEERKNS_12X86SubtargetERNS_12SelectionDAGE
0000000100215c40 t __ZL26lowerVectorShuffleToEXPANDRKN4llvm5SDLocENS_3MVTERKNS_5APIntENS_8ArrayRefIiEERNS_7SDValueESA_RNS_12SelectionDAGERKNS_12X86SubtargetE
000000010020aa50 t __ZL26lowerVectorShuffleWithPACKRKN4llvm5SDLocENS_3MVTENS_8ArrayRefIiEENS_7SDValueES6_RNS_12SelectionDAGERKNS_12X86SubtargetE
0000000100237640 t __ZL26lowerX86CmpEqZeroToCtlzSrlN4llvm7SDValueENS_3EVTERNS_12SelectionDAGE
0000000100206680 t __ZL26matchVectorShuffleAsRotateRN4llvm7SDValueES1_NS_8ArrayRefIiEE
000000010020d040 t __ZL26matchVectorShuffleWithPACKN4llvm3MVTERS0_RNS_7SDValueES3_RjNS_8ArrayRefIiEERNS_12SelectionDAGERKNS_12X86SubtargetE
0000000100a01460 t __ZL26runPartiallyInlineLibCallsRN4llvm8FunctionEPNS_17TargetLibraryInfoEPKNS_19TargetTransformInfoE
0000000100aed020 t __ZL26simplifyUnsignedRangeCheckPN4llvm8ICmpInstES1_b
0000000100211230 t __ZL26splitAndLowerVectorShuffleRKN4llvm5SDLocENS_3MVTENS_7SDValueES4_NS_8ArrayRefIiEERNS_12SelectionDAGE
0000000100fe8630 s __ZL26x86DisassemblerXOP8Opcodes
0000000101016a30 s __ZL26x86DisassemblerXOP9Opcodes
0000000101044e30 s __ZL26x86DisassemblerXOPAOpcodes
00000001015a1378 b __ZL27DemoteCatchSwitchPHIOnlyOpt
0000000101597568 b __ZL27EnableGlobalMergeOnExternal
00000001015916e8 b __ZL27HardenIndirectCallsAndJumps
0000000101591d10 b __ZL27InitializeLegalizerPassFlag
0000000101591d18 b __ZL27InitializeLocalizerPassFlag
00000001015a4060 b __ZL27LocallyHotCallSiteThreshold
00000001015a2db0 b __ZL27MergeCondStoresAggressively
0000000101585860 d __ZL27NumMemoryInstsSelectCreated
0000000101585200 d __ZL27NumOperandsMappingsAccessed
0000000101218e50 s __ZL27ReplaceableCustomAVX2Instrs
00000001015a4660 b __ZL27RuntimeMemoryCheckThreshold
0000000101594438 b __ZL27SplitDwarfCrossCuReferences
000000010021b920 t __ZL27SupportedVectorShiftWithImmN4llvm3MVTERKNS_12X86SubtargetEj
00000001015a3638 b __ZL27ViewBlockFreqPropagationDAG
0000000100228ca0 t __ZL27combineX86ShufflesConstantsN4llvm8ArrayRefINS_7SDValueEEENS0_IiEES1_bRNS_12SelectionDAGERKNS_12X86SubtargetE
00000001009670d0 t __ZL27findStackProtectorIntrinsicRN4llvm8FunctionE
000000010013cd70 t __ZL27getShuffleVectorZeroOrUndefN4llvm7SDValueEibRKNS_12X86SubtargetERNS_12SelectionDAGE
000000010021c790 t __ZL27getTargetShuffleMaskIndicesN4llvm7SDValueEjRNS_15SmallVectorImplIyEERNS_5APIntE
00000001002dd960 t __ZL27initializeLegalizerPassOnceRN4llvm12PassRegistryE
00000001002f5460 t __ZL27initializeLocalizerPassOnceRN4llvm12PassRegistryE
00000001004ee1c0 t __ZL27isConstOrDemandedConstSplatN4llvm7SDValueERKNS_5APIntE
0000000100119f50 t __ZL27isFusableLoadOpStorePatternPN4llvm11StoreSDNodeENS_7SDValueEPNS_12SelectionDAGEjRPNS_10LoadSDNodeERS2_
0000000100231250 t __ZL27isRepeatedTargetShuffleMaskjN4llvm3MVTENS_8ArrayRefIiEERNS_15SmallVectorImplIiEE
0000000100232b40 t __ZL27isSATValidOnAVX512SubtargetN4llvm3EVTES0_RKNS_12X86SubtargetE
0000000100205f50 t __ZL27lowerVectorShuffleAsBitMaskRKN4llvm5SDLocENS_3MVTENS_7SDValueES4_NS_8ArrayRefIiEERKNS_5APIntERNS_12SelectionDAGE
000000010020f8d0 t __ZL27lowerVectorShuffleWithPERMVRKN4llvm5SDLocENS_3MVTENS_8ArrayRefIiEENS_7SDValueES6_RNS_12SelectionDAGE
000000010020c110 t __ZL27lowerVectorShuffleWithSSE4ARKN4llvm5SDLocENS_3MVTENS_7SDValueES4_NS_8ArrayRefIiEERKNS_5APIntERNS_12SelectionDAGE
0000000100203880 t __ZL27lowerVectorShuffleWithUNPCKRKN4llvm5SDLocENS_3MVTENS_8ArrayRefIiEENS_7SDValueES6_RNS_12SelectionDAGE
000000010020f3e0 t __ZL27matchVectorShuffleAsINSERTQN4llvm3MVTERNS_7SDValueES2_NS_8ArrayRefIiEERyS5_
0000000100a345b0 t __ZL27selectIncomingValueForBlockPN4llvm5ValueEPNS_10BasicBlockERNS_8DenseMapIS3_S1_NS_12DenseMapInfoIS3_EENS_6detail12DenseMapPairIS3_S1_EEEE
0000000100266cc0 t __ZL27updateOperandRegConstraintsRN4llvm15MachineFunctionERNS_12MachineInstrERKNS_15TargetInstrInfoE
000000010098bdc0 t __ZL27useDefaultRegisterAllocatorv
0000000101073230 s __ZL27x86Disassembler3DNowOpcodes
00000001015a8908 b __ZL28BadAllocErrorHandlerUserData
000000010159d2e8 b __ZL28CanonicalizeBasicBlockNumber
0000000100b40630 t __ZL28CollectAddOperandsWithScalesRN4llvm8DenseMapIPKNS_4SCEVENS_5APIntENS_12DenseMapInfoIS3_EENS_6detail12DenseMapPairIS3_S4_EEEERNS_15SmallVectorImplIS3_EERS4_PKS3_mRKS4_RNS_15ScalarEvolutionE
00000001015a1458 b __ZL28ConstHoistWithBlockFrequency
0000000101590308 b __ZL28DisableX86DomainReassignment
0000000101593528 b __ZL28EnableFastISelFallbackReport
00000001015984f8 b __ZL28InitializeLiveStacksPassFlag
00000001015996d8 b __ZL28InitializeMachineCSEPassFlag
00000001015a2200 b __ZL28InitializeMergeICmpsPassFlag
000000010159dba8 b __ZL28InitializeShrinkWrapPassFlag
00000001015a11d0 b __ZL28InitializeVirtRegMapPassFlag
000000010159c4c8 b __ZL28LastChanceRecoloringMaxDepth
00000001015a8e50 b __ZL28LibSupportInfoOutputFilename
0000000101597068 b __ZL28MemCmpEqZeroNumLoadsPerBlock
00000001015a2840 b __ZL28PreserveAlignmentAssumptions
00000001015a6350 b __ZL28StaticFuncStripDirNamePrefix
0000000101219540 s __ZL28X86EvexToVex128CompressTable
000000010121a0c0 s __ZL28X86EvexToVex256CompressTable
000000010050ec10 t __ZL28chainLoadsAndStoresForMemcpyRN4llvm12SelectionDAGERKNS_5SDLocERNS_11SmallVectorINS_7SDValueELj32EEEjjRNS5_IS6_Lj16EEESA_
00000001002215f0 t __ZL28combinevXi1ConstantToIntegerN4llvm7SDValueERNS_12SelectionDAGE
0000000100bb0d10 t __ZL28computeKnownBitsFromOperatorPKN4llvm8OperatorERNS_9KnownBitsEjRKN12_GLOBAL__N_15QueryE
00000001001f37a0 t __ZL28createShuffleMaskFromVSELECTRN4llvm15SmallVectorImplIiEENS_7SDValueE
0000000100b0cef0 t __ZL28getAllocationDataForFunctionPKN4llvm8FunctionE9AllocTypePKNS_17TargetLibraryInfoE
0000000100988fb0 t __ZL28getCOFFStaticStructorSectionRN4llvm9MCContextERKNS_6TripleEbjPKNS_8MCSymbolEPNS_13MCSectionCOFFE
0000000100231720 t __ZL28getParamsForOneTrueMaskedEltPN4llvm21MaskedLoadStoreSDNodeERNS_12SelectionDAGERNS_7SDValueES5_Rj
0000000100777cf0 t __ZL28initializeLiveStacksPassOnceRN4llvm12PassRegistryE
00000001007b45a0 t __ZL28initializeMachineCSEPassOnceRN4llvm12PassRegistryE
00000001009f7020 t __ZL28initializeMergeICmpsPassOnceRN4llvm12PassRegistryE
000000010092f3d0 t __ZL28initializeShrinkWrapPassOnceRN4llvm12PassRegistryE
00000001009a6d90 t __ZL28initializeVirtRegMapPassOnceRN4llvm12PassRegistryE
00000001003763e0 t __ZL28isLegalToCombineMinNumMaxNumRN4llvm12SelectionDAGENS_7SDValueES2_
0000000100154e40 t __ZL28isTruncWithZeroHighBitsInputN4llvm7SDValueERNS_12SelectionDAGE
000000010053eff0 t __ZL28lowerIncomingStatepointValueN4llvm7SDValueEbRNS_15SmallVectorImplIS0_EERNS_19SelectionDAGBuilderE
000000010020c400 t __ZL28lowerVectorShuffleAsBitBlendRKN4llvm5SDLocENS_3MVTENS_7SDValueES4_NS_8ArrayRefIiEERNS_12SelectionDAGE
0000000100216c00 t __ZL28lowerVectorShuffleWithPSHUFBRKN4llvm5SDLocENS_3MVTENS_8ArrayRefIiEENS_7SDValueES6_RKNS_5APIntERKNS_12X86SubtargetERNS_12SelectionDAGE
0000000100209de0 t __ZL28lowerVectorShuffleWithSHUFPSRKN4llvm5SDLocENS_3MVTENS_8ArrayRefIiEENS_7SDValueES6_RNS_12SelectionDAGE
000000010020a3c0 t __ZL28matchVectorShuffleAsInsertPSRN4llvm7SDValueES1_RjRKNS_5APIntENS_8ArrayRefIiEERNS_12SelectionDAGE
00000001002166b0 t __ZL28matchVectorShuffleWithSHUFPDN4llvm3MVTERNS_7SDValueES2_RjNS_8ArrayRefIiEE
0000000100d0c4c0 t __ZL28predictValueUseListOrderImplPKN4llvm5ValueEPKNS_8FunctionEjRKN12_GLOBAL__N_18OrderMapERNSt3__16vectorINS_12UseListOrderENSA_9allocatorISC_EEEE
000000010021c9c0 t __ZL28setTargetShuffleZeroElementsN4llvm7SDValueERNS_15SmallVectorImplIiEERNS1_IS0_EE
0000000100aed550 t __ZL28simplifyAndOrOfICmpsWithZeroPN4llvm8ICmpInstES1_b
000000010159f8a0 b __ZL29DisablePartialLibcallInlining
000000010158b6a8 b __ZL29EnableDeadRegisterElimination
0000000101590938 b __ZL29ExperimentalPrefLoopAlignment
0000000101597050 b __ZL29InitializeEdgeBundlesPassFlag
0000000101597f30 b __ZL29InitializeIfConverterPassFlag
00000001015985d8 b __ZL29InitializeLowerEmuTLSPassFlag
0000000101599bb0 b __ZL29InitializeMachineLICMPassFlag
000000010159dbb8 b __ZL29InitializeSlotIndexesPassFlag
0000000101585480 d __ZL29NumFastIselFailLowerArguments
0000000101585340 d __ZL29NumFastIselSuccessIndependent
00000001015851e0 d __ZL29NumInstructionMappingsCreated
000000010159b368 b __ZL29SplitEdgeProbabilityThreshold
0000000100d44420 t __ZL29UpgradeX86AddSubSatIntrinsicsRN4llvm9IRBuilderINS_14ConstantFolderENS_24IRBuilderDefaultInserterEEERNS_8CallInstEbb
0000000100227b80 t __ZL29combineX86ShufflesRecursivelyN4llvm8ArrayRefINS_7SDValueEEEiS1_NS0_IiEENS0_IPKNS_6SDNodeEEEjbbRNS_12SelectionDAGERKNS_12X86SubtargetE
0000000100b3eda0 t __ZL29getSignedOverflowLimitForStepPKN4llvm4SCEVEPNS_7CmpInst9PredicateEPNS_15ScalarEvolutionE
00000001001f4310 t __ZL29getTargetConstantBitsFromNodeN4llvm7SDValueEjRNS_5APIntERNS_15SmallVectorImplIS1_EEbb
00000001006fb5d0 t __ZL29initializeEdgeBundlesPassOnceRN4llvm12PassRegistryE
000000010070c450 t __ZL29initializeIfConverterPassOnceRN4llvm12PassRegistryE
0000000100784f00 t __ZL29initializeLowerEmuTLSPassOnceRN4llvm12PassRegistryE
00000001007d4700 t __ZL29initializeMachineLICMPassOnceRN4llvm12PassRegistryE
0000000100937a40 t __ZL29initializeSlotIndexesPassOnceRN4llvm12PassRegistryE
00000001001f8800 t __ZL29lowerVectorShuffleAsBroadcastRKN4llvm5SDLocENS_3MVTENS_7SDValueES4_NS_8ArrayRefIiEERKNS_12X86SubtargetERNS_12SelectionDAGE
0000000100a54130 t __ZL29passingValueIsAlwaysUndefinedPN4llvm5ValueEPNS_11InstructionE
0000000100f2f630 s __ZL29x86DisassemblerOneByteOpcodes
0000000100f5da30 s __ZL29x86DisassemblerTwoByteOpcodes
00000001015a88c0 b __ZL2DC
000000010158eef0 b __ZL2IT
000000010158b768 b __ZL30EnableRedundantCopyElimination
0000000101591268 b __ZL30EnableSpeculativeLoadHardening
0000000101595940 b __ZL30InitializeAtomicExpandPassFlag
0000000101597140 b __ZL30InitializeExpandPostRAPassFlag
0000000101590570 b __ZL30InitializeFixupLEAPassPassFlag
0000000101597178 b __ZL30InitializeGCModuleInfoPassFlag
0000000101591c28 b __ZL30InitializeIRTranslatorPassFlag
00000001015a29d0 b __ZL30InitializeLoopSimplifyPassFlag
000000010159b600 b __ZL30InitializeOptimizePHIsPassFlag
000000010159c260 b __ZL30InitializeRegAllocFastPassFlag
00000001015a1438 b __ZL30InitializeWinEHPreparePassFlag
00000001015851c0 d __ZL30NumInstructionMappingsAccessed
0000000100063250 t __ZL30checkAsmTiedOperandConstraintsRKN12_GLOBAL__N_112X86AsmParserEjRKN4llvm15SmallVectorImplINSt3__110unique_ptrINS3_18MCParsedAsmOperandENS5_14default_deleteIS7_EEEEEERy
0000000100235700 t __ZL30combineToExtendBoolVectorInRegPN4llvm6SDNodeERNS_12SelectionDAGERNS_14TargetLowering15DAGCombinerInfoERKNS_12X86SubtargetE
0000000100b3e720 t __ZL30extractConstantWithoutWrappingRN4llvm15ScalarEvolutionEPKNS_12SCEVConstantEPKNS_11SCEVAddExprE
0000000100b770c0 t __ZL30getConstantEvolvingPHIOperandsPN4llvm11InstructionEPKNS_4LoopERNS_8DenseMapIS1_PNS_7PHINodeENS_12DenseMapInfoIS1_EENS_6detail12DenseMapPairIS1_S7_EEEEj
0000000100205ab0 t __ZL30getScalarValueForVectorElementN4llvm7SDValueEiRNS_12SelectionDAGE
00000001006a0190 t __ZL30initializeAtomicExpandPassOnceRN4llvm12PassRegistryE
00000001007047c0 t __ZL30initializeExpandPostRAPassOnceRN4llvm12PassRegistryE
00000001000ccb60 t __ZL30initializeFixupLEAPassPassOnceRN4llvm12PassRegistryE
0000000100708050 t __ZL30initializeGCModuleInfoPassOnceRN4llvm12PassRegistryE
00000001002c6720 t __ZL30initializeIRTranslatorPassOnceRN4llvm12PassRegistryE
0000000100a39e60 t __ZL30initializeLoopSimplifyPassOnceRN4llvm12PassRegistryE
000000010088a8a0 t __ZL30initializeOptimizePHIsPassOnceRN4llvm12PassRegistryE
00000001008acf90 t __ZL30initializeRegAllocFastPassOnceRN4llvm12PassRegistryE
00000001009acc30 t __ZL30initializeWinEHPreparePassOnceRN4llvm12PassRegistryE
0000000100203e90 t __ZL30lowerVectorShuffleAsByteRotateRKN4llvm5SDLocENS_3MVTENS_7SDValueES4_NS_8ArrayRefIiEERKNS_12X86SubtargetERNS_12SelectionDAGE
0000000100ae9380 t __ZL30stripAndComputeConstantOffsetsRKN4llvm10DataLayoutERPNS_5ValueEb
00000001010ab220 s __ZL30x86DisassemblerInstrSpecifiers
0000000100058980 t __ZL31CheckBaseRegAndIndexRegAndScalejjjbRN4llvm9StringRefE
00000001009d0c60 t __ZL31DeleteTriviallyDeadInstructionsRN4llvm15SmallVectorImplINS_14WeakTrackingVHEEE
0000000100b5f0a0 t __ZL31EvaluateConstantChrecAtConstantPKN4llvm14SCEVAddRecExprEPNS_11ConstantIntERNS_15ScalarEvolutionE
00000001005276e0 t __ZL31FindSplitPointForStackProtectorPN4llvm17MachineBasicBlockE
0000000101597170 b __ZL31InitializeFuncletLayoutPassFlag
0000000101598418 b __ZL31InitializeLiveIntervalsPassFlag
00000001015984f0 b __ZL31InitializeLiveRegMatrixPassFlag
0000000101598500 b __ZL31InitializeLiveVariablesPassFlag
0000000101591f78 b __ZL31InitializeRegBankSelectPassFlag
000000010159de10 b __ZL31InitializeStackColoringPassFlag
000000010159e208 b __ZL31InitializeTailDuplicatePassFlag
00000001015a11e8 b __ZL31InitializeWasmEHPreparePassFlag
0000000101587220 d __ZL31NumBruteForceTripCountsComputed
0000000101585540 d __ZL31NumSlotsAllocatedForStatepoints
0000000101218b50 s __ZL31ReplaceableInstrsAVX512DQMasked
0000000100391b40 t __ZL31ShrinkLoadReplaceStoreWithStoreRKNSt3__14pairIjjEEN4llvm7SDValueEPNS4_11StoreSDNodeEPN12_GLOBAL__N_111DAGCombinerE
00000001009adc80 t __ZL31calculateStateNumbersForInvokesPKN4llvm8FunctionERNS_13WinEHFuncInfoE
0000000100bab140 t __ZL31cannotBeOrderedLessThanZeroImplPKN4llvm5ValueEPKNS_17TargetLibraryInfoEbj
0000000100a5f5b0 t __ZL31ensureValueAvailableInSuccessorPN4llvm5ValueEPNS_10BasicBlockES1_
0000000100b7b080 t __ZL31getUnsignedOverflowLimitForStepPKN4llvm4SCEVEPNS_7CmpInst9PredicateEPNS_15ScalarEvolutionE
0000000100707970 t __ZL31initializeFuncletLayoutPassOnceRN4llvm12PassRegistryE
0000000100752440 t __ZL31initializeLiveIntervalsPassOnceRN4llvm12PassRegistryE
0000000100774a30 t __ZL31initializeLiveRegMatrixPassOnceRN4llvm12PassRegistryE
0000000100778f50 t __ZL31initializeLiveVariablesPassOnceRN4llvm12PassRegistryE
00000001002fe290 t __ZL31initializeRegBankSelectPassOnceRN4llvm12PassRegistryE
0000000100951de0 t __ZL31initializeStackColoringPassOnceRN4llvm12PassRegistryE
000000010096ed30 t __ZL31initializeTailDuplicatePassOnceRN4llvm12PassRegistryE
00000001009aa980 t __ZL31initializeWasmEHPreparePassOnceRN4llvm12PassRegistryE
0000000100210680 t __ZL31lowerVectorShuffleWithUndefHalfRKN4llvm5SDLocENS_3MVTENS_7SDValueES4_NS_8ArrayRefIiEERKNS_12X86SubtargetERNS_12SelectionDAGE
00000001008f7ab0 t __ZL31scavengeFrameVirtualRegsInBlockRN4llvm19MachineRegisterInfoERNS_12RegScavengerERNS_17MachineBasicBlockE
0000000101595ba8 b __ZL32InitializeBreakFalseDepsPassFlag
0000000101596d00 b __ZL32InitializeCodeGenPreparePassFlag
00000001015a3b00 b __ZL32InitializeDummyCGSCCPassPassFlag
0000000101596df0 b __ZL32InitializeDwarfEHPreparePassFlag
0000000101597160 b __ZL32InitializeFEntryInserterPassFlag
000000010159b430 b __ZL32InitializeMachineSinkingPassFlag
000000010159bce0 b __ZL32InitializePHIEliminationPassFlag
000000010159dbc0 b __ZL32InitializeSpillPlacementPassFlag
000000010159e068 b __ZL32InitializeStackProtectorPassFlag
0000000101591b50 b __ZL32InitializeWinEHStatePassPassFlag
0000000100d49f60 t __ZL32UpgradeX86IntrinsicsWith8BitMaskPN4llvm8FunctionENS_9Intrinsic2IDERS1_
00000001006b4560 t __ZL32initializeBreakFalseDepsPassOnceRN4llvm12PassRegistryE
00000001006bb970 t __ZL32initializeCodeGenPreparePassOnceRN4llvm12PassRegistryE
0000000100abcb70 t __ZL32initializeDummyCGSCCPassPassOnceRN4llvm12PassRegistryE
00000001006f4020 t __ZL32initializeDwarfEHPreparePassOnceRN4llvm12PassRegistryE
0000000100707540 t __ZL32initializeFEntryInserterPassOnceRN4llvm12PassRegistryE
000000010084def0 t __ZL32initializeMachineSinkingPassOnceRN4llvm12PassRegistryE
0000000100893ef0 t __ZL32initializePHIEliminationPassOnceRN4llvm12PassRegistryE
000000010093ba50 t __ZL32initializeSpillPlacementPassOnceRN4llvm12PassRegistryE
0000000100964db0 t __ZL32initializeStackProtectorPassOnceRN4llvm12PassRegistryE
00000001002ba1f0 t __ZL32initializeWinEHStatePassPassOnceRN4llvm12PassRegistryE
000000010025a880 t __ZL32isNonFoldablePartialRegisterLoadRKN4llvm12MachineInstrES2_RKNS_15MachineFunctionE
0000000100216150 t __ZL32lowerVectorShuffleAsSplitOrBlendRKN4llvm5SDLocENS_3MVTENS_7SDValueES4_NS_8ArrayRefIiEERKNS_12X86SubtargetERNS_12SelectionDAGE
000000010053ed80 t __ZL32reservePreviousStackSlotForValuePKN4llvm5ValueERNS_19SelectionDAGBuilderE
00000001015a2228 b __ZL33DisableSeparateConstOffsetFromGEP
0000000101590580 b __ZL33DisableX86AvoidStoreForwardBlocks
00000001015a4960 b __ZL33EnableForwardingConflictDetection
0000000101596d28 b __ZL33InitializeDetectDeadLanesPassFlag
0000000101590560 b __ZL33InitializeFixupBWInstPassPassFlag
0000000101598348 b __ZL33InitializeLiveDebugValuesPassFlag
00000001015984e8 b __ZL33InitializeLiveRangeShrinkPassFlag
0000000101597188 b __ZL33InitializeLowerIntrinsicsPassFlag
00000001015996b8 b __ZL33InitializeMachineCombinerPassFlag
0000000101599bc0 b __ZL33InitializeMachineLoopInfoPassFlag
0000000101599d60 b __ZL33InitializeMachineOutlinerPassFlag
000000010159c028 b __ZL33InitializePostRASchedulerPassFlag
000000010158ffc8 b __ZL33InitializeShadowCallStackPassFlag
00000001015a11e0 b __ZL33InitializeVirtRegRewriterPassFlag
0000000101590700 b __ZL33InitializeX86AvoidSFBPassPassFlag
00000001015a57c8 b __ZL33MaxSCEVOperationsImplicationDepth
000000010159e998 b __ZL33MinPercentageForPredictableBranch
0000000101585de8 d __ZL33NumInstrsHoistedToShrinkLiveRange
0000000100bbb970 t __ZL33computeKnownBitsFromShiftOperatorPKN4llvm8OperatorERNS_9KnownBitsES4_jRKN12_GLOBAL__N_15QueryENS_12function_refIFNS_5APIntERKSA_jEEESE_
00000001004bdd60 t __ZL33diagnosePossiblyInvalidConstraintRN4llvm11LLVMContextEPKNS_5ValueERKNS_5TwineE
00000001006f0650 t __ZL33initializeDetectDeadLanesPassOnceRN4llvm12PassRegistryE
00000001000cb590 t __ZL33initializeFixupBWInstPassPassOnceRN4llvm12PassRegistryE
000000010073bff0 t __ZL33initializeLiveDebugValuesPassOnceRN4llvm12PassRegistryE
0000000100772110 t __ZL33initializeLiveRangeShrinkPassOnceRN4llvm12PassRegistryE
000000010070a2e0 t __ZL33initializeLowerIntrinsicsPassOnceRN4llvm12PassRegistryE
00000001007ac4d0 t __ZL33initializeMachineCombinerPassOnceRN4llvm12PassRegistryE
00000001007e0450 t __ZL33initializeMachineLoopInfoPassOnceRN4llvm12PassRegistryE
00000001007eeb90 t __ZL33initializeMachineOutlinerPassOnceRN4llvm12PassRegistryE
00000001008998c0 t __ZL33initializePostRASchedulerPassOnceRN4llvm12PassRegistryE
0000000100063e00 t __ZL33initializeShadowCallStackPassOnceRN4llvm12PassRegistryE
00000001009a81d0 t __ZL33initializeVirtRegRewriterPassOnceRN4llvm12PassRegistryE
00000001000cf410 t __ZL33initializeX86AvoidSFBPassPassOnceRN4llvm12PassRegistryE
0000000100ae86f0 t __ZL33replaceAndRecursivelySimplifyImplPN4llvm11InstructionEPNS_5ValueEPKNS_17TargetLibraryInfoEPKNS_13DominatorTreeEPNS_15AssumptionCacheE
000000010021fa80 t __ZL33resolveTargetShuffleInputsAndMaskRN4llvm15SmallVectorImplINS_7SDValueEEERNS0_IiEE
0000000100aed270 t __ZL33simplifyAndOrOfICmpsWithConstantsPN4llvm8ICmpInstES1_b
0000000100aee010 t __ZL33simplifyOrOfICmpsWithSameOperandsPN4llvm8ICmpInstES1_
0000000100f8be30 s __ZL33x86DisassemblerThreeByte38Opcodes
0000000100fba230 s __ZL33x86DisassemblerThreeByte3AOpcodes
0000000100a5e9b0 t __ZL34BlockIsSimpleEnoughToThreadThroughPN4llvm10BasicBlockE
0000000101595b90 b __ZL34InitializeBranchFolderPassPassFlag
0000000101595ba0 b __ZL34InitializeBranchRelaxationPassFlag
0000000101595c70 b __ZL34InitializeCFIInstrInserterPassFlag
0000000101596f88 b __ZL34InitializeEarlyIfConverterPassFlag
0000000101599bb8 b __ZL34InitializeEarlyMachineLICMPassFlag
0000000101597128 b __ZL34InitializeExpandMemCmpPassPassFlag
0000000101597148 b __ZL34InitializeExpandReductionsPassFlag
000000010159d3b0 b __ZL34InitializeMIRCanonicalizerPassFlag
000000010159a370 b __ZL34InitializeMachinePipelinerPassFlag
000000010159acb8 b __ZL34InitializeMachineSchedulerPassFlag
000000010159dee0 b __ZL34InitializeStackMapLivenessPassFlag
00000001015a0bb0 b __ZL34InitializeTargetPassConfigPassFlag
0000000101218510 s __ZL34ReplaceableCustomAVX512LogicInstrs
00000001012189f0 s __ZL34ReplaceableInstrsAVX2InsertExtract
00000001015941f8 b __ZL34UseDwarfRangesBaseAddressSpecifier
00000001015985e8 b __ZL34ViewMachineBlockFreqPropagationDAG
00000001001fa070 t __ZL34canonicalizeShuffleMaskWithCommuteN4llvm8ArrayRefIiEE
000000010071c0d0 t __ZL34dumpMachineInstrRangeWithSlotIndexN4llvm26MachineInstrBundleIteratorINS_12MachineInstrELb0EEES2_RKNS_13LiveIntervalsEPKcj
00000001006a7170 t __ZL34initializeBranchFolderPassPassOnceRN4llvm12PassRegistryE
00000001006b1bc0 t __ZL34initializeBranchRelaxationPassOnceRN4llvm12PassRegistryE
00000001006b8eb0 t __ZL34initializeCFIInstrInserterPassOnceRN4llvm12PassRegistryE
00000001006f5220 t __ZL34initializeEarlyIfConverterPassOnceRN4llvm12PassRegistryE
00000001007d4810 t __ZL34initializeEarlyMachineLICMPassOnceRN4llvm12PassRegistryE
0000000100700a90 t __ZL34initializeExpandMemCmpPassPassOnceRN4llvm12PassRegistryE
0000000100705aa0 t __ZL34initializeExpandReductionsPassOnceRN4llvm12PassRegistryE
00000001008fab50 t __ZL34initializeMIRCanonicalizerPassOnceRN4llvm12PassRegistryE
00000001007f9550 t __ZL34initializeMachinePipelinerPassOnceRN4llvm12PassRegistryE
0000000100836310 t __ZL34initializeMachineSchedulerPassOnceRN4llvm12PassRegistryE
000000010095ecd0 t __ZL34initializeStackMapLivenessPassOnceRN4llvm12PassRegistryE
000000010098a210 t __ZL34initializeTargetPassConfigPassOnceRN4llvm12PassRegistryE
0000000100afa4e0 t __ZL34isDereferenceableAndAlignedPointerPKN4llvm5ValueEjRKNS_5APIntERKNS_10DataLayoutEPKNS_11InstructionEPKNS_13DominatorTreeERNS_15SmallPtrSetImplIS2_EE
000000010020c7c0 t __ZL34lowerVectorShuffleAsBlendOfPSHUFBsRKN4llvm5SDLocENS_3MVTENS_7SDValueES4_NS_8ArrayRefIiEERKNS_5APIntERNS_12SelectionDAGERbSC_
00000001002599c0 t __ZL34shouldPreventUndefRegUpdateMemFoldRN4llvm15MachineFunctionERNS_12MachineInstrE
0000000100aed180 t __ZL34simplifyAndOfICmpsWithSameOperandsPN4llvm8ICmpInstES1_
0000000100c66900 t __ZL35AttemptToFoldSymbolOffsetDifferencePKN4llvm11MCAssemblerEPKNS_11MCAsmLayoutEPKNS_8DenseMapIPKNS_9MCSectionEyNS_12DenseMapInfoIS9_EENS_6detail12DenseMapPairIS9_yEEEEbRPKNS_15MCSymbolRefExprESL_Rx
00000001015910c8 b __ZL35InitializeEvexToVexInstPassPassFlag
0000000101597060 b __ZL35InitializeExpandISelPseudosPassFlag
0000000101591c48 b __ZL35InitializeInstructionSelectPassFlag
0000000101598258 b __ZL35InitializeInterleavedAccessPassFlag
0000000101599bc8 b __ZL35InitializeMachineModuleInfoPassFlag
000000010159b468 b __ZL35InitializePatchableFunctionPassFlag
000000010159ba90 b __ZL35InitializePeepholeOptimizerPassFlag
000000010159d210 b __ZL35InitializeRegisterCoalescerPassFlag
00000001015a5c50 b __ZL35InitializeSCEVAAWrapperPassPassFlag
000000010159e1f8 b __ZL35InitializeStackSlotColoringPassFlag
000000010159c588 b __ZL35LastChanceRecoloringMaxInterference
0000000101599208 b __ZL35TailDupPlacementAggressiveThreshold
0000000100268cd0 t __ZL35initializeEvexToVexInstPassPassOnceRN4llvm12PassRegistryE
00000001007006d0 t __ZL35initializeExpandISelPseudosPassOnceRN4llvm12PassRegistryE
00000001002d99a0 t __ZL35initializeInstructionSelectPassOnceRN4llvm12PassRegistryE
000000010072b8a0 t __ZL35initializeInterleavedAccessPassOnceRN4llvm12PassRegistryE
00000001007e1dd0 t __ZL35initializeMachineModuleInfoPassOnceRN4llvm12PassRegistryE
00000001008756c0 t __ZL35initializePatchableFunctionPassOnceRN4llvm12PassRegistryE
000000010088b5e0 t __ZL35initializePeepholeOptimizerPassOnceRN4llvm12PassRegistryE
00000001008dac50 t __ZL35initializeRegisterCoalescerPassOnceRN4llvm12PassRegistryE
0000000100b84c70 t __ZL35initializeSCEVAAWrapperPassPassOnceRN4llvm12PassRegistryE
0000000100968760 t __ZL35initializeStackSlotColoringPassOnceRN4llvm12PassRegistryE
00000001002068b0 t __ZL35lowerVectorShuffleAsBlendAndPermuteRKN4llvm5SDLocENS_3MVTENS_7SDValueES4_NS_8ArrayRefIiEERNS_12SelectionDAGEb
0000000100207610 t __ZL35lowerVectorShuffleAsZeroOrAnyExtendRKN4llvm5SDLocENS_3MVTENS_7SDValueES4_NS_8ArrayRefIiEERKNS_5APIntERKNS_12X86SubtargetERNS_12SelectionDAGE
00000001015a3630 b __ZL36InitializeBasicAAWrapperPassPassFlag
000000010159e210 b __ZL36InitializeEarlyTailDuplicatePassFlag
00000001015a3c98 b __ZL36InitializeIVUsersWrapperPassPassFlag
00000001015980c0 b __ZL36InitializeImplicitNullChecksPassFlag
0000000101598410 b __ZL36InitializeLiveDebugVariablesPassFlag
00000001015985d0 b __ZL36InitializeLocalStackSlotPassPassFlag
00000001015a21f0 b __ZL36InitializeLoopStrengthReducePassFlag
00000001015a7e60 b __ZL36InitializeVerifierLegacyPassPassFlag
0000000100a84430 t __ZL36initializeBasicAAWrapperPassPassOnceRN4llvm12PassRegistryE
000000010096ee20 t __ZL36initializeEarlyTailDuplicatePassOnceRN4llvm12PassRegistryE
0000000100ad88f0 t __ZL36initializeIVUsersWrapperPassPassOnceRN4llvm12PassRegistryE
0000000100718850 t __ZL36initializeImplicitNullChecksPassOnceRN4llvm12PassRegistryE
0000000100743b00 t __ZL36initializeLiveDebugVariablesPassOnceRN4llvm12PassRegistryE
0000000100780bc0 t __ZL36initializeLocalStackSlotPassPassOnceRN4llvm12PassRegistryE
00000001009d0330 t __ZL36initializeLoopStrengthReducePassOnceRN4llvm12PassRegistryE
0000000100e3ce70 t __ZL36initializeVerifierLegacyPassPassOnceRN4llvm12PassRegistryE
0000000100201b70 t __ZL36lowerVectorShuffleAsElementInsertionRKN4llvm5SDLocENS_3MVTENS_7SDValueES4_NS_8ArrayRefIiEERKNS_5APIntERKNS_12X86SubtargetERNS_12SelectionDAGE
0000000100209230 t __ZL36lowerVectorShuffleAsPermuteAndUnpackRKN4llvm5SDLocENS_3MVTENS_7SDValueES4_NS_8ArrayRefIiEERKNS_12X86SubtargetERNS_12SelectionDAGE
00000001015a3bd0 b __ZL37EnableUnsafeGlobalsModRefAliasResults
00000001015a4ae0 b __ZL37InitializeLoopInfoWrapperPassPassFlag
000000010159b448 b __ZL37InitializeMachineTraceMetricsPassFlag
000000010159b450 b __ZL37InitializeMachineVerifierPassPassFlag
000000010159c050 b __ZL37InitializeProcessImplicitDefsPassFlag
000000010159c128 b __ZL37InitializeReachingDefAnalysisPassFlag
000000010159d570 b __ZL37InitializeSafeStackLegacyPassPassFlag
00000001015a1450 b __ZL37InitializeXRayInstrumentationPassFlag
0000000100b04900 t __ZL37initializeLoopInfoWrapperPassPassOnceRN4llvm12PassRegistryE
000000010085a930 t __ZL37initializeMachineTraceMetricsPassOnceRN4llvm12PassRegistryE
0000000100863ed0 t __ZL37initializeMachineVerifierPassPassOnceRN4llvm12PassRegistryE
000000010089d7e0 t __ZL37initializeProcessImplicitDefsPassOnceRN4llvm12PassRegistryE
00000001008a6b90 t __ZL37initializeReachingDefAnalysisPassOnceRN4llvm12PassRegistryE
0000000100907cf0 t __ZL37initializeSafeStackLegacyPassPassOnceRN4llvm12PassRegistryE
00000001009b9890 t __ZL37initializeXRayInstrumentationPassOnceRN4llvm12PassRegistryE
000000010158a1a0 b __ZL38DisableWebAssemblyFallthroughReturnOpt
0000000101590878 b __ZL38ExperimentalVectorWideningLegalization
0000000100a24ad0 t __ZL38HandleCallsInBlockInlinedThroughInvokePN4llvm10BasicBlockES1_PNS_8DenseMapIPNS_11InstructionEPNS_5ValueENS_12DenseMapInfoIS4_EENS_6detail12DenseMapPairIS4_S6_EEEE
00000001015a3260 b __ZL38InitializeAAResultsWrapperPassPassFlag
00000001015a3a38 b __ZL38InitializeCallGraphWrapperPassPassFlag
00000001015a0ea0 b __ZL38InitializeDefaultRegisterAllocatorFlag
00000001015a3c90 b __ZL38InitializeGlobalsAAWrapperPassPassFlag
00000001015980c8 b __ZL38InitializeIndirectBrExpandPassPassFlag
00000001015997b0 b __ZL38InitializeMachineDominatorTreePassFlag
00000001015a4c70 b __ZL38InitializeMemorySSAWrapperPassPassFlag
00000001015a4df8 b __ZL38InitializeObjCARCAAWrapperPassPassFlag
000000010159acc8 b __ZL38InitializePostMachineSchedulerPassFlag
000000010159b440 b __ZL38InitializePostRAMachineSinkingPassFlag
0000000101599890 b __ZL38InitializeUnpackMachineBundlesPassFlag
00000001015902e8 b __ZL38InitializeX86CmovConverterPassPassFlag
00000001015902f8 b __ZL38InitializeX86CondBrFoldingPassPassFlag
0000000100a74b30 t __ZL38initializeAAResultsWrapperPassPassOnceRN4llvm12PassRegistryE
0000000100abafe0 t __ZL38initializeCallGraphWrapperPassPassOnceRN4llvm12PassRegistryE
000000010098c730 t __ZL38initializeDefaultRegisterAllocatorOncev
0000000100ad6990 t __ZL38initializeGlobalsAAWrapperPassPassOnceRN4llvm12PassRegistryE
000000010071ab50 t __ZL38initializeIndirectBrExpandPassPassOnceRN4llvm12PassRegistryE
00000001007bc630 t __ZL38initializeMachineDominatorTreePassOnceRN4llvm12PassRegistryE
0000000100b15100 t __ZL38initializeMemorySSAWrapperPassPassOnceRN4llvm12PassRegistryE
0000000100b28990 t __ZL38initializeObjCARCAAWrapperPassPassOnceRN4llvm12PassRegistryE
0000000100836420 t __ZL38initializePostMachineSchedulerPassOnceRN4llvm12PassRegistryE
000000010084e000 t __ZL38initializePostRAMachineSinkingPassOnceRN4llvm12PassRegistryE
00000001007c7db0 t __ZL38initializeUnpackMachineBundlesPassOnceRN4llvm12PassRegistryE
000000010007d760 t __ZL38initializeX86CmovConverterPassPassOnceRN4llvm12PassRegistryE
0000000100083c10 t __ZL38initializeX86CondBrFoldingPassPassOnceRN4llvm12PassRegistryE
0000000100214b70 t __ZL38lowerVectorShuffleByMerging128BitLanesRKN4llvm5SDLocENS_3MVTENS_7SDValueES4_NS_8ArrayRefIiEERKNS_12X86SubtargetERNS_12SelectionDAGE
00000001015a3258 b __ZL39InitializeExternalAAWrapperPassPassFlag
0000000101597198 b __ZL39InitializeGCMachineCodeAnalysisPassFlag
00000001015a29e0 b __ZL39InitializeLowerInvokeLegacyPassPassFlag
0000000101599450 b __ZL39InitializeMachineBlockPlacementPassFlag
000000010159a380 b __ZL39InitializeMachineRegionInfoPassPassFlag
000000010159d488 b __ZL39InitializeRegUsageInfoCollectorPassFlag
000000010159dad0 b __ZL39InitializeShadowStackGCLoweringPassFlag
00000001015903c8 b __ZL39InitializeX86DomainReassignmentPassFlag
0000000101591ab8 b __ZL39InitializeX86ExecutionDomainFixPassFlag
0000000100a74a40 t __ZL39initializeExternalAAWrapperPassPassOnceRN4llvm12PassRegistryE
000000010070a470 t __ZL39initializeGCMachineCodeAnalysisPassOnceRN4llvm12PassRegistryE
0000000100a3b700 t __ZL39initializeLowerInvokeLegacyPassPassOnceRN4llvm12PassRegistryE
0000000100797240 t __ZL39initializeMachineBlockPlacementPassOnceRN4llvm12PassRegistryE
0000000100830180 t __ZL39initializeMachineRegionInfoPassPassOnceRN4llvm12PassRegistryE
0000000100905c20 t __ZL39initializeRegUsageInfoCollectorPassOnceRN4llvm12PassRegistryE
000000010092d0a0 t __ZL39initializeShadowStackGCLoweringPassOnceRN4llvm12PassRegistryE
0000000100086b80 t __ZL39initializeX86DomainReassignmentPassOnceRN4llvm12PassRegistryE
00000001002a1590 t __ZL39initializeX86ExecutionDomainFixPassOnceRN4llvm12PassRegistryE
00000001002146c0 t __ZL39lowerVectorShuffleAsLanePermuteAndBlendRKN4llvm5SDLocENS_3MVTENS_7SDValueES4_NS_8ArrayRefIiEERNS_12SelectionDAGERKNS_12X86SubtargetE
00000001015a8088 b __ZL3HOp
00000001015a33e8 b __ZL40InitializeAssumptionCacheTrackerPassFlag
00000001015a3a28 b __ZL40InitializeCFLAndersAAWrapperPassPassFlag
00000001015a3a30 b __ZL40InitializeCFLSteensAAWrapperPassPassFlag
00000001015998a0 b __ZL40InitializeFinalizeMachineBundlesPassFlag
0000000101598328 b __ZL40InitializeInterleavedLoadCombinePassFlag
00000001015996c8 b __ZL40InitializeMachineCopyPropagationPassFlag
000000010159bcf0 b __ZL40InitializePostRAHazardRecognizerPassFlag
00000001015a6040 b __ZL40InitializeTypeBasedAAWrapperPassPassFlag
0000000100a79680 t __ZL40initializeAssumptionCacheTrackerPassOnceRN4llvm12PassRegistryE
0000000100aa9a10 t __ZL40initializeCFLAndersAAWrapperPassPassOnceRN4llvm12PassRegistryE
0000000100ab5770 t __ZL40initializeCFLSteensAAWrapperPassPassOnceRN4llvm12PassRegistryE
00000001007c7ea0 t __ZL40initializeFinalizeMachineBundlesPassOnceRN4llvm12PassRegistryE
000000010072db20 t __ZL40initializeInterleavedLoadCombinePassOnceRN4llvm12PassRegistryE
00000001007aff30 t __ZL40initializeMachineCopyPropagationPassOnceRN4llvm12PassRegistryE
00000001008994a0 t __ZL40initializePostRAHazardRecognizerPassOnceRN4llvm12PassRegistryE
0000000100ba3210 t __ZL40initializeTypeBasedAAWrapperPassPassOnceRN4llvm12PassRegistryE
0000000100212eb0 t __ZL40lowerShuffleAsRepeatedMaskAndLanePermuteRKN4llvm5SDLocENS_3MVTENS_7SDValueES4_NS_8ArrayRefIiEERKNS_12X86SubtargetERNS_12SelectionDAGE
0000000100206cf0 t __ZL40lowerVectorShuffleAsByteRotateAndPermuteRKN4llvm5SDLocENS_3MVTENS_7SDValueES4_NS_8ArrayRefIiEERKNS_12X86SubtargetERNS_12SelectionDAGE
000000010159d498 b __ZL41InitializeRegUsageInfoPropagationPassFlag
00000001015a5040 b __ZL41ProfileSummaryHugeWorkingSetSizeThreshold
0000000100906c40 t __ZL41initializeRegUsageInfoPropagationPassOnceRN4llvm12PassRegistryE
000000010020ab40 t __ZL41lowerV8I16GeneralSingleInputVectorShuffleRKN4llvm5SDLocENS_3MVTENS_7SDValueENS_15MutableArrayRefIiEERKNS_12X86SubtargetERNS_12SelectionDAGE
00000001002140c0 t __ZL41lowerVectorShuffleAsLanePermuteAndPermuteRKN4llvm5SDLocENS_3MVTENS_7SDValueES4_NS_8ArrayRefIiEERNS_12SelectionDAGERKNS_12X86SubtargetE
00000001015a6fd0 b __ZL42InitializeDominatorTreeWrapperPassPassFlag
00000001015996e0 b __ZL42InitializeMachineDominanceFrontierPassFlag
000000010159a378 b __ZL42InitializeMachinePostDominatorTreePassFlag
000000010159d220 b __ZL42InitializeRenameIndependentSubregsPassFlag
00000001015a3188 b __ZL42InitializeRewriteSymbolsLegacyPassPassFlag
000000010159d700 b __ZL42InitializeScalarizeMaskedMemIntrinPassFlag
0000000101590098 b __ZL42InitializeX86CallFrameOptimizationPassFlag
0000000101590710 b __ZL42InitializeX86FlagsCopyLoweringPassPassFlag
00000001000e1660 t __ZL42flagsNeedToBePreservedBeforeTheTerminatorsRKN4llvm17MachineBasicBlockE
0000000100d9e2d0 t __ZL42initializeDominatorTreeWrapperPassPassOnceRN4llvm12PassRegistryE
00000001007ba470 t __ZL42initializeMachineDominanceFrontierPassOnceRN4llvm12PassRegistryE
0000000100824ae0 t __ZL42initializeMachinePostDominatorTreePassOnceRN4llvm12PassRegistryE
00000001008f8350 t __ZL42initializeRenameIndependentSubregsPassOnceRN4llvm12PassRegistryE
0000000100a6c230 t __ZL42initializeRewriteSymbolsLegacyPassPassOnceRN4llvm12PassRegistryE
00000001009193b0 t __ZL42initializeScalarizeMaskedMemIntrinPassOnceRN4llvm12PassRegistryE
0000000100069810 t __ZL42initializeX86CallFrameOptimizationPassOnceRN4llvm12PassRegistryE
00000001000d4470 t __ZL42initializeX86FlagsCopyLoweringPassPassOnceRN4llvm12PassRegistryE
0000000100204370 t __ZL42lowerVectorShuffleAsDecomposedShuffleBlendRKN4llvm5SDLocENS_3MVTENS_7SDValueES4_NS_8ArrayRefIiEERKNS_12X86SubtargetERNS_12SelectionDAGE
0000000101598900 b __ZL43InitializeMachineBlockFrequencyInfoPassFlag
000000010159d480 b __ZL43InitializePhysicalRegisterUsageInfoPassFlag
00000001015a11b0 b __ZL43InitializeTwoAddressInstructionPassPassFlag
000000010078eff0 t __ZL43initializeMachineBlockFrequencyInfoPassOnceRN4llvm12PassRegistryE
0000000100903580 t __ZL43initializePhysicalRegisterUsageInfoPassOnceRN4llvm12PassRegistryE
0000000100997720 t __ZL43initializeTwoAddressInstructionPassPassOnceRN4llvm12PassRegistryE
00000001015a1698 b __ZL44InitializeConstantHoistingLegacyPassPassFlag
0000000101596d18 b __ZL44InitializeDeadMachineInstructionElimPassFlag
0000000101599460 b __ZL44InitializeMachineBlockPlacementStatsPassFlag
0000000101599880 b __ZL44InitializeMachineFunctionPrinterPassPassFlag
00000001015a5c48 b __ZL44InitializeScalarEvolutionWrapperPassPassFlag
00000001015a6108 b __ZL44InitializeScopedNoAliasAAWrapperPassPassFlag
00000001009bc860 t __ZL44initializeConstantHoistingLegacyPassPassOnceRN4llvm12PassRegistryE
00000001006efb30 t __ZL44initializeDeadMachineInstructionElimPassOnceRN4llvm12PassRegistryE
0000000100797350 t __ZL44initializeMachineBlockPlacementStatsPassOnceRN4llvm12PassRegistryE
00000001007c7940 t __ZL44initializeMachineFunctionPrinterPassPassOnceRN4llvm12PassRegistryE
0000000100b6f000 t __ZL44initializeScalarEvolutionWrapperPassPassOnceRN4llvm12PassRegistryE
0000000100ba50c0 t __ZL44initializeScopedNoAliasAAWrapperPassPassOnceRN4llvm12PassRegistryE
0000000101591b60 b __ZL45InitializeGISelCSEAnalysisWrapperPassPassFlag
00000001015a11c0 b __ZL45InitializeUnreachableMachineBlockElimPassFlag
00000001002c1c40 t __ZL45initializeGISelCSEAnalysisWrapperPassPassOnceRN4llvm12PassRegistryE
00000001009a2d60 t __ZL45initializeUnreachableMachineBlockElimPassOnceRN4llvm12PassRegistryE
0000000101599468 b __ZL46InitializeMachineBranchProbabilityInfoPassFlag
00000001015a5eb0 b __ZL46InitializeTargetLibraryInfoWrapperPassPassFlag
00000001007abfa0 t __ZL46initializeMachineBranchProbabilityInfoPassOnceRN4llvm12PassRegistryE
0000000100b99220 t __ZL46initializeTargetLibraryInfoWrapperPassPassOnceRN4llvm12PassRegistryE
00000001015a3950 b __ZL47InitializeBlockFrequencyInfoWrapperPassPassFlag
00000001015a5280 b __ZL47InitializeProfileSummaryInfoWrapperPassPassFlag
0000000100a87470 t __ZL47initializeBlockFrequencyInfoWrapperPassPassOnceRN4llvm12PassRegistryE
0000000100b2fda0 t __ZL47initializeProfileSummaryInfoWrapperPassPassOnceRN4llvm12PassRegistryE
00000001015a5f78 b __ZL48InitializeTargetTransformInfoWrapperPassPassFlag
00000001015a11b8 b __ZL48InitializeUnreachableBlockElimLegacyPassPassFlag
0000000100ba02c0 t __ZL48initializeTargetTransformInfoWrapperPassPassOnceRN4llvm12PassRegistryE
00000001009a2480 t __ZL48initializeUnreachableBlockElimLegacyPassPassOnceRN4llvm12PassRegistryE
00000001015a2770 b __ZL49InitializePostInlineEntryExitInstrumenterPassFlag
00000001015917a8 b __ZL49InitializeX86SpeculativeLoadHardeningPassPassFlag
0000000100a15c70 t __ZL49initializePostInlineEntryExitInstrumenterPassOnceRN4llvm12PassRegistryE
000000010028b4d0 t __ZL49initializeX86SpeculativeLoadHardeningPassPassOnceRN4llvm12PassRegistryE
0000000101593378 b __ZL4EVTs
0000000100c8dd10 t __ZL4FindN4llvm9StringRefENS_8ArrayRefINS_18SubtargetFeatureKVEEE
00000001015a8140 b __ZL4HHOp
00000001015a7f18 b __ZL4HLOp
0000000100c8e940 t __ZL4HelpN4llvm8ArrayRefINS_18SubtargetFeatureKVEEES2_
00000001015a8a00 b __ZL4Seed
00000001015a3a18 b __ZL50InitializeBranchProbabilityInfoWrapperPassPassFlag
0000000100a9c240 t __ZL50initializeBranchProbabilityInfoWrapperPassPassOnceRN4llvm12PassRegistryE
0000000101598338 b __ZL51InitializeLazyMachineBlockFrequencyInfoPassPassFlag
00000001015a2218 b __ZL51InitializePartiallyInlineLibCallsLegacyPassPassFlag
0000000100738250 t __ZL51initializeLazyMachineBlockFrequencyInfoPassPassOnceRN4llvm12PassRegistryE
0000000100a01b10 t __ZL51initializePartiallyInlineLibCallsLegacyPassPassOnceRN4llvm12PassRegistryE
000000010159c038 b __ZL52InitializePreISelIntrinsicLoweringLegacyPassPassFlag
000000010089ca50 t __ZL52initializePreISelIntrinsicLoweringLegacyPassPassOnceRN4llvm12PassRegistryE
0000000101599c98 b __ZL54InitializeMachineOptimizationRemarkEmitterPassPassFlag
00000001007ee890 t __ZL54initializeMachineOptimizationRemarkEmitterPassPassOnceRN4llvm12PassRegistryE
00000001015a8490 b __ZL5Debug
000000010158d800 b __ZL5GPOpt
00000001015a7fd0 b __ZL5HLHOp
0000000101584e30 d __ZL5NumFP
00000001015a8ac8 b __ZL5Stats
0000000100d804b0 t __ZL5splitN4llvm9StringRefEc
0000000101592ea8 b __ZL6AvgIPC
000000010006efd0 t __ZL6CC_X86jN4llvm3MVTES0_NS_11CCValAssign7LocInfoENS_3ISD10ArgFlagsTyERNS_7CCStateE
00000001000c1e70 t __ZL6CC_X86jN4llvm3MVTES0_NS_11CCValAssign7LocInfoENS_3ISD10ArgFlagsTyERNS_7CCStateE
00000001001293d0 t __ZL6CC_X86jN4llvm3MVTES0_NS_11CCValAssign7LocInfoENS_3ISD10ArgFlagsTyERNS_7CCStateE
0000000101584ed0 d __ZL6Concat
00000001015a2ab0 b __ZL6DupRet
000000010120fde0 s __ZL6Groups
0000000101585120 d __ZL6NumVZU
000000010158a6e0 b __ZL6Stress
000000010158ae68 b __ZL6Stress
0000000101596ec0 b __ZL6Stress
00000001015a83b0 b __ZL6VersOp
00000001000418c0 t __ZL6decodeN4llvm15X86Disassembler10OpcodeTypeENS0_18InstructionContextEhh
0000000100e287b0 t __ZL6getValPN4llvm7MDTupleEPKcRy
0000000100233ae0 t __ZL6isFNEGRN4llvm12SelectionDAGEPNS_6SDNodeE
00000001000370b0 t __ZL6loggerPvPKc
0000000100808da0 t __ZL6pred_LRN4llvm9SetVectorIPNS_5SUnitENSt3__16vectorIS2_NS3_9allocatorIS2_EEEENS_8DenseSetIS2_NS_12DenseMapInfoIS2_EEEEEERNS_14SmallSetVectorIS2_Lj8EEEPKNS_7NodeSetE
00000001008080c0 t __ZL6succ_LRN4llvm9SetVectorIPNS_5SUnitENSt3__16vectorIS2_NS3_9allocatorIS2_EEEENS_8DenseSetIS2_NS_12DenseMapInfoIS2_EEEEEERNS_14SmallSetVectorIS2_Lj8EEEPKNS_7NodeSetE
0000000100460980 t __ZL7AddGluePN4llvm6SDNodeENS_7SDValueEbPNS_12SelectionDAGE
000000010027a5f0 t __ZL7EmitNopRN4llvm10MCStreamerEjbRKNS_15MCSubtargetInfoE
00000001015a8c78 b __ZL7Enabled
0000000100ee3cf0 t __ZL7ExecuteRN4llvm3sys11ProcessInfoENS_9StringRefENS_8ArrayRefIS3_EENS_8OptionalIS5_EENS4_INS6_IS3_EEEEjPNSt3__112basic_stringIcNSA_11char_traitsIcEENSA_9allocatorIcEEEE
00000001006aaa80 t __ZL7FixTailPN4llvm17MachineBasicBlockES1_PKNS_15TargetInstrInfoE
0000000101588748 b __ZL7MaxVars
0000000101585fc8 d __ZL7NumCSEs
00000001015862e8 d __ZL7NumCmps
0000000101586b60 d __ZL7NumDead
00000001015853c0 d __ZL7NumDups
0000000101584e50 d __ZL7NumFXCH
0000000101586868 d __ZL7NumFunc
0000000101584d70 d __ZL7NumLEAs
0000000101586208 d __ZL7NumSunk
00000001015935e8 b __ZL7UseMBPI
0000000101592040 b __ZL7UseTBAA
000000010159d890 b __ZL7UseTBAA
0000000101593360 b __ZL7VTMutex
0000000100131100 t __ZL7getMOVLRN4llvm12SelectionDAGERKNS_5SDLocENS_3MVTENS_7SDValueES6_
0000000100ec1a80 t __ZL7parseOSN4llvm9StringRefE
0000000100041760 t __ZL7readSIBPN4llvm15X86Disassembler19InternalInstructionE
0000000100a3b820 t __ZL7runImplRN4llvm8FunctionE
000000010026c640 t __ZL7widen_1RKNSt3__16vectorINS_4pairItN4llvm15LegalizeActions14LegalizeActionEEENS_9allocatorIS5_EEEE
000000010045bb70 t __ZL8BURRSortPN4llvm5SUnitES1_PN12_GLOBAL__N_118RegReductionPQBaseE
00000001012cbbb0 s __ZL8CRCTable
000000010159d640 b __ZL8ClLayout
0000000101588070 b __ZL8CmpInGPR
000000010159e130 b __ZL8DCELimit
00000001015957b0 b __ZL8DebugDiv
000000010159bea0 b __ZL8DebugDiv
0000000101595870 b __ZL8DebugMod
000000010159bf60 b __ZL8DebugMod
0000000100258ec0 t __ZL8FuseInstRN4llvm15MachineFunctionEjjNS_8ArrayRefINS_14MachineOperandEEENS_26MachineInstrBundleIteratorINS_12MachineInstrELb0EEERS6_RKNS_15TargetInstrInfoEi
000000010158cd58 b __ZL8LargeGOT
0000000101590d00 b __ZL8NoFusing
00000001015860a8 d __ZL8NumCSEed
0000000101586268 d __ZL8NumFused
00000001015856c0 d __ZL8NumHoist
0000000101586ee0 d __ZL8NumLCSSA
0000000101586548 d __ZL8NumLoads
0000000101586068 d __ZL8NumLowRP
0000000101585440 d __ZL8NumNoops
0000000101586428 d __ZL8NumNoops
0000000101586468 d __ZL8NumNoops
0000000101586368 d __ZL8NumReuse
0000000101585700 d __ZL8NumSplit
0000000101586228 d __ZL8NumSplit
0000000101586b80 d __ZL8NumTails
000000010155e8c0 s __ZL8PSVNames
0000000101597f38 b __ZL8PageSize
0000000101127860 s __ZL8PopTable
000000010159fae0 b __ZL8PrintLSR
00000001015a0bc8 b __ZL8RegAlloc
000000010062dd00 t __ZL8SetValuePN4llvm5ValueENS_12GenericValueERNS_16ExecutionContextE
00000001006ccf60 t __ZL8SinkCastPN4llvm8CastInstE
00000001015a8c60 b __ZL8StatInfo
00000001015a8c48 b __ZL8StatLock
000000010159ccc8 b __ZL8StressRA
00000001015807d0 s __ZL8TagNames
0000000101585d78 d __ZL8UndefVNI
00000001015a05b8 b __ZL8UseCFLAA
00000001015a8ec8 b __ZL8UseColor
00000001015a4420 b __ZL8UseGPUDA
00000001015a54c8 b __ZL8VerifyIR
0000000100e340c0 t __ZL8containsRN4llvm15SmallPtrSetImplIPNS_12ConstantExprEEES2_PNS_8ConstantE
0000000100041ac0 t __ZL8fixupRegPN4llvm15X86Disassembler19InternalInstructionEPKNS0_16OperandSpecifierE
0000000100ba44b0 t __ZL8hasFieldN12_GLOBAL__N_118TBAAStructTypeNodeES0_
00000001009a1440 t __ZL8isKilledRN4llvm12MachineInstrEjPKNS_19MachineRegisterInfoEPKNS_15TargetInstrInfoEPNS_13LiveIntervalsEb
00000001001e0e90 t __ZL8matchAsmN4llvm9StringRefENS_8ArrayRefIPKcEE
00000001015866c8 d __ZL8numJoins
00000001012bc9a0 s __ZL8ore_name
0000000100e98600 t __ZL8sortOptsRN4llvm9StringMapIPNS_2cl6OptionENS_15MallocAllocatorEEERNS_15SmallVectorImplINSt3__14pairIPKcS3_EEEEb
0000000100075df0 t __ZL9CC_X86_64jN4llvm3MVTES0_NS_11CCValAssign7LocInfoENS_3ISD10ArgFlagsTyERNS_7CCStateE
00000001000c46f0 t __ZL9CC_X86_64jN4llvm3MVTES0_NS_11CCValAssign7LocInfoENS_3ISD10ArgFlagsTyERNS_7CCStateE
00000001001e79e0 t __ZL9CC_X86_64jN4llvm3MVTES0_NS_11CCValAssign7LocInfoENS_3ISD10ArgFlagsTyERNS_7CCStateE
00000001015a8610 b __ZL9DebugOnly
000000010051b950 t __ZL9DumpNodesPKN4llvm6SDNodeEjPKNS_12SelectionDAGE
000000010158e3b0 b __ZL9EnableDSP
0000000101598350 b __ZL9EnableLDV
000000010158b2e8 b __ZL9EnableMCR
0000000101599d70 b __ZL9EnableSWP
0000000101595740 b __ZL9FuncNames
00000001012c0c20 s __ZL9IIT_Table
00000001015a1e30 b __ZL9InsnsCost
000000010158ace8 b __ZL9LdStLimit
000000010158d5c0 b __ZL9Mips_Os16
0000000101586728 d __ZL9NumCSROpt
0000000101586968 d __ZL9NumCopies
0000000101585b58 d __ZL9NumDupBBs
0000000101587160 d __ZL9NumExpand
0000000101585c58 d __ZL9NumFolded
0000000101586f20 d __ZL9NumNested
0000000101586608 d __ZL9NumReMats
0000000101585cb8 d __ZL9NumRemats
0000000101586948 d __ZL9NumRemats
0000000101586408 d __ZL9NumReused
0000000101585a98 d __ZL9NumSimple
00000001015869a8 d __ZL9NumSimple
0000000101585c38 d __ZL9NumSpills
0000000101585420 d __ZL9NumStalls
0000000101586488 d __ZL9NumStalls
0000000101586528 d __ZL9NumStores
0000000101585b98 d __ZL9NumUnpred
0000000100bce660 t __ZL9ParseHeadRKN4llvm9StringRefERS0_RyS4_
000000010159a830 b __ZL9PrintDAGs
00000001015a7ce0 b __ZL9PrintOnly
000000010006d340 t __ZL9RetCC_X86jN4llvm3MVTES0_NS_11CCValAssign7LocInfoENS_3ISD10ArgFlagsTyERNS_7CCStateE
00000001000bc2d0 t __ZL9RetCC_X86jN4llvm3MVTES0_NS_11CCValAssign7LocInfoENS_3ISD10ArgFlagsTyERNS_7CCStateE
0000000100121a50 t __ZL9RetCC_X86jN4llvm3MVTES0_NS_11CCValAssign7LocInfoENS_3ISD10ArgFlagsTyERNS_7CCStateE
0000000101599ef0 b __ZL9SwpMaxMii
00000001015a8e30 b __ZL9TimerLock
0000000101595bb0 b __ZL9VerifyCFI
0000000100041190 t __ZL9dbgprintfPN4llvm15X86Disassembler19InternalInstructionEPKcz
0000000100bf51c0 t __ZL9getStructIN4llvm5MachO7sectionEET_RKNS0_6object15MachOObjectFileEPKc
0000000100e31010 t __ZL9getSymTabPN4llvm5ValueERPNS_16ValueSymbolTableE
0000000100aea690 t __ZL9isDivZeroPN4llvm5ValueES1_RKNS_13SimplifyQueryEjb
0000000100ec0bd0 t __ZL9parseArchN4llvm9StringRefE
0000000100c77f10 t __ZL9printNameRN4llvm11raw_ostreamENS_9StringRefE
0000000100aa9e40 t __ZL9propagateN4llvm5cflaa17InstantiatedValueES1_N12_GLOBAL__N_110MatchStateERNS2_15ReachabilitySetERNSt3__16vectorINS2_12WorkListItemENS6_9allocatorIS8_EEEE
0000000100041330 t __ZL9readModRMPN4llvm15X86Disassembler19InternalInstructionE
00000001002969a0 t __ZL9splitEdgeRN4llvm17MachineBasicBlockES1_iPNS_12MachineInstrERS3_RKNS_12X86InstrInfoE
0000000100842b20 t __ZL9tracePickRKN4llvm20GenericSchedulerBase14SchedCandidateE
0000000100008b00 T __ZN100_$LT$wasmo_llvm..values..pointer..PointerValue$u20$as$u20$wasmo_llvm..values..traits..AsValueRef$GT$6as_ref17h36d983f1680041f5E
00000001000096a0 T __ZN102_$LT$wasmo_llvm..values..function..FunctionValue$u20$as$u20$wasmo_llvm..values..traits..AsValueRef$GT$6as_ref17hbb9d53ba8a461bbdE
0000000100eeeaa0 T __ZN103_$LT$core..ops..range..RangeFrom$LT$usize$GT$$u20$as$u20$core..slice..SliceIndex$LT$$u5b$T$u5d$$GT$$GT$17get_unchecked_mut17h21c3574d58e5b14fE
0000000100eee6d0 T __ZN109_$LT$alloc..vec..Vec$LT$T$GT$$u20$as$u20$alloc..vec..SpecExtend$LT$$RF$T$C$core..slice..Iter$LT$T$GT$$GT$$GT$11spec_extend17h83551dc946202967E
0000000100004090 t __ZN10wasmo_llvm11basic_block10BasicBlock3new17h8e022503ad585319E
00000001000012c0 t __ZN10wasmo_llvm16execution_engine13Func$LT$F$GT$6create17hfd853509b85d18e4E
00000001000012f0 t __ZN10wasmo_llvm16execution_engine15ExecutionEngine12get_function17h45ae22a56619f829E
0000000100008670 T __ZN10wasmo_llvm16execution_engine15ExecutionEngine14link_in_mc_jit17h4a417dbca65bd143E
0000000100008600 t __ZN10wasmo_llvm16execution_engine15ExecutionEngine3new17h1e3706cd3113a529E
00000001000014f0 t __ZN10wasmo_llvm16execution_engine95Func$LT$unsafe$u20$extern$u20$$u22$C$u22$$u20$fn$LP$N$C$$u20$O$C$$u20$P$RP$$u20$.$GT$$u20$T$GT$4call17hbebfe4c834820415E
00000001000085e0 t __ZN10wasmo_llvm5types2ty4Type3new17h3facd68fc3b378c6E
00000001000045d0 t __ZN10wasmo_llvm5types3int7IntType3new17ha492c2d6fe7af8d9E
0000000100008980 T __ZN10wasmo_llvm5types5enums9BasicType6as_ref17hcbb8d3c73de413cbE
000000010000ae90 t __ZN10wasmo_llvm5types8function12FunctionType3new17h51b15e660d36971dE
000000010000af10 T __ZN10wasmo_llvm5types8function7fn_type17hc1bc9d53fbc4f991E
000000010000b8e0 t __ZN10wasmo_llvm5types8function7fn_type28_$u7b$$u7b$closure$u7d$$u7d$17hf0b1009db2b23437E
000000010000a550 T __ZN10wasmo_llvm6module6Module12add_function17h0640aeb7f3dfb7c0E
000000010000a190 T __ZN10wasmo_llvm6module6Module27create_jit_execution_engine17hd89479c7b0429d54E
000000010000a040 T __ZN10wasmo_llvm6module6Module3new17h8d19efaf245e3e30E
000000010000a110 t __ZN10wasmo_llvm6module6Module8is_owned17hc675d0ee187226f3E
00000001000040e0 T __ZN10wasmo_llvm6string14to_rust_string17he91301e75276b07cE
0000000100005b50 T __ZN10wasmo_llvm6target6Target17initialize_native17heaa273a669db6202E
000000010000b1e0 t __ZN10wasmo_llvm6values11instruction16InstructionValue3new17hf0dc6da4d21aad89E
0000000100008770 t __ZN10wasmo_llvm6values3int8IntValue3new17h9d86a166c8e32458E
000000010000b0d0 t __ZN10wasmo_llvm6values5array10ArrayValue3new17h38f57fb61ba92a10E
00000001000098c0 t __ZN10wasmo_llvm6values5enums10BasicValue3new17h57b5ca54a7f76e56E
0000000100009b70 T __ZN10wasmo_llvm6values5enums10BasicValue6as_ref17h00ce62e2a07f7dafE
0000000100008ca0 t __ZN10wasmo_llvm6values5float10FloatValue3new17h6cb3c8391b5e9176E
0000000100005140 t __ZN10wasmo_llvm6values5value5Value3new17hdccb464ee1d0e32aE
00000001000044c0 t __ZN10wasmo_llvm6values6vector11VectorValue3new17h44c3b9294ad92df3E
0000000100008aa0 t __ZN10wasmo_llvm6values7pointer12PointerValue3new17h1d8d08d2fbdbf819E
000000010000b6b0 t __ZN10wasmo_llvm6values7struct_11StructValue3new17h81c1265d242b3f2aE
00000001000093f0 T __ZN10wasmo_llvm6values8function13FunctionValue11set_linkage17h7a141233f55ba7c2E
0000000100009430 T __ZN10wasmo_llvm6values8function13FunctionValue12count_params17hbb8f84b9a6d4067aE
0000000100009460 T __ZN10wasmo_llvm6values8function13FunctionValue13get_nth_param17h12649f12e11e98fcE
0000000100009530 T __ZN10wasmo_llvm6values8function13FunctionValue18append_basic_block17h592b742d38aea10dE
0000000100009390 t __ZN10wasmo_llvm6values8function13FunctionValue3new17h80e7ace237316655E
00000001000084e0 T __ZN10wasmo_llvm7builder7Builder12build_return17h526d196138438d12E
0000000100002760 t __ZN10wasmo_llvm7builder7Builder13build_int_add17h265a1f9917bc417eE
00000001000084b0 T __ZN10wasmo_llvm7builder7Builder15position_at_end17h28b67d4014ac2472E
0000000100008430 T __ZN10wasmo_llvm7builder7Builder3new17haf1ce44ee128d675E
00000001000061a0 T __ZN10wasmo_llvm7context7Context13create_module17hfbb6a65e8cb28358E
0000000100006300 T __ZN10wasmo_llvm7context7Context14create_builder17hc8b2285086db85e8E
0000000100006130 T __ZN10wasmo_llvm7context7Context6create17hbe5e008a3a90e589E
0000000100006380 T __ZN10wasmo_llvm7context7Context8i64_type17h0ede4b504412dffeE
0000000100008950 T __ZN114_$LT$wasmo_llvm..types..enums..BasicType$u20$as$u20$core..convert..From$LT$wasmo_llvm..types..int..IntType$GT$$GT$4from17h268433529f7950ffE
0000000100009790 T __ZN118_$LT$wasmo_llvm..values..enums..BasicValue$u20$as$u20$core..convert..From$LT$wasmo_llvm..values..int..IntValue$GT$$GT$4from17h3488f85f65fe029cE
00000001000097c0 T __ZN118_$LT$wasmo_llvm..values..enums..BasicValue$u20$as$u20$core..convert..Into$LT$wasmo_llvm..values..int..IntValue$GT$$GT$4into17h98789fd46eeafba6E
0000000100003b80 T __ZN119_$LT$core..ptr..non_null..NonNull$LT$T$GT$$u20$as$u20$core..convert..From$LT$core..ptr..unique..Unique$LT$T$GT$$GT$$GT$4from17h85e82424da84897dE
0000000100003bb0 T __ZN119_$LT$core..ptr..non_null..NonNull$LT$T$GT$$u20$as$u20$core..convert..From$LT$core..ptr..unique..Unique$LT$T$GT$$GT$$GT$4from17hb36d3bfc1365e747E
0000000100ef08d0 T __ZN119_$LT$core..ptr..non_null..NonNull$LT$T$GT$$u20$as$u20$core..convert..From$LT$core..ptr..unique..Unique$LT$T$GT$$GT$$GT$4from17hb9594c5be8cbcd34E
0000000100eec810 T __ZN119_$LT$core..ptr..non_null..NonNull$LT$T$GT$$u20$as$u20$core..convert..From$LT$core..ptr..unique..Unique$LT$T$GT$$GT$$GT$4from17hc73060357e908861E
0000000100eecf10 T __ZN119_$LT$core..ptr..unique..Unique$LT$T$GT$$u20$as$u20$core..convert..From$LT$core..ptr..non_null..NonNull$LT$T$GT$$GT$$GT$4from17h188c5bfdb1b41459E
0000000100002fa0 T __ZN119_$LT$core..ptr..unique..Unique$LT$T$GT$$u20$as$u20$core..convert..From$LT$core..ptr..non_null..NonNull$LT$T$GT$$GT$$GT$4from17ha824e10351e07edbE
00000001007971a0 t __ZN12_GLOBAL__N_110BlockChain4dumpEv
000000010079bcf0 t __ZN12_GLOBAL__N_110BlockChain5mergeEPN4llvm17MachineBasicBlockEPS0_
00000001008d40c0 t __ZN12_GLOBAL__N_110Coalescing18addVirtRegCoalesceERN4llvm4PBQP6MatrixERKNS2_8RegAlloc16AllowedRegVectorES8_f
00000001008d3830 t __ZN12_GLOBAL__N_110Coalescing5applyERN4llvm4PBQP8RegAlloc11PBQPRAGraphE
00000001008d3820 t __ZN12_GLOBAL__N_110CoalescingD0Ev
00000001008d3810 t __ZN12_GLOBAL__N_110CoalescingD1Ev
00000001007b5770 t __ZN12_GLOBAL__N_110MachineCSE12ProcessBlockEPN4llvm17MachineBasicBlockE
00000001007b49e0 t __ZN12_GLOBAL__N_110MachineCSE13releaseMemoryEv
00000001007b4ae0 t __ZN12_GLOBAL__N_110MachineCSE20runOnMachineFunctionERN4llvm15MachineFunctionE
00000001015996d0 b __ZN12_GLOBAL__N_110MachineCSE2IDE
00000001007b9510 t __ZN12_GLOBAL__N_110MachineCSE9ExitScopeEPN4llvm17MachineBasicBlockE
00000001007b4860 t __ZN12_GLOBAL__N_110MachineCSED0Ev
00000001007b47d0 t __ZN12_GLOBAL__N_110MachineCSED1Ev
00000001009f7260 t __ZN12_GLOBAL__N_110MergeICmps13runOnFunctionERN4llvm8FunctionE
00000001015a2208 b __ZN12_GLOBAL__N_110MergeICmps2IDE
00000001009f7200 t __ZN12_GLOBAL__N_110MergeICmpsD0Ev
00000001009f71f0 t __ZN12_GLOBAL__N_110MergeICmpsD1Ev
00000001006e2420 t __ZN12_GLOBAL__N_110PhiNodeSet19SkipRemovedElementsERm
00000001007339d0 t __ZN12_GLOBAL__N_110Polynomial14pushBOperationENS0_4BOpsERKN4llvm5APIntE
0000000100733a80 t __ZN12_GLOBAL__N_110Polynomial15isProvenEqualToERKS0_
0000000100733780 t __ZN12_GLOBAL__N_110Polynomial3mulERKN4llvm5APIntE
0000000100733890 t __ZN12_GLOBAL__N_110PolynomialC1EPN4llvm5ValueE
0000000100732e80 t __ZN12_GLOBAL__N_110PolynomialaSEOS0_
000000010092f7c0 t __ZN12_GLOBAL__N_110ShrinkWrap20runOnMachineFunctionERN4llvm15MachineFunctionE
0000000100931530 t __ZN12_GLOBAL__N_110ShrinkWrap23updateSaveRestorePointsERN4llvm17MachineBasicBlockEPNS1_12RegScavengerE
000000010159dba0 b __ZN12_GLOBAL__N_110ShrinkWrap2IDE
000000010092f710 t __ZN12_GLOBAL__N_110ShrinkWrapD0Ev
000000010092f5c0 t __ZN12_GLOBAL__N_110ShrinkWrapD1Ev
00000001008d05d0 t __ZN12_GLOBAL__N_110SpillCosts5applyERN4llvm4PBQP8RegAlloc11PBQPRAGraphE
00000001008d05c0 t __ZN12_GLOBAL__N_110SpillCostsD0Ev
00000001008d05b0 t __ZN12_GLOBAL__N_110SpillCostsD1Ev
00000001007f40d0 t __ZN12_GLOBAL__N_110SuffixTree16setSuffixIndicesERNS_14SuffixTreeNodeEj
00000001007f4980 t __ZN12_GLOBAL__N_110SuffixTree25RepeatedSubstringIterator7advanceEv
00000001015a8c80 b __ZN12_GLOBAL__N_110TrackSpaceE
00000001007300f0 t __ZN12_GLOBAL__N_110VectorInfo14computeFromSVIEPN4llvm17ShuffleVectorInstERS0_RKNS1_10DataLayoutE
00000001007332e0 t __ZN12_GLOBAL__N_110VectorInfo17computePolynomialERN4llvm5ValueERNS_10PolynomialE
00000001007322b0 t __ZN12_GLOBAL__N_110VectorInfo28computePolynomialFromPointerERN4llvm5ValueERNS_10PolynomialERPS2_RKNS1_10DataLayoutE
0000000100731390 t __ZN12_GLOBAL__N_110VectorInfo7computeEPN4llvm5ValueERS0_RKNS1_10DataLayoutE
0000000100730b70 t __ZN12_GLOBAL__N_110VectorInfoC1EPN4llvm10VectorTypeE
0000000100730e80 t __ZN12_GLOBAL__N_110VectorInfoD0Ev
0000000100730d70 t __ZN12_GLOBAL__N_110VectorInfoD1Ev
0000000100a00020 t __ZN12_GLOBAL__N_111BCECmpChain12IsContiguousERKNS_11BCECmpBlockES3_
0000000100a001e0 t __ZN12_GLOBAL__N_111BCECmpChain16mergeComparisonsEN4llvm8ArrayRefINS_11BCECmpBlockEEEPNS1_10BasicBlockERNS1_7PHINodeEPKNS1_17TargetLibraryInfoEPNS1_9AAResultsE
00000001007b2e70 t __ZN12_GLOBAL__N_111CopyTracker13findAvailCopyERN4llvm12MachineInstrEjRKNS1_18TargetRegisterInfoE
00000001007b2a80 t __ZN12_GLOBAL__N_111CopyTracker15clobberRegisterEjRKN4llvm18TargetRegisterInfoE
00000001007b3d20 t __ZN12_GLOBAL__N_111CopyTracker19markRegsUnavailableEN4llvm8ArrayRefIjEERKNS1_18TargetRegisterInfoE
000000010035a6b0 t __ZN12_GLOBAL__N_111DAGCombiner10visitSTOREEPN4llvm6SDNodeE
0000000100370e30 t __ZN12_GLOBAL__N_111DAGCombiner11MatchRotateEN4llvm7SDValueES2_RKNS1_5SDLocE
00000001003704c0 t __ZN12_GLOBAL__N_111DAGCombiner11visitORLikeEN4llvm7SDValueES2_PNS1_6SDNodeE
0000000100379140 t __ZN12_GLOBAL__N_111DAGCombiner12rebuildSetCCEN4llvm7SDValueE
0000000100366420 t __ZN12_GLOBAL__N_111DAGCombiner12visitADDLikeEN4llvm7SDValueES2_PNS1_6SDNodeE
000000010036ba30 t __ZN12_GLOBAL__N_111DAGCombiner12visitANDLikeEN4llvm7SDValueES2_PNS1_6SDNodeE
0000000100350890 t __ZN12_GLOBAL__N_111DAGCombiner12visitBITCASTEPN4llvm6SDNodeE
000000010030cc30 t __ZN12_GLOBAL__N_111DAGCombiner13AddToWorklistEPN4llvm6SDNodeE
0000000100367c40 t __ZN12_GLOBAL__N_111DAGCombiner13BuildLogBase2EN4llvm7SDValueERKNS1_5SDLocE
00000001003680f0 t __ZN12_GLOBAL__N_111DAGCombiner13visitSDIVLikeEN4llvm7SDValueES2_PNS1_6SDNodeE
000000010034d970 t __ZN12_GLOBAL__N_111DAGCombiner13visitTRUNCATEEPN4llvm6SDNodeE
0000000100369510 t __ZN12_GLOBAL__N_111DAGCombiner13visitUDIVLikeEN4llvm7SDValueES2_PNS1_6SDNodeE
000000010037a5c0 t __ZN12_GLOBAL__N_111DAGCombiner14CombineExtLoadEPN4llvm6SDNodeE
0000000100396c70 t __ZN12_GLOBAL__N_111DAGCombiner14PromoteOperandEN4llvm7SDValueENS1_3EVTERb
00000001003654a0 t __ZN12_GLOBAL__N_111DAGCombiner14ReassociateOpsEjRKN4llvm5SDLocENS1_7SDValueES5_NS1_11SDNodeFlagsE
0000000100364750 t __ZN12_GLOBAL__N_111DAGCombiner14SimplifyVBinOpEPN4llvm6SDNodeE
0000000100367390 t __ZN12_GLOBAL__N_111DAGCombiner14visitUADDOLikeEN4llvm7SDValueES2_PNS1_6SDNodeE
000000010037ba40 t __ZN12_GLOBAL__N_111DAGCombiner15ExtendSetCCUsesERKN4llvm15SmallVectorImplIPNS1_6SDNodeEEENS1_7SDValueES8_NS1_3ISD8NodeTypeE
0000000100381c10 t __ZN12_GLOBAL__N_111DAGCombiner15FindBetterChainEPN4llvm6SDNodeENS1_7SDValueE
0000000100369fc0 t __ZN12_GLOBAL__N_111DAGCombiner15ReduceLoadWidthEPN4llvm6SDNodeE
00000001003767e0 t __ZN12_GLOBAL__N_111DAGCombiner16SimplifySelectCCERKN4llvm5SDLocENS1_7SDValueES5_S5_S5_NS1_3ISD8CondCodeEb
000000010036f010 t __ZN12_GLOBAL__N_111DAGCombiner16isAndLoadExtLoadEPN4llvm14ConstantSDNodeEPNS1_10LoadSDNodeENS1_3EVTERS6_
000000010034a940 t __ZN12_GLOBAL__N_111DAGCombiner16visitZERO_EXTENDEPN4llvm6SDNodeE
0000000100372a20 t __ZN12_GLOBAL__N_111DAGCombiner17MatchRotatePosNegEN4llvm7SDValueES2_S2_S2_S2_jjRKNS1_5SDLocE
000000010036e770 t __ZN12_GLOBAL__N_111DAGCombiner17SearchForAndLoadsEPN4llvm6SDNodeERNS1_15SmallVectorImplIPNS1_10LoadSDNodeEEERNS1_15SmallPtrSetImplIS3_EEPNS1_14ConstantSDNodeERS3_
0000000100375400 t __ZN12_GLOBAL__N_111DAGCombiner17SimplifySelectOpsEPN4llvm6SDNodeENS1_7SDValueES4_
000000010036f370 t __ZN12_GLOBAL__N_111DAGCombiner17foldLogicOfSetCCsEbN4llvm7SDValueES2_RKNS1_5SDLocE
000000010036e2d0 t __ZN12_GLOBAL__N_111DAGCombiner17isLegalNarrowLdStEPN4llvm12LSBaseSDNodeENS1_3ISD11LoadExtTypeERNS1_3EVTEj
00000001003677e0 t __ZN12_GLOBAL__N_111DAGCombiner17visitADDCARRYLikeEN4llvm7SDValueES2_S2_PNS1_6SDNodeE
000000010036d880 t __ZN12_GLOBAL__N_111DAGCombiner18MatchBSwapHWordLowEPN4llvm6SDNodeENS1_7SDValueES4_b
00000001003973a0 t __ZN12_GLOBAL__N_111DAGCombiner18SExtPromoteOperandEN4llvm7SDValueENS1_3EVTE
00000001003975b0 t __ZN12_GLOBAL__N_111DAGCombiner18ZExtPromoteOperandEN4llvm7SDValueENS1_3EVTE
000000010030e040 t __ZN12_GLOBAL__N_111DAGCombiner18removeFromWorklistEPN4llvm6SDNodeE
0000000100364e20 t __ZN12_GLOBAL__N_111DAGCombiner19foldBinOpIntoSelectEPN4llvm6SDNodeE
000000010038fd00 t __ZN12_GLOBAL__N_111DAGCombiner19getMergeStoreChainsERN4llvm15SmallVectorImplINS0_9MemOpLinkEEEj
000000010035fe50 t __ZN12_GLOBAL__N_111DAGCombiner19visitVECTOR_SHUFFLEEPN4llvm6SDNodeE
0000000100366370 t __ZN12_GLOBAL__N_111DAGCombiner20SimplifyDemandedBitsEN4llvm7SDValueE
0000000100366d90 t __ZN12_GLOBAL__N_111DAGCombiner20SimplifyDemandedBitsEN4llvm7SDValueERKNS1_5APIntE
0000000100374460 t __ZN12_GLOBAL__N_111DAGCombiner20visitShiftByConstantEPN4llvm6SDNodeEPNS1_14ConstantSDNodeE
000000010037fc30 t __ZN12_GLOBAL__N_111DAGCombiner21buildSqrtEstimateImplEN4llvm7SDValueENS1_11SDNodeFlagsEb
00000001003864b0 t __ZN12_GLOBAL__N_111DAGCombiner22MergeConsecutiveStoresEPN4llvm11StoreSDNodeE
000000010037dfd0 t __ZN12_GLOBAL__N_111DAGCombiner23CombineConsecutiveLoadsEPN4llvm6SDNodeENS1_3EVTE
000000010030d170 t __ZN12_GLOBAL__N_111DAGCombiner23CommitTargetLoweringOptERKN4llvm14TargetLowering17TargetLoweringOptE
0000000100393260 t __ZN12_GLOBAL__N_111DAGCombiner23reduceBuildVecToShuffleEPN4llvm6SDNodeE
000000010037c750 t __ZN12_GLOBAL__N_111DAGCombiner26SimplifyDemandedVectorEltsEN4llvm7SDValueE
000000010037c8a0 t __ZN12_GLOBAL__N_111DAGCombiner26SimplifyDemandedVectorEltsEN4llvm7SDValueERKNS1_5APIntEb
0000000100369a60 t __ZN12_GLOBAL__N_111DAGCombiner26SimplifyNodeWithTwoResultsEPN4llvm6SDNodeEjj
0000000100397090 t __ZN12_GLOBAL__N_111DAGCombiner27ReplaceLoadWithPromotedLoadEPN4llvm6SDNodeES3_
0000000100382940 t __ZN12_GLOBAL__N_111DAGCombiner28CombineToPreIndexedLoadStoreEPN4llvm6SDNodeE
0000000100374160 t __ZN12_GLOBAL__N_111DAGCombiner28distributeTruncateThroughAndEPN4llvm6SDNodeE
000000010037c270 t __ZN12_GLOBAL__N_111DAGCombiner28matchVSelectOpSizesWithSetCCEPN4llvm6SDNodeE
000000010030e220 t __ZN12_GLOBAL__N_111DAGCombiner28recursivelyDeleteUnusedNodesEPN4llvm6SDNodeE
0000000100392400 t __ZN12_GLOBAL__N_111DAGCombiner28scalarizeExtractedVectorLoadEPN4llvm6SDNodeENS1_3EVTENS1_7SDValueEPNS1_10LoadSDNodeE
0000000100383c10 t __ZN12_GLOBAL__N_111DAGCombiner29CombineToPostIndexedLoadStoreEPN4llvm6SDNodeE
000000010038e6a0 t __ZN12_GLOBAL__N_111DAGCombiner31MergeStoresOfConstantsOrVecEltsERN4llvm15SmallVectorImplINS0_9MemOpLinkEEENS1_3EVTEjbbb
000000010036c980 t __ZN12_GLOBAL__N_111DAGCombiner31hoistLogicOpWithSameOpcodeHandsEPN4llvm6SDNodeE
000000010037cab0 t __ZN12_GLOBAL__N_111DAGCombiner33ConstantFoldBITCASTofBUILD_VECTOREPN4llvm6SDNodeENS1_3EVTE
000000010038e380 t __ZN12_GLOBAL__N_111DAGCombiner40checkMergeStoreCandidatesForDependenciesERN4llvm15SmallVectorImplINS0_9MemOpLinkEEEjPNS1_6SDNodeE
000000010030fa60 t __ZN12_GLOBAL__N_111DAGCombiner5visitEPN4llvm6SDNodeE
000000010030e690 t __ZN12_GLOBAL__N_111DAGCombiner7combineEPN4llvm6SDNodeE
0000000100342c80 t __ZN12_GLOBAL__N_111DAGCombiner8visitANDEPN4llvm6SDNodeE
0000000100348590 t __ZN12_GLOBAL__N_111DAGCombiner8visitSHLEPN4llvm6SDNodeE
00000001003464d0 t __ZN12_GLOBAL__N_111DAGCombiner8visitXOREPN4llvm6SDNodeE
000000010030cd00 t __ZN12_GLOBAL__N_111DAGCombiner9CombineToEPN4llvm6SDNodeEPKNS1_7SDValueEjb
0000000100368d10 t __ZN12_GLOBAL__N_111DAGCombiner9useDivRemEPN4llvm6SDNodeE
0000000100353880 t __ZN12_GLOBAL__N_111DAGCombiner9visitFADDEPN4llvm6SDNodeE
00000001003562b0 t __ZN12_GLOBAL__N_111DAGCombiner9visitLOADEPN4llvm6SDNodeE
0000000100eeb1b0 t __ZN12_GLOBAL__N_111DumpVisitor14CtorArgPrinterclI10StringViewJPKN4llvm16itanium_demangle4NodeES3_EEEvT_DpT0_
0000000100eeb2d0 t __ZN12_GLOBAL__N_111DumpVisitor14CtorArgPrinterclI10StringViewJPKN4llvm16itanium_demangle4NodeES8_EEEvT_DpT0_
0000000100eeaed0 t __ZN12_GLOBAL__N_111DumpVisitor14CtorArgPrinterclIN4llvm16itanium_demangle14SpecialSubKindEJEEEvT_DpT0_
0000000100eeb450 t __ZN12_GLOBAL__N_111DumpVisitor14CtorArgPrinterclIN4llvm16itanium_demangle9NodeArrayEJPNS4_4NodeES5_bbEEEvT_DpT0_
0000000100eeb7d0 t __ZN12_GLOBAL__N_111DumpVisitor14CtorArgPrinterclIPKN4llvm16itanium_demangle4NodeEJS7_bEEEvT_DpT0_
0000000100eeafd0 t __ZN12_GLOBAL__N_111DumpVisitor14CtorArgPrinterclIPKN4llvm16itanium_demangle4NodeEJbiEEEvT_DpT0_
0000000100eeb710 t __ZN12_GLOBAL__N_111DumpVisitor14CtorArgPrinterclIPN4llvm16itanium_demangle4NodeEJbbEEEvT_DpT0_
0000000100eea9d0 t __ZN12_GLOBAL__N_111DumpVisitor14printWithCommaI10StringViewEEvT_
0000000100eeaa80 t __ZN12_GLOBAL__N_111DumpVisitor14printWithCommaIN4llvm16itanium_demangle10QualifiersEEEvT_
0000000100eead00 t __ZN12_GLOBAL__N_111DumpVisitor14printWithCommaIN4llvm16itanium_demangle15FunctionRefQualEEEvT_
0000000100eea930 t __ZN12_GLOBAL__N_111DumpVisitor14printWithCommaIPKN4llvm16itanium_demangle4NodeEEEvT_
0000000100eeac00 t __ZN12_GLOBAL__N_111DumpVisitor14printWithCommaIPN4llvm16itanium_demangle4NodeEEEvT_
0000000100eeb100 t __ZN12_GLOBAL__N_111DumpVisitor14printWithCommaIbEEvT_
0000000100eeaca0 t __ZN12_GLOBAL__N_111DumpVisitor5printEN4llvm16itanium_demangle12NodeOrStringE
0000000100eeadf0 t __ZN12_GLOBAL__N_111DumpVisitorclEPKN4llvm16itanium_demangle24ForwardTemplateReferenceE
0000000100ac7680 t __ZN12_GLOBAL__N_111FoldBitCastEPN4llvm8ConstantEPNS0_4TypeERKNS0_10DataLayoutE
0000000100e97960 t __ZN12_GLOBAL__N_111HelpPrinter12printOptionsERN4llvm11SmallVectorINSt3__14pairIPKcPNS1_2cl6OptionEEELj128EEEm
0000000100e953a0 t __ZN12_GLOBAL__N_111HelpPrinter9printHelpEv
0000000100e979f0 t __ZN12_GLOBAL__N_111HelpPrinterD0Ev
0000000100e952c0 t __ZN12_GLOBAL__N_111HelpPrinterD1Ev
0000000100531ea0 t __ZN12_GLOBAL__N_111ISelUpdater11NodeDeletedEPN4llvm6SDNodeES3_
0000000100531e50 t __ZN12_GLOBAL__N_111ISelUpdaterD0Ev
0000000100525500 t __ZN12_GLOBAL__N_111ISelUpdaterD1Ev
0000000100714ac0 t __ZN12_GLOBAL__N_111IfConverter11MergeBlocksERNS0_6BBInfoES2_b
0000000100711e30 t __ZN12_GLOBAL__N_111IfConverter13IfcvtTokenCmpERKNSt3__110unique_ptrINS0_10IfcvtTokenENS1_14default_deleteIS3_EEEES8_
00000001007146a0 t __ZN12_GLOBAL__N_111IfConverter14PredicateBlockERNS0_6BBInfoEN4llvm26MachineInstrBundleIteratorINS3_12MachineInstrELb0EEERNS3_15SmallVectorImplINS3_14MachineOperandEEEPNS3_8SmallSetItLj4ENSt3__14lessItEEEE
0000000100712560 t __ZN12_GLOBAL__N_111IfConverter19FeasibilityAnalysisERNS0_6BBInfoERN4llvm15SmallVectorImplINS3_14MachineOperandEEEbbb
000000010070c8b0 t __ZN12_GLOBAL__N_111IfConverter20runOnMachineFunctionERN4llvm15MachineFunctionE
0000000100714130 t __ZN12_GLOBAL__N_111IfConverter21CopyAndPredicateBlockERNS0_6BBInfoES2_RN4llvm15SmallVectorImplINS3_14MachineOperandEEEb
0000000100716190 t __ZN12_GLOBAL__N_111IfConverter22IfConvertDiamondCommonERNS0_6BBInfoES2_S2_jjbbbb
0000000101597f28 b __ZN12_GLOBAL__N_111IfConverter2IDE
000000010070c4f0 t __ZN12_GLOBAL__N_111IfConverterC1ENSt3__18functionIFbRKN4llvm15MachineFunctionEEEE
000000010070c850 t __ZN12_GLOBAL__N_111IfConverterD0Ev
000000010070c730 t __ZN12_GLOBAL__N_111IfConverterD1Ev
0000000100089c40 t __ZN12_GLOBAL__N_111InstrIgnoreD0Ev
0000000100089c30 t __ZN12_GLOBAL__N_111InstrIgnoreD1Ev
00000001009e9e90 t __ZN12_GLOBAL__N_111LSRInstance13InsertFormulaERNS_6LSRUseEjRKNS_7FormulaE
00000001009e4e50 t __ZN12_GLOBAL__N_111LSRInstance16ChainInstructionEPN4llvm11InstructionES3_RNS1_15SmallVectorImplINS_10ChainUsersEEE
00000001009d9070 t __ZN12_GLOBAL__N_111LSRInstance24GenerateAllReuseFormulaeEv
00000001009eba10 t __ZN12_GLOBAL__N_111LSRInstance26GenerateReassociationsImplERNS_6LSRUseEjRKNS_7FormulaEjmb
00000001009ed2e0 t __ZN12_GLOBAL__N_111LSRInstance27GenerateConstantOffsetsImplERNS_6LSRUseEjRKNS_7FormulaERKN4llvm15SmallVectorImplIxEEmb
00000001009ed110 t __ZN12_GLOBAL__N_111LSRInstance27GenerateSymbolicOffsetsImplERNS_6LSRUseEjRKNS_7FormulaEmb
00000001009de490 t __ZN12_GLOBAL__N_111LSRInstance32NarrowSearchSpaceUsingHeuristicsEv
00000001009dd0a0 t __ZN12_GLOBAL__N_111LSRInstance38FilterOutUndesirableDedicatedRegistersEv
00000001009e78b0 t __ZN12_GLOBAL__N_111LSRInstance6getUseERPKN4llvm4SCEVENS_6LSRUse8KindTypeENS_11MemAccessTyE
00000001009d0ec0 t __ZN12_GLOBAL__N_111LSRInstanceC2EPN4llvm4LoopERNS1_7IVUsersERNS1_15ScalarEvolutionERNS1_13DominatorTreeERNS1_8LoopInfoERKNS1_19TargetTransformInfoE
00000001007850e0 t __ZN12_GLOBAL__N_111LowerEmuTLS11runOnModuleERN4llvm6ModuleE
00000001015985e0 b __ZN12_GLOBAL__N_111LowerEmuTLS2IDE
00000001007850c0 t __ZN12_GLOBAL__N_111LowerEmuTLSD0Ev
00000001007850b0 t __ZN12_GLOBAL__N_111LowerEmuTLSD1Ev
0000000101599ba8 b __ZN12_GLOBAL__N_111MachineLICM2IDE
00000001007d4ab0 t __ZN12_GLOBAL__N_111MachineLICMD0Ev
00000001007d4aa0 t __ZN12_GLOBAL__N_111MachineLICMD1Ev
0000000100889a60 t __ZN12_GLOBAL__N_111MacroFusion20scheduleAdjacentImplERN4llvm13ScheduleDAGMIERNS1_5SUnitE
00000001008899c0 t __ZN12_GLOBAL__N_111MacroFusion5applyEPN4llvm17ScheduleDAGInstrsE
0000000100889970 t __ZN12_GLOBAL__N_111MacroFusionD0Ev
0000000100889930 t __ZN12_GLOBAL__N_111MacroFusionD1Ev
00000001015a6ce8 b __ZN12_GLOBAL__N_111PassRemarksE
00000001000b7ec0 t __ZN12_GLOBAL__N_111X86FastISel10fastEmit_iEN4llvm3MVTES2_jy
000000010009aa30 t __ZN12_GLOBAL__N_111X86FastISel10fastEmit_rEN4llvm3MVTES2_jjb
00000001000b3c60 t __ZN12_GLOBAL__N_111X86FastISel11fastEmit_riEN4llvm3MVTES2_jjby
00000001000a4810 t __ZN12_GLOBAL__N_111X86FastISel11fastEmit_rrEN4llvm3MVTES2_jjbjb
00000001000ba820 t __ZN12_GLOBAL__N_111X86FastISel13X86SelectZExtEPKN4llvm11InstructionE
0000000100095b80 t __ZN12_GLOBAL__N_111X86FastISel13fastLowerCallERN4llvm8FastISel16CallLoweringInfoE
00000001000bad40 t __ZN12_GLOBAL__N_111X86FastISel14X86SelectTruncEPKN4llvm11InstructionE
00000001000ba650 t __ZN12_GLOBAL__N_111X86FastISel14addFullAddressERKN4llvm19MachineInstrBuilderERNS1_14X86AddressModeE
00000001000baea0 t __ZN12_GLOBAL__N_111X86FastISel15X86FastEmitLoadEN4llvm3EVTERNS1_14X86AddressModeEPNS1_17MachineMemOperandERjj
00000001000bb6a0 t __ZN12_GLOBAL__N_111X86FastISel16X86FastEmitStoreEN4llvm3EVTEPKNS1_5ValueERNS1_14X86AddressModeEPNS1_17MachineMemOperandEb
00000001000bb950 t __ZN12_GLOBAL__N_111X86FastISel16X86FastEmitStoreEN4llvm3EVTEjbRNS1_14X86AddressModeEPNS1_17MachineMemOperandEb
00000001000b8fc0 t __ZN12_GLOBAL__N_111X86FastISel16X86SelectAddressEPKN4llvm5ValueERNS1_14X86AddressModeE
00000001000c1b90 t __ZN12_GLOBAL__N_111X86FastISel16X86SelectIntToFPEPKN4llvm11InstructionEb
00000001000c4380 t __ZN12_GLOBAL__N_111X86FastISel18TryEmitSmallMemcpyEN4llvm14X86AddressModeES2_y
00000001000c12c0 t __ZN12_GLOBAL__N_111X86FastISel18X86FastEmitCompareEPKN4llvm5ValueES4_NS1_3EVTERKNS1_8DebugLocE
00000001000956e0 t __ZN12_GLOBAL__N_111X86FastISel18fastLowerArgumentsEv
000000010008fb10 t __ZN12_GLOBAL__N_111X86FastISel19tryToFoldLoadIntoMIEPN4llvm12MachineInstrEjPKNS1_8LoadInstE
00000001000c16a0 t __ZN12_GLOBAL__N_111X86FastISel20foldX86XALUIntrinsicERN4llvm3X868CondCodeEPKNS1_11InstructionEPKNS1_5ValueE
00000001000b8b30 t __ZN12_GLOBAL__N_111X86FastISel21fastMaterializeAllocaEPKN4llvm10AllocaInstE
000000010008fde0 t __ZN12_GLOBAL__N_111X86FastISel21fastSelectInstructionEPKN4llvm11InstructionE
00000001000982b0 t __ZN12_GLOBAL__N_111X86FastISel22fastLowerIntrinsicCallEPKN4llvm13IntrinsicInstE
00000001000c18d0 t __ZN12_GLOBAL__N_111X86FastISel23X86SelectFPExtOrFPTruncEPKN4llvm11InstructionEjPKNS1_19TargetRegisterClassE
00000001000b7f10 t __ZN12_GLOBAL__N_111X86FastISel23fastMaterializeConstantEPKN4llvm8ConstantE
00000001000ba100 t __ZN12_GLOBAL__N_111X86FastISel23handleConstantAddressesEPKN4llvm5ValueERNS1_14X86AddressModeE
00000001000b8dd0 t __ZN12_GLOBAL__N_111X86FastISel24fastMaterializeFloatZeroEPKN4llvm10ConstantFPE
000000010008faf0 t __ZN12_GLOBAL__N_111X86FastISelD0Ev
000000010008fae0 t __ZN12_GLOBAL__N_111X86FastISelD1Ev
00000001006a0780 t __ZN12_GLOBAL__N_112AtomicExpand13runOnFunctionERN4llvm8FunctionE
00000001006a4690 t __ZN12_GLOBAL__N_112AtomicExpand18tryExpandAtomicRMWEPN4llvm13AtomicRMWInstE
00000001006a4390 t __ZN12_GLOBAL__N_112AtomicExpand19tryExpandAtomicLoadEPN4llvm8LoadInstE
00000001006a6100 t __ZN12_GLOBAL__N_112AtomicExpand20expandAtomicOpToLLSCEPN4llvm11InstructionEPNS1_4TypeEPNS1_5ValueENS1_14AtomicOrderingENS1_12function_refIFS7_RNS1_9IRBuilderINS1_14ConstantFolderENS1_24IRBuilderDefaultInserterEEES7_EEE
00000001006a03a0 t __ZN12_GLOBAL__N_112AtomicExpand20insertRMWCmpXchgLoopERN4llvm9IRBuilderINS1_14ConstantFolderENS1_24IRBuilderDefaultInserterEEEPNS1_4TypeEPNS1_5ValueENS1_14AtomicOrderingENS1_12function_refIFSA_S6_SA_EEENSC_IFvS6_SA_SA_SA_SB_RSA_SF_EEE
00000001006a4cf0 t __ZN12_GLOBAL__N_112AtomicExpand23expandAtomicOpToLibcallEPN4llvm11InstructionEjjPNS1_5ValueES5_S5_NS1_14AtomicOrderingES6_NS1_8ArrayRefINS1_5RTLIB7LibcallEEE
00000001006a42b0 t __ZN12_GLOBAL__N_112AtomicExpand24expandAtomicCASToLibcallEPN4llvm17AtomicCmpXchgInstE
0000000101595938 b __ZN12_GLOBAL__N_112AtomicExpand2IDE
00000001006a0760 t __ZN12_GLOBAL__N_112AtomicExpandD0Ev
00000001006a0750 t __ZN12_GLOBAL__N_112AtomicExpandD1Ev
0000000100adaf20 t __ZN12_GLOBAL__N_112CallAnalyzer4dumpEv
0000000100892f60 t __ZN12_GLOBAL__N_112CopyRewriter20RewriteCurrentSourceEjj
0000000100892eb0 t __ZN12_GLOBAL__N_112CopyRewriter23getNextRewritableSourceERN4llvm15TargetInstrInfo13RegSubRegPairES4_
0000000100892ea0 t __ZN12_GLOBAL__N_112CopyRewriterD0Ev
0000000100892e90 t __ZN12_GLOBAL__N_112CopyRewriterD1Ev
0000000100c2e3e0 t __ZN12_GLOBAL__N_112ELFAsmParser10InitializeERN4llvm11MCAsmParserE
0000000100c2e760 t __ZN12_GLOBAL__N_112ELFAsmParser18ParseSectionSwitchEN4llvm9StringRefEjjNS1_11SectionKindE
0000000100c2e9f0 t __ZN12_GLOBAL__N_112ELFAsmParser21ParseSectionArgumentsEbN4llvm5SMLocE
0000000100c2e3c0 t __ZN12_GLOBAL__N_112ELFAsmParserD0Ev
0000000100c2e3b0 t __ZN12_GLOBAL__N_112ELFAsmParserD1Ev
00000001007049f0 t __ZN12_GLOBAL__N_112ExpandPostRA20runOnMachineFunctionERN4llvm15MachineFunctionE
0000000101597138 b __ZN12_GLOBAL__N_112ExpandPostRA2IDE
00000001007048d0 t __ZN12_GLOBAL__N_112ExpandPostRAD0Ev
0000000100704890 t __ZN12_GLOBAL__N_112ExpandPostRAD1Ev
00000001000ced20 t __ZN12_GLOBAL__N_112FixupLEAPass12seekLEAFixupERN4llvm14MachineOperandERNS1_26MachineInstrBundleIteratorINS1_12MachineInstrELb0EEENS1_14ilist_iteratorINS1_12ilist_detail12node_optionsINS1_17MachineBasicBlockELb1ELb0EvEELb0ELb0EEE
00000001000cea10 t __ZN12_GLOBAL__N_112FixupLEAPass18processInstructionERN4llvm26MachineInstrBundleIteratorINS1_12MachineInstrELb0EEENS1_14ilist_iteratorINS1_12ilist_detail12node_optionsINS1_17MachineBasicBlockELb1ELb0EvEELb0ELb0EEE
00000001000ccf10 t __ZN12_GLOBAL__N_112FixupLEAPass20runOnMachineFunctionERN4llvm15MachineFunctionE
0000000101590578 b __ZN12_GLOBAL__N_112FixupLEAPass2IDE
00000001000cce80 t __ZN12_GLOBAL__N_112FixupLEAPassD0Ev
00000001000cce10 t __ZN12_GLOBAL__N_112FixupLEAPassD1Ev
0000000100ea4a10 t __ZN12_GLOBAL__N_112GraphSession14TryFindProgramEN4llvm9StringRefERNSt3__112basic_stringIcNS3_11char_traitsIcEENS3_9allocatorIcEEEE
00000001008482c0 t __ZN12_GLOBAL__N_112ILPScheduler10initializeEPN4llvm13ScheduleDAGMIE
00000001008487e0 t __ZN12_GLOBAL__N_112ILPScheduler12scheduleTreeEj
0000000100848330 t __ZN12_GLOBAL__N_112ILPScheduler13registerRootsEv
00000001008488a0 t __ZN12_GLOBAL__N_112ILPScheduler14releaseTopNodeEPN4llvm5SUnitE
00000001008488b0 t __ZN12_GLOBAL__N_112ILPScheduler17releaseBottomNodeEPN4llvm5SUnitE
00000001008483c0 t __ZN12_GLOBAL__N_112ILPScheduler8pickNodeERb
0000000100848870 t __ZN12_GLOBAL__N_112ILPScheduler9schedNodeEPN4llvm5SUnitEb
0000000100848280 t __ZN12_GLOBAL__N_112ILPSchedulerD0Ev
0000000100848250 t __ZN12_GLOBAL__N_112ILPSchedulerD1Ev
00000001008d24e0 t __ZN12_GLOBAL__N_112Interference14lowestEndPointERKNSt3__15tupleIJPN4llvm12LiveIntervalEmjEEES8_
00000001008d25a0 t __ZN12_GLOBAL__N_112Interference16lowestStartPointERKNSt3__15tupleIJPN4llvm12LiveIntervalEmjEEES8_
00000001008d14f0 t __ZN12_GLOBAL__N_112Interference5applyERN4llvm4PBQP8RegAlloc11PBQPRAGraphE
00000001008d14e0 t __ZN12_GLOBAL__N_112InterferenceD0Ev
00000001008d14d0 t __ZN12_GLOBAL__N_112InterferenceD1Ev
0000000101595770 b __ZN12_GLOBAL__N_112JITDebugLockE
0000000100267af0 t __ZN12_GLOBAL__N_112LDTLSCleanup20runOnMachineFunctionERN4llvm15MachineFunctionE
00000001015910c1 b __ZN12_GLOBAL__N_112LDTLSCleanup2IDE
0000000100267c70 t __ZN12_GLOBAL__N_112LDTLSCleanup9VisitNodeEPN4llvm15DomTreeNodeBaseINS1_17MachineBasicBlockEEEj
0000000100267a40 t __ZN12_GLOBAL__N_112LDTLSCleanupD0Ev
0000000100267a00 t __ZN12_GLOBAL__N_112LDTLSCleanupD1Ev
0000000100a3a330 t __ZN12_GLOBAL__N_112LoopSimplify13runOnFunctionERN4llvm8FunctionE
00000001015a29d8 b __ZN12_GLOBAL__N_112LoopSimplify2IDE
0000000100a39fd0 t __ZN12_GLOBAL__N_112LoopSimplifyD0Ev
0000000100a39fc0 t __ZN12_GLOBAL__N_112LoopSimplifyD1Ev
0000000100a72450 t __ZN12_GLOBAL__N_112MDNodeMapper13visitOperandsERNS0_12UniquedGraphERPKN4llvm9MDOperandES6_Rb
0000000100a71b40 t __ZN12_GLOBAL__N_112MDNodeMapper15mapDistinctNodeERKN4llvm6MDNodeE
0000000100a72d60 t __ZN12_GLOBAL__N_112MDNodeMapper15tryToMapOperandEPKN4llvm8MetadataE
0000000100a70b90 t __ZN12_GLOBAL__N_112MDNodeMapper22mapTopLevelUniquedNodeERKN4llvm6MDNodeE
00000001010b2b50 s __ZN12_GLOBAL__N_112OpPrecedenceE
000000010088b390 t __ZN12_GLOBAL__N_112OptimizePHIs14IsDeadPHICycleEPN4llvm12MachineInstrERNS1_11SmallPtrSetIS3_Lj16EEE
000000010088aa80 t __ZN12_GLOBAL__N_112OptimizePHIs20runOnMachineFunctionERN4llvm15MachineFunctionE
000000010088b0f0 t __ZN12_GLOBAL__N_112OptimizePHIs21IsSingleValuePHICycleEPN4llvm12MachineInstrERjRNS1_11SmallPtrSetIS3_Lj16EEE
000000010159b5f8 b __ZN12_GLOBAL__N_112OptimizePHIs2IDE
000000010088aa00 t __ZN12_GLOBAL__N_112OptimizePHIsD0Ev
000000010088a9c0 t __ZN12_GLOBAL__N_112OptimizePHIsD1Ev
0000000100280c50 t __ZN12_GLOBAL__N_112PadShortFunc11findReturnsEPN4llvm17MachineBasicBlockEj
00000001002802f0 t __ZN12_GLOBAL__N_112PadShortFunc20runOnMachineFunctionERN4llvm15MachineFunctionE
0000000101591199 b __ZN12_GLOBAL__N_112PadShortFunc2IDE
0000000100280240 t __ZN12_GLOBAL__N_112PadShortFuncD0Ev
00000001002801b0 t __ZN12_GLOBAL__N_112PadShortFuncD1Ev
00000001008b2050 t __ZN12_GLOBAL__N_112RegAllocFast10setPhysRegERN4llvm12MachineInstrERNS1_14MachineOperandEt
00000001008b1f70 t __ZN12_GLOBAL__N_112RegAllocFast11addKillFlagERKNS0_7LiveRegE
00000001008b3290 t __ZN12_GLOBAL__N_112RegAllocFast12allocVirtRegERN4llvm12MachineInstrERNS0_7LiveRegEj
00000001008b11e0 t __ZN12_GLOBAL__N_112RegAllocFast12spillVirtRegEN4llvm26MachineInstrBundleIteratorINS1_12MachineInstrELb0EEERNS0_7LiveRegE
00000001008b1110 t __ZN12_GLOBAL__N_112RegAllocFast12spillVirtRegEN4llvm26MachineInstrBundleIteratorINS1_12MachineInstrELb0EEEj
00000001008b0e30 t __ZN12_GLOBAL__N_112RegAllocFast13definePhysRegEN4llvm26MachineInstrBundleIteratorINS1_12MachineInstrELb0EEEtNS0_8RegStateE
00000001008b2de0 t __ZN12_GLOBAL__N_112RegAllocFast13defineVirtRegERN4llvm12MachineInstrEjjj
00000001008b21e0 t __ZN12_GLOBAL__N_112RegAllocFast13reloadVirtRegERN4llvm12MachineInstrEjjj
00000001008ada50 t __ZN12_GLOBAL__N_112RegAllocFast18allocateBasicBlockERN4llvm17MachineBasicBlockE
00000001008b43d0 t __ZN12_GLOBAL__N_112RegAllocFast19assignVirtToPhysRegERNS0_7LiveRegEt
00000001008ad3e0 t __ZN12_GLOBAL__N_112RegAllocFast20runOnMachineFunctionERN4llvm15MachineFunctionE
000000010159c268 b __ZN12_GLOBAL__N_112RegAllocFast2IDE
00000001008ad370 t __ZN12_GLOBAL__N_112RegAllocFastD0Ev
00000001008ad180 t __ZN12_GLOBAL__N_112RegAllocFastD1Ev
00000001008cd500 t __ZN12_GLOBAL__N_112RegAllocPBQP20runOnMachineFunctionERN4llvm15MachineFunctionE
000000010159ccc0 b __ZN12_GLOBAL__N_112RegAllocPBQP2IDE
00000001008d42c0 t __ZN12_GLOBAL__N_112RegAllocPBQP9spillVRegEjRN4llvm15SmallVectorImplIjEERNS1_15MachineFunctionERNS1_13LiveIntervalsERNS1_10VirtRegMapERNS1_7SpillerE
00000001008cd150 t __ZN12_GLOBAL__N_112RegAllocPBQPD0Ev
00000001008cd0c0 t __ZN12_GLOBAL__N_112RegAllocPBQPD1Ev
00000001015a9068 b __ZN12_GLOBAL__N_112SymbolsMutexE
0000000100cfb2e0 t __ZN12_GLOBAL__N_112TypePrinting15printStructBodyEPN4llvm10StructTypeERNS1_11raw_ostreamE
0000000100d0d9a0 t __ZN12_GLOBAL__N_112TypePrinting16incorporateTypesEv
0000000100cfa960 t __ZN12_GLOBAL__N_112TypePrinting5printEPN4llvm4TypeERNS1_11raw_ostreamE
00000001009b46b0 t __ZN12_GLOBAL__N_112WinEHPrepare13colorFuncletsERN4llvm8FunctionE
00000001009b0f30 t __ZN12_GLOBAL__N_112WinEHPrepare13runOnFunctionERN4llvm8FunctionE
00000001009b0f10 t __ZN12_GLOBAL__N_112WinEHPrepare14doFinalizationERN4llvm6ModuleE
00000001009b75e0 t __ZN12_GLOBAL__N_112WinEHPrepare14insertPHIStoreEPN4llvm10BasicBlockEPNS1_5ValueEPNS1_10AllocaInstERNS1_15SmallVectorImplINSt3__14pairIS3_S5_EEEE
00000001009b0fa0 t __ZN12_GLOBAL__N_112WinEHPrepare17prepareExplicitEHERN4llvm8FunctionE
00000001009b4ac0 t __ZN12_GLOBAL__N_112WinEHPrepare22verifyPreparedFuncletsERN4llvm8FunctionE
00000001015a1440 b __ZN12_GLOBAL__N_112WinEHPrepare2IDE
00000001009b0ed0 t __ZN12_GLOBAL__N_112WinEHPrepareD0Ev
00000001009b0de0 t __ZN12_GLOBAL__N_112WinEHPrepareD1Ev
000000010005a370 t __ZN12_GLOBAL__N_112X86AsmParser10SwitchModeEj
0000000100049cd0 t __ZN12_GLOBAL__N_112X86AsmParser13ParseRegisterERjRN4llvm5SMLocES4_
000000010004f620 t __ZN12_GLOBAL__N_112X86AsmParser14ParseDirectiveEN4llvm8AsmTokenE
0000000100059ca0 t __ZN12_GLOBAL__N_112X86AsmParser15InfixCalculator12pushOperatorENS0_18InfixCalculatorTokE
000000010004a140 t __ZN12_GLOBAL__N_112X86AsmParser16ParseInstructionERN4llvm20ParseInstructionInfoENS1_9StringRefENS1_5SMLocERNS1_15SmallVectorImplINSt3__110unique_ptrINS1_18MCParsedAsmOperandENS7_14default_deleteIS9_EEEEEE
000000010004a130 t __ZN12_GLOBAL__N_112X86AsmParser16SetFrameRegisterEj
0000000100049bc0 t __ZN12_GLOBAL__N_112X86AsmParser16parsePrimaryExprERPKN4llvm6MCExprERNS1_5SMLocE
000000010005a4f0 t __ZN12_GLOBAL__N_112X86AsmParser17MatchFPUWaitAliasEN4llvm5SMLocERNS1_10X86OperandERNS1_15SmallVectorImplINSt3__110unique_ptrINS1_18MCParsedAsmOperandENS6_14default_deleteIS8_EEEEEERNS1_10MCStreamerEb
0000000100054e50 t __ZN12_GLOBAL__N_112X86AsmParser17ParseIntelOperandEv
0000000100053950 t __ZN12_GLOBAL__N_112X86AsmParser19DefaultMemDIOperandEN4llvm5SMLocE
0000000100054250 t __ZN12_GLOBAL__N_112X86AsmParser19DefaultMemSIOperandEN4llvm5SMLocE
000000010005ace0 t __ZN12_GLOBAL__N_112X86AsmParser19ErrorMissingFeatureEN4llvm5SMLocEyb
0000000100057d50 t __ZN12_GLOBAL__N_112X86AsmParser19ParseRoundingModeOpEN4llvm5SMLocE
000000010005a7a0 t __ZN12_GLOBAL__N_112X86AsmParser19validateInstructionERN4llvm6MCInstERKNS1_15SmallVectorImplINSt3__110unique_ptrINS1_18MCParsedAsmOperandENS5_14default_deleteIS7_EEEEEE
000000010005b000 t __ZN12_GLOBAL__N_112X86AsmParser20MatchInstructionImplERKN4llvm15SmallVectorImplINSt3__110unique_ptrINS1_18MCParsedAsmOperandENS3_14default_deleteIS5_EEEEEERNS1_6MCInstERybj
00000001000599e0 t __ZN12_GLOBAL__N_112X86AsmParser21IntelExprStateMachine16onIdentifierExprEPKN4llvm6MCExprENS2_9StringRefERKNS2_23InlineAsmIdentifierInfoEbRS6_
00000001000581f0 t __ZN12_GLOBAL__N_112X86AsmParser21IntelExprStateMachine6getImmEv
0000000100059b70 t __ZN12_GLOBAL__N_112X86AsmParser21IntelExprStateMachine9onIntegerExRN4llvm9StringRefE
0000000100059800 t __ZN12_GLOBAL__N_112X86AsmParser21ParseIntelDotOperatorERNS0_21IntelExprStateMachineERN4llvm5SMLocE
00000001000501a0 t __ZN12_GLOBAL__N_112X86AsmParser23MatchAndEmitInstructionEN4llvm5SMLocERjRNS1_15SmallVectorImplINSt3__110unique_ptrINS1_18MCParsedAsmOperandENS5_14default_deleteIS7_EEEEEERNS1_10MCStreamerERyb
0000000100053af0 t __ZN12_GLOBAL__N_112X86AsmParser23VerifyAndAdjustOperandsERN4llvm15SmallVectorImplINSt3__110unique_ptrINS1_18MCParsedAsmOperandENS3_14default_deleteIS5_EEEEEESA_
0000000100053820 t __ZN12_GLOBAL__N_112X86AsmParser25AddDefaultSrcDestOperandsERN4llvm15SmallVectorImplINSt3__110unique_ptrINS1_18MCParsedAsmOperandENS3_14default_deleteIS5_EEEEEEOS8_SB_
0000000100052040 t __ZN12_GLOBAL__N_112X86AsmParser26convertToMapAndConstraintsEjRKN4llvm15SmallVectorImplINSt3__110unique_ptrINS1_18MCParsedAsmOperandENS3_14default_deleteIS5_EEEEEE
0000000100051fd0 t __ZN12_GLOBAL__N_112X86AsmParser28OmitRegisterFromClobberListsEj
0000000100058ed0 t __ZN12_GLOBAL__N_112X86AsmParser29ParseIntelInlineAsmIdentifierERPKN4llvm6MCExprERNS1_9StringRefERNS1_23InlineAsmIdentifierInfoEbRNS1_5SMLocE
0000000100057c90 t __ZN12_GLOBAL__N_112X86AsmParser30IdentifyIntelInlineAsmOperatorEN4llvm9StringRefE
0000000100059e90 t __ZN12_GLOBAL__N_112X86AsmParser6ParseZERNSt3__110unique_ptrIN4llvm10X86OperandENS1_14default_deleteIS4_EEEERKNS3_5SMLocE
0000000100049b70 t __ZN12_GLOBAL__N_112X86AsmParserD0Ev
0000000100049b30 t __ZN12_GLOBAL__N_112X86AsmParserD1Ev
00000001009fa0a0 t __ZN12_GLOBAL__N_112enqueueBlockERNSt3__16vectorINS_11BCECmpBlockENS0_9allocatorIS2_EEEERS2_
0000000100ee1130 t __ZN12_GLOBAL__N_112filename_posEN4llvm9StringRefENS0_3sys4path5StyleE
000000010045ba60 t __ZN12_GLOBAL__N_112popFromQueueINS_13bu_ls_rr_sortEEEPN4llvm5SUnitERNSt3__16vectorIS4_NS5_9allocatorIS4_EEEERT_PNS2_11ScheduleDAGE
0000000100cd6710 t __ZN12_GLOBAL__N_113BitcodeReader11getTypeByIDEj
0000000100cc88e0 t __ZN12_GLOBAL__N_113BitcodeReader11materializeEPN4llvm11GlobalValueE
0000000100cd91c0 t __ZN12_GLOBAL__N_113BitcodeReader11parseModuleEyb
0000000100cd79a0 t __ZN12_GLOBAL__N_113BitcodeReader11recordValueERN4llvm15SmallVectorImplIyEEjRNS1_6TripleE
0000000100cde950 t __ZN12_GLOBAL__N_113BitcodeReader13globalCleanupEv
0000000100cdfd60 t __ZN12_GLOBAL__N_113BitcodeReader13parseAttrKindEyPN4llvm9Attribute8AttrKindE
0000000100cd5e90 t __ZN12_GLOBAL__N_113BitcodeReader13parseUseListsEv
0000000100cd21d0 t __ZN12_GLOBAL__N_113BitcodeReader14parseConstantsEv
0000000100cd65e0 t __ZN12_GLOBAL__N_113BitcodeReader16getValueTypePairERN4llvm15SmallVectorImplIyEERjjRPNS1_5ValueE
0000000100cc94c0 t __ZN12_GLOBAL__N_113BitcodeReader17materializeModuleEv
0000000100cc9f20 t __ZN12_GLOBAL__N_113BitcodeReader17parseFunctionBodyEPN4llvm8FunctionE
0000000100cc9d80 t __ZN12_GLOBAL__N_113BitcodeReader17setStripDebugInfoEv
0000000100cc9b60 t __ZN12_GLOBAL__N_113BitcodeReader19materializeMetadataEv
0000000100cd5320 t __ZN12_GLOBAL__N_113BitcodeReader21parseValueSymbolTableEy
0000000100cd6b00 t __ZN12_GLOBAL__N_113BitcodeReader22typeCheckLoadStoreInstEPN4llvm4TypeES3_
0000000100cd1920 t __ZN12_GLOBAL__N_113BitcodeReader27rememberAndSkipFunctionBodyEv
0000000100cdedf0 t __ZN12_GLOBAL__N_113BitcodeReader35resolveGlobalAndIndirectSymbolInitsEv
0000000100cc70e0 t __ZN12_GLOBAL__N_113BitcodeReader37materializeForwardReferencedFunctionsEv
0000000100cd6890 t __ZN12_GLOBAL__N_113BitcodeReader8getValueERN4llvm15SmallVectorImplIyEEjjPNS1_4TypeE
0000000100cc88c0 t __ZN12_GLOBAL__N_113BitcodeReaderD0Ev
0000000100cc82e0 t __ZN12_GLOBAL__N_113BitcodeReaderD1Ev
0000000100abcdc0 t __ZN12_GLOBAL__N_113CGPassManager11runOnModuleERN4llvm6ModuleE
0000000100abe9f0 t __ZN12_GLOBAL__N_113CGPassManager16RefreshCallGraphERKN4llvm12CallGraphSCCERNS1_9CallGraphEb
0000000100abccb0 t __ZN12_GLOBAL__N_113CGPassManager17dumpPassStructureEj
0000000100abcca0 t __ZN12_GLOBAL__N_113CGPassManager18getAsPMDataManagerEv
00000001015a3b08 b __ZN12_GLOBAL__N_113CGPassManager2IDE
0000000100abdc00 t __ZN12_GLOBAL__N_113CGPassManager9getAsPassEv
0000000100abcc20 t __ZN12_GLOBAL__N_113CGPassManagerD0Ev
0000000100abcc00 t __ZN12_GLOBAL__N_113CGPassManagerD1Ev
0000000100c26ef0 t __ZN12_GLOBAL__N_113COFFAsmParser10InitializeERN4llvm11MCAsmParserE
0000000100c27b10 t __ZN12_GLOBAL__N_113COFFAsmParser15parseCOMDATTypeERN4llvm4COFF10COMDATTypeE
0000000100c272d0 t __ZN12_GLOBAL__N_113COFFAsmParser18ParseSectionSwitchEN4llvm9StringRefEjNS1_11SectionKindES2_NS1_4COFF10COMDATTypeE
0000000100c28ce0 t __ZN12_GLOBAL__N_113COFFAsmParser22ParseSEHRegisterNumberERj
0000000100c28aa0 t __ZN12_GLOBAL__N_113COFFAsmParser23ParseAtUnwindOrAtExceptERbS1_
0000000100c26ed0 t __ZN12_GLOBAL__N_113COFFAsmParserD0Ev
0000000100c26ec0 t __ZN12_GLOBAL__N_113COFFAsmParserD1Ev
0000000100cab700 t __ZN12_GLOBAL__N_113CVTypeVisitor16finishVisitationERN4llvm8codeview8CVRecordINS2_12TypeLeafKindEEE
0000000100b21660 t __ZN12_GLOBAL__N_113ClobberWalker11addSearchesEPN4llvm9MemoryPhiERNS1_15SmallVectorImplIjEEj
0000000100b1d3c0 t __ZN12_GLOBAL__N_113ClobberWalker11findClobberEPN4llvm12MemoryAccessERNS_18UpwardsMemoryQueryE
0000000100849b00 t __ZN12_GLOBAL__N_113CopyConstrain5applyEPN4llvm17ScheduleDAGInstrsE
0000000100849af0 t __ZN12_GLOBAL__N_113CopyConstrainD0Ev
0000000100849ae0 t __ZN12_GLOBAL__N_113CopyConstrainD1Ev
0000000100680280 t __ZN12_GLOBAL__N_113DyldELFObjectIN4llvm6object7ELFTypeILNS1_7support10endiannessE0ELb0EEEED0Ev
0000000100680270 t __ZN12_GLOBAL__N_113DyldELFObjectIN4llvm6object7ELFTypeILNS1_7support10endiannessE0ELb0EEEED1Ev
0000000100684a00 t __ZN12_GLOBAL__N_113DyldELFObjectIN4llvm6object7ELFTypeILNS1_7support10endiannessE0ELb1EEEED0Ev
00000001006849f0 t __ZN12_GLOBAL__N_113DyldELFObjectIN4llvm6object7ELFTypeILNS1_7support10endiannessE0ELb1EEEED1Ev
000000010067b900 t __ZN12_GLOBAL__N_113DyldELFObjectIN4llvm6object7ELFTypeILNS1_7support10endiannessE1ELb0EEEED0Ev
000000010067b8f0 t __ZN12_GLOBAL__N_113DyldELFObjectIN4llvm6object7ELFTypeILNS1_7support10endiannessE1ELb0EEEED1Ev
0000000100688fd0 t __ZN12_GLOBAL__N_113DyldELFObjectIN4llvm6object7ELFTypeILNS1_7support10endiannessE1ELb1EEEED0Ev
0000000100688fc0 t __ZN12_GLOBAL__N_113DyldELFObjectIN4llvm6object7ELFTypeILNS1_7support10endiannessE1ELb1EEEED1Ev
00000001015a9478 b __ZN12_GLOBAL__N_113FilesToRemoveE
0000000100707b20 t __ZN12_GLOBAL__N_113FuncletLayout20runOnMachineFunctionERN4llvm15MachineFunctionE
0000000101597168 b __ZN12_GLOBAL__N_113FuncletLayout2IDE
0000000100707ad0 t __ZN12_GLOBAL__N_113FuncletLayoutD0Ev
0000000100707a90 t __ZN12_GLOBAL__N_113FuncletLayoutD1Ev
00000001006577c0 t __ZN12_GLOBAL__N_113GVMemoryBlock7deletedEv
0000000100721ee0 t __ZN12_GLOBAL__N_113InlineSpiller13markValueUsedEPN4llvm12LiveIntervalEPNS1_6VNInfoE
000000010071e6c0 t __ZN12_GLOBAL__N_113InlineSpiller16postOptimizationEv
0000000100722570 t __ZN12_GLOBAL__N_113InlineSpiller17foldMemoryOperandEN4llvm8ArrayRefINSt3__14pairIPNS1_12MachineInstrEjEEEES6_
0000000100724500 t __ZN12_GLOBAL__N_113InlineSpiller24eliminateRedundantSpillsERN4llvm12LiveIntervalEPNS1_6VNInfoE
000000010071c5c0 t __ZN12_GLOBAL__N_113InlineSpiller5spillERN4llvm13LiveRangeEditE
000000010071f9a0 t __ZN12_GLOBAL__N_113InlineSpiller8spillAllEv
000000010071c520 t __ZN12_GLOBAL__N_113InlineSpillerD0Ev
000000010071c490 t __ZN12_GLOBAL__N_113InlineSpillerD1Ev
000000010008a820 t __ZN12_GLOBAL__N_113InstrReplacerD0Ev
000000010008a810 t __ZN12_GLOBAL__N_113InstrReplacerD1Ev
0000000100c3d520 t __ZN12_GLOBAL__N_113MCAsmStreamer10AddCommentERKN4llvm5TwineEb
0000000100c46a60 t __ZN12_GLOBAL__N_113MCAsmStreamer10FinishImplEv
0000000100c459a0 t __ZN12_GLOBAL__N_113MCAsmStreamer11EmitAddrsigEv
0000000100c44420 t __ZN12_GLOBAL__N_113MCAsmStreamer11EmitCFILsdaEPKN4llvm8MCSymbolEj
0000000100c40010 t __ZN12_GLOBAL__N_113MCAsmStreamer11emitELFSizeEPN4llvm8MCSymbolEPKNS1_6MCExprE
0000000100c3e280 t __ZN12_GLOBAL__N_113MCAsmStreamer12AddBlankLineEv
0000000100c41480 t __ZN12_GLOBAL__N_113MCAsmStreamer12EmitIntValueEyj
0000000100c40800 t __ZN12_GLOBAL__N_113MCAsmStreamer12EmitZerofillEPN4llvm9MCSectionEPNS1_8MCSymbolEyjNS1_5SMLocE
0000000100c3d5d0 t __ZN12_GLOBAL__N_113MCAsmStreamer12GetCommentOSEv
0000000100c3e290 t __ZN12_GLOBAL__N_113MCAsmStreamer13ChangeSectionEPN4llvm9MCSectionEPKNS1_6MCExprE
0000000100c43fa0 t __ZN12_GLOBAL__N_113MCAsmStreamer13EmitCFIDefCfaExx
0000000100c44930 t __ZN12_GLOBAL__N_113MCAsmStreamer13EmitCFIEscapeEN4llvm9StringRefE
0000000100c44230 t __ZN12_GLOBAL__N_113MCAsmStreamer13EmitCFIOffsetExx
0000000100c43da0 t __ZN12_GLOBAL__N_113MCAsmStreamer13EmitCVFPODataEPKN4llvm8MCSymbolENS1_5SMLocE
0000000100c3ee60 t __ZN12_GLOBAL__N_113MCAsmStreamer13EmitThumbFuncEPN4llvm8MCSymbolE
0000000100c41120 t __ZN12_GLOBAL__N_113MCAsmStreamer13EmitValueImplEPKN4llvm6MCExprEjNS1_5SMLocE
0000000100c45a00 t __ZN12_GLOBAL__N_113MCAsmStreamer14EmitAddrsigSymEPKN4llvm8MCSymbolE
0000000100c3ef20 t __ZN12_GLOBAL__N_113MCAsmStreamer14EmitAssignmentEPN4llvm8MCSymbolEPKNS1_6MCExprE
0000000100c40f00 t __ZN12_GLOBAL__N_113MCAsmStreamer14EmitBinaryDataEN4llvm9StringRefE
0000000100c46930 t __ZN12_GLOBAL__N_113MCAsmStreamer14EmitBundleLockEb
0000000100c446b0 t __ZN12_GLOBAL__N_113MCAsmStreamer14EmitCFIRestoreEx
0000000100c3e870 t __ZN12_GLOBAL__N_113MCAsmStreamer14EmitDataRegionEN4llvm16MCDataRegionTypeE
0000000100c3fa00 t __ZN12_GLOBAL__N_113MCAsmStreamer14EmitSymbolDescEPN4llvm8MCSymbolEj
0000000100c40ad0 t __ZN12_GLOBAL__N_113MCAsmStreamer14EmitTBSSSymbolEPN4llvm9MCSectionEPNS1_8MCSymbolEyj
0000000100c3ea70 t __ZN12_GLOBAL__N_113MCAsmStreamer14EmitVersionMinEN4llvm16MCVersionMinTypeEjjjNS1_12VersionTupleE
0000000100c3d5f0 t __ZN12_GLOBAL__N_113MCAsmStreamer14emitRawCommentERKN4llvm5TwineEb
0000000100c44b80 t __ZN12_GLOBAL__N_113MCAsmStreamer15EmitCFIRegisterExx
0000000100c43e30 t __ZN12_GLOBAL__N_113MCAsmStreamer15EmitCFISectionsEbb
0000000100c3fd00 t __ZN12_GLOBAL__N_113MCAsmStreamer15EmitCOFFSafeSEHEPKN4llvm8MCSymbolE
0000000100c45a80 t __ZN12_GLOBAL__N_113MCAsmStreamer15EmitInstructionERKN4llvm6MCInstERKNS1_15MCSubtargetInfoEb
0000000100c3d380 t __ZN12_GLOBAL__N_113MCAsmStreamer15EmitRawTextImplEN4llvm9StringRefE
0000000100c3d4f0 t __ZN12_GLOBAL__N_113MCAsmStreamer15getAssemblerPtrEv
0000000100c3ec40 t __ZN12_GLOBAL__N_113MCAsmStreamer16EmitBuildVersionEjjjjN4llvm12VersionTupleE
0000000100c469f0 t __ZN12_GLOBAL__N_113MCAsmStreamer16EmitBundleUnlockEv
0000000100c429c0 t __ZN12_GLOBAL__N_113MCAsmStreamer16EmitCFIBKeyFrameEv
0000000100c44780 t __ZN12_GLOBAL__N_113MCAsmStreamer16EmitCFIRelOffsetExx
0000000100c445e0 t __ZN12_GLOBAL__N_113MCAsmStreamer16EmitCFISameValueEx
0000000100c44b00 t __ZN12_GLOBAL__N_113MCAsmStreamer16EmitCFIUndefinedEx
0000000100c3ff20 t __ZN12_GLOBAL__N_113MCAsmStreamer16EmitCOFFImgRel32EPKN4llvm8MCSymbolEx
0000000100c3fe60 t __ZN12_GLOBAL__N_113MCAsmStreamer16EmitCOFFSecRel32EPKN4llvm8MCSymbolEy
0000000100c40550 t __ZN12_GLOBAL__N_113MCAsmStreamer16EmitCommonSymbolEPN4llvm8MCSymbolEyj
0000000100c419b0 t __ZN12_GLOBAL__N_113MCAsmStreamer16EmitGPRel32ValueEPKN4llvm6MCExprE
0000000100c418f0 t __ZN12_GLOBAL__N_113MCAsmStreamer16EmitGPRel64ValueEPKN4llvm6MCExprE
0000000100c40220 t __ZN12_GLOBAL__N_113MCAsmStreamer16EmitLOHDirectiveEN4llvm9MCLOHTypeERKNS1_15SmallVectorImplIPNS1_8MCSymbolEEE
0000000100c41550 t __ZN12_GLOBAL__N_113MCAsmStreamer16EmitSLEB128ValueEPKN4llvm6MCExprE
0000000100c41830 t __ZN12_GLOBAL__N_113MCAsmStreamer16EmitTPRel32ValueEPKN4llvm6MCExprE
0000000100c41770 t __ZN12_GLOBAL__N_113MCAsmStreamer16EmitTPRel64ValueEPKN4llvm6MCExprE
0000000100c414b0 t __ZN12_GLOBAL__N_113MCAsmStreamer16EmitULEB128ValueEPKN4llvm6MCExprE
0000000100c45370 t __ZN12_GLOBAL__N_113MCAsmStreamer16EmitWinEHHandlerEPKN4llvm8MCSymbolEbbNS1_5SMLocE
0000000100c3fca0 t __ZN12_GLOBAL__N_113MCAsmStreamer16EndCOFFSymbolDefEv
0000000100c3e3d0 t __ZN12_GLOBAL__N_113MCAsmStreamer17EmitAssemblerFlagEN4llvm15MCAssemblerFlagE
0000000100c44c40 t __ZN12_GLOBAL__N_113MCAsmStreamer17EmitCFIWindowSaveEv
0000000100c420a0 t __ZN12_GLOBAL__N_113MCAsmStreamer17EmitCodeAlignmentEjj
0000000100c416b0 t __ZN12_GLOBAL__N_113MCAsmStreamer17EmitDTPRel32ValueEPKN4llvm6MCExprE
0000000100c415f0 t __ZN12_GLOBAL__N_113MCAsmStreamer17EmitDTPRel64ValueEPKN4llvm6MCExprE
0000000100c42190 t __ZN12_GLOBAL__N_113MCAsmStreamer17EmitFileDirectiveEN4llvm9StringRefE
0000000100c3e640 t __ZN12_GLOBAL__N_113MCAsmStreamer17EmitLinkerOptionsEN4llvm8ArrayRefINSt3__112basic_stringIcNS3_11char_traitsIcEENS3_9allocatorIcEEEEEE
0000000100c3f030 t __ZN12_GLOBAL__N_113MCAsmStreamer17EmitWeakReferenceEPN4llvm8MCSymbolEPKS2_
0000000100c44db0 t __ZN12_GLOBAL__N_113MCAsmStreamer17EmitWinCFIEndProcEN4llvm5SMLocE
0000000100c44f10 t __ZN12_GLOBAL__N_113MCAsmStreamer17EmitWinCFIPushRegEjN4llvm5SMLocE
0000000100c450d0 t __ZN12_GLOBAL__N_113MCAsmStreamer17EmitWinCFISaveRegEjjN4llvm5SMLocE
0000000100c45190 t __ZN12_GLOBAL__N_113MCAsmStreamer17EmitWinCFISaveXMMEjjN4llvm5SMLocE
0000000100c420d0 t __ZN12_GLOBAL__N_113MCAsmStreamer17emitValueToOffsetEPKN4llvm6MCExprEhNS1_5SMLocE
0000000100c3fae0 t __ZN12_GLOBAL__N_113MCAsmStreamer18BeginCOFFSymbolDefEPKN4llvm8MCSymbolE
0000000100c3d310 t __ZN12_GLOBAL__N_113MCAsmStreamer18EmitCFIEndProcImplERN4llvm16MCDwarfFrameInfoE
0000000100c449f0 t __ZN12_GLOBAL__N_113MCAsmStreamer18EmitCFIGnuArgsSizeEx
0000000100c44350 t __ZN12_GLOBAL__N_113MCAsmStreamer18EmitCFIPersonalityEPKN4llvm8MCSymbolEj
0000000100c44a90 t __ZN12_GLOBAL__N_113MCAsmStreamer18EmitCFISignalFrameEv
0000000100c3fc10 t __ZN12_GLOBAL__N_113MCAsmStreamer18EmitCOFFSymbolTypeEi
0000000100c43410 t __ZN12_GLOBAL__N_113MCAsmStreamer18EmitCVLocDirectiveEjjjjbbN4llvm9StringRefENS1_5SMLocE
0000000100c45830 t __ZN12_GLOBAL__N_113MCAsmStreamer18EmitRelocDirectiveERKN4llvm6MCExprENS1_9StringRefEPS3_NS1_5SMLocERKNS1_15MCSubtargetInfoE
0000000100c44f90 t __ZN12_GLOBAL__N_113MCAsmStreamer18EmitWinCFISetFrameEjjN4llvm5SMLocE
0000000100c3d690 t __ZN12_GLOBAL__N_113MCAsmStreamer18addExplicitCommentERKN4llvm5TwineE
0000000100c45680 t __ZN12_GLOBAL__N_113MCAsmStreamer18emitCGProfileEntryEPKN4llvm15MCSymbolRefExprES4_y
0000000100c468b0 t __ZN12_GLOBAL__N_113MCAsmStreamer19EmitBundleAlignModeEj
0000000100c440c0 t __ZN12_GLOBAL__N_113MCAsmStreamer19EmitCFIDefCfaOffsetEx
0000000100c44560 t __ZN12_GLOBAL__N_113MCAsmStreamer19EmitCFIRestoreStateEv
0000000100c44970 t __ZN12_GLOBAL__N_113MCAsmStreamer19EmitCFIReturnColumnEx
0000000100c3fd80 t __ZN12_GLOBAL__N_113MCAsmStreamer19EmitCOFFSymbolIndexEPKN4llvm8MCSymbolE
0000000100c42f60 t __ZN12_GLOBAL__N_113MCAsmStreamer19EmitCVFileDirectiveEjN4llvm9StringRefENS1_8ArrayRefIhEEj
0000000100c3f100 t __ZN12_GLOBAL__N_113MCAsmStreamer19EmitSymbolAttributeEPN4llvm8MCSymbolENS1_12MCSymbolAttrE
0000000100c457a0 t __ZN12_GLOBAL__N_113MCAsmStreamer19EmitSyntaxDirectiveEv
0000000100c45300 t __ZN12_GLOBAL__N_113MCAsmStreamer19EmitWinCFIEndPrologEN4llvm5SMLocE
0000000100c45250 t __ZN12_GLOBAL__N_113MCAsmStreamer19EmitWinCFIPushFrameEbN4llvm5SMLocE
0000000100c44d30 t __ZN12_GLOBAL__N_113MCAsmStreamer19EmitWinCFIStartProcEPKN4llvm8MCSymbolENS1_5SMLocE
0000000100c44cb0 t __ZN12_GLOBAL__N_113MCAsmStreamer20EmitCFINegateRAStateEv
0000000100c444f0 t __ZN12_GLOBAL__N_113MCAsmStreamer20EmitCFIRememberStateEv
0000000100c3d250 t __ZN12_GLOBAL__N_113MCAsmStreamer20EmitCFIStartProcImplERN4llvm16MCDwarfFrameInfoE
0000000100c3fdf0 t __ZN12_GLOBAL__N_113MCAsmStreamer20EmitCOFFSectionIndexEPKN4llvm8MCSymbolE
0000000100c41c90 t __ZN12_GLOBAL__N_113MCAsmStreamer20EmitValueToAlignmentEjxjj
0000000100c45050 t __ZN12_GLOBAL__N_113MCAsmStreamer20EmitWinCFIAllocStackEjN4llvm5SMLocE
0000000100c44ea0 t __ZN12_GLOBAL__N_113MCAsmStreamer20EmitWinCFIEndChainedEN4llvm5SMLocE
0000000100c45490 t __ZN12_GLOBAL__N_113MCAsmStreamer20EmitWinEHHandlerDataEN4llvm5SMLocE
0000000100c3e210 t __ZN12_GLOBAL__N_113MCAsmStreamer20emitExplicitCommentsEv
0000000100c44150 t __ZN12_GLOBAL__N_113MCAsmStreamer21EmitCFIDefCfaRegisterEx
0000000100c431b0 t __ZN12_GLOBAL__N_113MCAsmStreamer21EmitCVFuncIdDirectiveEj
0000000100c42a30 t __ZN12_GLOBAL__N_113MCAsmStreamer21EmitDwarfLocDirectiveEjjjjjjN4llvm9StringRefE
0000000100c40670 t __ZN12_GLOBAL__N_113MCAsmStreamer21EmitLocalCommonSymbolEPN4llvm8MCSymbolEyj
0000000100c448a0 t __ZN12_GLOBAL__N_113MCAsmStreamer22EmitCFIAdjustCfaOffsetEx
0000000100c44e30 t __ZN12_GLOBAL__N_113MCAsmStreamer22EmitWinCFIStartChainedEN4llvm5SMLocE
0000000100c40110 t __ZN12_GLOBAL__N_113MCAsmStreamer22emitELFSymverDirectiveEN4llvm9StringRefEPKNS1_8MCSymbolE
0000000100c43a80 t __ZN12_GLOBAL__N_113MCAsmStreamer23EmitCVDefRangeDirectiveEN4llvm8ArrayRefINSt3__14pairIPKNS1_8MCSymbolES7_EEEENS1_9StringRefE
0000000100c426a0 t __ZN12_GLOBAL__N_113MCAsmStreamer23emitDwarfFile0DirectiveEN4llvm9StringRefES2_PNS1_3MD59MD5ResultENS1_8OptionalIS2_EEj
0000000100c43e20 t __ZN12_GLOBAL__N_113MCAsmStreamer23getDwarfLineTableSymbolEj
0000000100c437c0 t __ZN12_GLOBAL__N_113MCAsmStreamer24EmitCVLinetableDirectiveEjPKN4llvm8MCSymbolES4_
0000000100c422f0 t __ZN12_GLOBAL__N_113MCAsmStreamer25tryEmitDwarfFileDirectiveEjN4llvm9StringRefES2_PNS1_3MD59MD5ResultENS1_8OptionalIS2_EEj
0000000100c3fb80 t __ZN12_GLOBAL__N_113MCAsmStreamer26EmitCOFFSymbolStorageClassEi
0000000100c43c40 t __ZN12_GLOBAL__N_113MCAsmStreamer26EmitCVStringTableDirectiveEv
0000000100c44e20 t __ZN12_GLOBAL__N_113MCAsmStreamer26EmitWinCFIFuncletOrFuncEndEN4llvm5SMLocE
0000000100c43250 t __ZN12_GLOBAL__N_113MCAsmStreamer27EmitCVInlineSiteIdDirectiveEjjjjjN4llvm5SMLocE
0000000100c43cb0 t __ZN12_GLOBAL__N_113MCAsmStreamer28EmitCVFileChecksumsDirectiveEv
0000000100c438e0 t __ZN12_GLOBAL__N_113MCAsmStreamer30EmitCVInlineLinetableDirectiveEjjjPKN4llvm8MCSymbolES4_
0000000100c43d20 t __ZN12_GLOBAL__N_113MCAsmStreamer33EmitCVFileChecksumOffsetDirectiveEj
0000000100c46b80 t __ZN12_GLOBAL__N_113MCAsmStreamer7EmitEOLEv
0000000100c41b90 t __ZN12_GLOBAL__N_113MCAsmStreamer8emitFillERKN4llvm6MCExprExxNS1_5SMLocE
0000000100c41a70 t __ZN12_GLOBAL__N_113MCAsmStreamer8emitFillERKN4llvm6MCExprEyNS1_5SMLocE
0000000100c40c50 t __ZN12_GLOBAL__N_113MCAsmStreamer9EmitBytesEN4llvm9StringRefE
0000000100c42240 t __ZN12_GLOBAL__N_113MCAsmStreamer9EmitIdentEN4llvm9StringRefE
0000000100c3e330 t __ZN12_GLOBAL__N_113MCAsmStreamer9EmitLabelEPN4llvm8MCSymbolENS1_5SMLocE
0000000100c3d4d0 t __ZN12_GLOBAL__N_113MCAsmStreamerD0Ev
0000000100c3d400 t __ZN12_GLOBAL__N_113MCAsmStreamerD1Ev
0000000100df27e0 t __ZN12_GLOBAL__N_113MPPassManager15getOnTheFlyPassEPN4llvm4PassEPKvRNS1_8FunctionE
0000000100df2260 t __ZN12_GLOBAL__N_113MPPassManager17dumpPassStructureEj
0000000100df2250 t __ZN12_GLOBAL__N_113MPPassManager18getAsPMDataManagerEv
0000000100df2460 t __ZN12_GLOBAL__N_113MPPassManager25addLowerLevelRequiredPassEPN4llvm4PassES3_
00000001015a7b08 b __ZN12_GLOBAL__N_113MPPassManager2IDE
0000000100df2860 t __ZN12_GLOBAL__N_113MPPassManager9getAsPassEv
0000000100df21e0 t __ZN12_GLOBAL__N_113MPPassManagerD0Ev
0000000100df20c0 t __ZN12_GLOBAL__N_113MPPassManagerD1Ev
00000001015a9098 b __ZN12_GLOBAL__N_113OpenedHandlesE
00000001009eb340 t __ZN12_GLOBAL__N_113RegUseTracker13countRegisterEPKN4llvm4SCEVEm
0000000100933f40 t __ZN12_GLOBAL__N_113SjLjEHPrepare13runOnFunctionERN4llvm8FunctionE
0000000100933e50 t __ZN12_GLOBAL__N_113SjLjEHPrepare16doInitializationERN4llvm6ModuleE
0000000100936300 t __ZN12_GLOBAL__N_113SjLjEHPrepare19insertCallSiteStoreEPN4llvm11InstructionEi
00000001009340e0 t __ZN12_GLOBAL__N_113SjLjEHPrepare27setupEntryBlockAndCallSitesERN4llvm8FunctionE
000000010159dbb0 b __ZN12_GLOBAL__N_113SjLjEHPrepare2IDE
0000000100933e10 t __ZN12_GLOBAL__N_113SjLjEHPrepareD0Ev
0000000100933e00 t __ZN12_GLOBAL__N_113SjLjEHPrepareD1Ev
0000000100958c30 t __ZN12_GLOBAL__N_113StackColoring16removeAllMarkersEv
0000000100959800 t __ZN12_GLOBAL__N_113StackColoring20isLifetimeStartOrEndERKN4llvm12MachineInstrERNS1_11SmallVectorIiLj4EEERb
0000000100952b50 t __ZN12_GLOBAL__N_113StackColoring20runOnMachineFunctionERN4llvm15MachineFunctionE
000000010159de08 b __ZN12_GLOBAL__N_113StackColoring2IDE
0000000100952b00 t __ZN12_GLOBAL__N_113StackColoringD0Ev
0000000100952860 t __ZN12_GLOBAL__N_113StackColoringD1Ev
000000010159e200 b __ZN12_GLOBAL__N_113TailDuplicate2IDE
000000010096f060 t __ZN12_GLOBAL__N_113TailDuplicateD0Ev
000000010096ef90 t __ZN12_GLOBAL__N_113TailDuplicateD1Ev
0000000100c32800 t __ZN12_GLOBAL__N_113WasmAsmParser10InitializeERN4llvm11MCAsmParserE
0000000100c327e0 t __ZN12_GLOBAL__N_113WasmAsmParserD0Ev
0000000100c327d0 t __ZN12_GLOBAL__N_113WasmAsmParserD1Ev
00000001009abef0 t __ZN12_GLOBAL__N_113WasmEHPrepare12prepareEHPadEPN4llvm10BasicBlockEj
00000001009ab190 t __ZN12_GLOBAL__N_113WasmEHPrepare13runOnFunctionERN4llvm8FunctionE
00000001009ab060 t __ZN12_GLOBAL__N_113WasmEHPrepare16doInitializationERN4llvm6ModuleE
00000001015a11f0 b __ZN12_GLOBAL__N_113WasmEHPrepare2IDE
00000001009ab020 t __ZN12_GLOBAL__N_113WasmEHPrepareD0Ev
00000001009ab010 t __ZN12_GLOBAL__N_113WasmEHPrepareD1Ev
00000001002a2350 t __ZN12_GLOBAL__N_113X86PassConfig10addILPOptsEv
00000001002a22c0 t __ZN12_GLOBAL__N_113X86PassConfig10addPreISelEv
00000001002a1fd0 t __ZN12_GLOBAL__N_113X86PassConfig11addIRPassesEv
00000001002a2510 t __ZN12_GLOBAL__N_113X86PassConfig12addPreSched2Ev
00000001002a2540 t __ZN12_GLOBAL__N_113X86PassConfig14addPreEmitPassEv
00000001002a23e0 t __ZN12_GLOBAL__N_113X86PassConfig14addPreRegAllocEv
00000001002a20e0 t __ZN12_GLOBAL__N_113X86PassConfig15addIRTranslatorEv
00000001002a2050 t __ZN12_GLOBAL__N_113X86PassConfig15addInstSelectorEv
00000001002a24e0 t __ZN12_GLOBAL__N_113X86PassConfig15addPostRegAllocEv
00000001002a27a0 t __ZN12_GLOBAL__N_113X86PassConfig15addPreEmitPass2Ev
00000001002a2180 t __ZN12_GLOBAL__N_113X86PassConfig16addRegBankSelectEv
00000001002a2130 t __ZN12_GLOBAL__N_113X86PassConfig20addLegalizeMachineIREv
00000001002a2310 t __ZN12_GLOBAL__N_113X86PassConfig25addMachineSSAOptimizationEv
00000001002a21d0 t __ZN12_GLOBAL__N_113X86PassConfig26addGlobalInstructionSelectEv
00000001002a1f90 t __ZN12_GLOBAL__N_113X86PassConfigD0Ev
00000001002a1f80 t __ZN12_GLOBAL__N_113X86PassConfigD1Ev
0000000100d000a0 t __ZN12_GLOBAL__N_114AssemblyWriter11printGlobalEPKN4llvm14GlobalVariableE
0000000100d1c310 t __ZN12_GLOBAL__N_114AssemblyWriter12printVFuncIdEN4llvm15FunctionSummary7VFuncIdE
0000000100d09f60 t __ZN12_GLOBAL__N_114AssemblyWriter12writeOperandEPKN4llvm5ValueEb
0000000100cf61a0 t __ZN12_GLOBAL__N_114AssemblyWriter13printFunctionEPKN4llvm8FunctionE
0000000100d0a040 t __ZN12_GLOBAL__N_114AssemblyWriter13printUseListsEPKN4llvm8FunctionE
0000000100d1b080 t __ZN12_GLOBAL__N_114AssemblyWriter14writeSyncScopeERKN4llvm11LLVMContextEh
0000000100cffa00 t __ZN12_GLOBAL__N_114AssemblyWriter15printBasicBlockEPKN4llvm10BasicBlockE
0000000100d1c020 t __ZN12_GLOBAL__N_114AssemblyWriter16printConstVCallsENSt3__16vectorIN4llvm15FunctionSummary10ConstVCallENS1_9allocatorIS5_EEEEPKc
0000000100d1ada0 t __ZN12_GLOBAL__N_114AssemblyWriter16printInfoCommentERKN4llvm5ValueE
0000000100cfc270 t __ZN12_GLOBAL__N_114AssemblyWriter16printInstructionERKN4llvm11InstructionE
0000000100cf9e20 t __ZN12_GLOBAL__N_114AssemblyWriter16printNamedMDNodeEPKN4llvm11NamedMDNodeE
0000000100d1a840 t __ZN12_GLOBAL__N_114AssemblyWriter17writeParamOperandEPKN4llvm5ValueENS1_12AttributeSetE
0000000100d00d30 t __ZN12_GLOBAL__N_114AssemblyWriter19printIndirectSymbolEPKN4llvm20GlobalIndirectSymbolE
0000000100d1bea0 t __ZN12_GLOBAL__N_114AssemblyWriter19printNonConstVCallsENSt3__16vectorIN4llvm15FunctionSummary7VFuncIdENS1_9allocatorIS5_EEEEPKc
0000000100d1a9a0 t __ZN12_GLOBAL__N_114AssemblyWriter19writeOperandBundlesEPKN4llvm8CallBaseE
0000000100d04810 t __ZN12_GLOBAL__N_114AssemblyWriter23printModuleSummaryIndexEv
0000000100d08b00 t __ZN12_GLOBAL__N_114AssemblyWriter24printMetadataAttachmentsERKN4llvm15SmallVectorImplINSt3__14pairIjPNS1_6MDNodeEEEEENS1_9StringRefE
0000000100d1c730 t __ZN12_GLOBAL__N_114AssemblyWriter9printArgsERKNSt3__16vectorIyNS1_9allocatorIyEEEE
0000000100cf5e80 t __ZN12_GLOBAL__N_114AssemblyWriterC1ERN4llvm21formatted_raw_ostreamERNS1_11SlotTrackerEPKNS1_6ModuleEPNS1_24AssemblyAnnotationWriterEbb
0000000100cf7800 t __ZN12_GLOBAL__N_114AssemblyWriterD1Ev
0000000100ac1850 t __ZN12_GLOBAL__N_114CapturesBefore11tooManyUsesEv
0000000100ac1860 t __ZN12_GLOBAL__N_114CapturesBefore13shouldExploreEPKN4llvm3UseE
0000000100ac1b40 t __ZN12_GLOBAL__N_114CapturesBefore8capturedEPKN4llvm3UseE
0000000100ac1840 t __ZN12_GLOBAL__N_114CapturesBeforeD0Ev
0000000100ac16a0 t __ZN12_GLOBAL__N_114CapturesBeforeD1Ev
0000000100acf000 t __ZN12_GLOBAL__N_114CastGEPIndicesEPN4llvm4TypeENS0_8ArrayRefIPNS0_8ConstantEEES2_NS0_8OptionalIjEERKNS0_10DataLayoutEPKNS0_17TargetLibraryInfoE
00000001006c4e10 t __ZN12_GLOBAL__N_114CodeGenPrepare12optimizeInstEPN4llvm11InstructionERb
00000001006bc2b0 t __ZN12_GLOBAL__N_114CodeGenPrepare13runOnFunctionERN4llvm8FunctionE
00000001006d0e00 t __ZN12_GLOBAL__N_114CodeGenPrepare16optimizeCallInstEPN4llvm8CallInstERb
00000001006d2c10 t __ZN12_GLOBAL__N_114CodeGenPrepare16tryToPromoteExtsERNS_24TypePromotionTransactionERKN4llvm15SmallVectorImplIPNS3_11InstructionEEERS7_j
00000001006cdda0 t __ZN12_GLOBAL__N_114CodeGenPrepare18optimizeMemoryInstEPN4llvm11InstructionEPNS1_5ValueEPNS1_4TypeEj
0000000101596d08 b __ZN12_GLOBAL__N_114CodeGenPrepare2IDE
00000001006c40c0 t __ZN12_GLOBAL__N_114CodeGenPrepare34findDestBlockOfMergeableEmptyBlockEPN4llvm10BasicBlockE
00000001006bba40 t __ZN12_GLOBAL__N_114CodeGenPrepareC1Ev
00000001006bc220 t __ZN12_GLOBAL__N_114CodeGenPrepareD0Ev
00000001006bbff0 t __ZN12_GLOBAL__N_114CodeGenPrepareD1Ev
00000001006f4210 t __ZN12_GLOBAL__N_114DwarfEHPrepare13runOnFunctionERN4llvm8FunctionE
00000001006f41c0 t __ZN12_GLOBAL__N_114DwarfEHPrepare14doFinalizationERN4llvm6ModuleE
00000001006f4df0 t __ZN12_GLOBAL__N_114DwarfEHPrepare18GetExceptionObjectEPN4llvm10ResumeInstE
0000000101596df8 b __ZN12_GLOBAL__N_114DwarfEHPrepare2IDE
00000001006f4180 t __ZN12_GLOBAL__N_114DwarfEHPrepareD0Ev
00000001006f4170 t __ZN12_GLOBAL__N_114DwarfEHPrepareD1Ev
00000001007076f0 t __ZN12_GLOBAL__N_114FEntryInserter20runOnMachineFunctionERN4llvm15MachineFunctionE
0000000101597158 b __ZN12_GLOBAL__N_114FEntryInserter2IDE
00000001007076a0 t __ZN12_GLOBAL__N_114FEntryInserterD0Ev
0000000100707660 t __ZN12_GLOBAL__N_114FEntryInserterD1Ev
0000000100a6de60 t __ZN12_GLOBAL__N_114FlushingMapperD1Ev
0000000101595758 b __ZN12_GLOBAL__N_114GDBRegListenerE
000000010158f990 b __ZN12_GLOBAL__N_114ImplicitItModeE
0000000100c6e2b0 t __ZN12_GLOBAL__N_114MCNullStreamer12EmitZerofillEPN4llvm9MCSectionEPNS1_8MCSymbolEyjNS1_5SMLocE
0000000100c6e200 t __ZN12_GLOBAL__N_114MCNullStreamer15EmitRawTextImplEN4llvm9StringRefE
0000000100c6e2a0 t __ZN12_GLOBAL__N_114MCNullStreamer16EmitCommonSymbolEPN4llvm8MCSymbolEyj
0000000100c6e2c0 t __ZN12_GLOBAL__N_114MCNullStreamer16EmitGPRel32ValueEPKN4llvm6MCExprE
0000000100c6e290 t __ZN12_GLOBAL__N_114MCNullStreamer16EndCOFFSymbolDefEv
0000000100c6e260 t __ZN12_GLOBAL__N_114MCNullStreamer18BeginCOFFSymbolDefEPKN4llvm8MCSymbolE
0000000100c6e280 t __ZN12_GLOBAL__N_114MCNullStreamer18EmitCOFFSymbolTypeEi
0000000100c6e250 t __ZN12_GLOBAL__N_114MCNullStreamer19EmitSymbolAttributeEPN4llvm8MCSymbolENS1_12MCSymbolAttrE
0000000100c6e270 t __ZN12_GLOBAL__N_114MCNullStreamer26EmitCOFFSymbolStorageClassEi
0000000100c6e220 t __ZN12_GLOBAL__N_114MCNullStreamerD0Ev
0000000100c6e210 t __ZN12_GLOBAL__N_114MCNullStreamerD1Ev
0000000100d19fc0 t __ZN12_GLOBAL__N_114MDFieldPrinter12printDIFlagsEN4llvm9StringRefENS1_6DINode7DIFlagsE
0000000100d19eb0 t __ZN12_GLOBAL__N_114MDFieldPrinter8printTagEPKN4llvm6DINodeE
000000010084e480 t __ZN12_GLOBAL__N_114MachineSinking13releaseMemoryEv
0000000100850210 t __ZN12_GLOBAL__N_114MachineSinking16FindSuccToSinkToERN4llvm12MachineInstrEPNS1_17MachineBasicBlockERbRNSt3__13mapIS5_NS1_11SmallVectorIS5_Lj4EEENS7_4lessIS5_EENS7_9allocatorINS7_4pairIKS5_SA_EEEEEE
0000000100851620 t __ZN12_GLOBAL__N_114MachineSinking20isProfitableToSinkToEjRN4llvm12MachineInstrEPNS1_17MachineBasicBlockES5_RNSt3__13mapIS5_NS1_11SmallVectorIS5_Lj4EEENS6_4lessIS5_EENS6_9allocatorINS6_4pairIKS5_S9_EEEEEE
000000010084e4d0 t __ZN12_GLOBAL__N_114MachineSinking20runOnMachineFunctionERN4llvm15MachineFunctionE
0000000100850a90 t __ZN12_GLOBAL__N_114MachineSinking25PostponeSplitCriticalEdgeERN4llvm12MachineInstrEPNS1_17MachineBasicBlockES5_b
000000010159b428 b __ZN12_GLOBAL__N_114MachineSinking2IDE
000000010084e2e0 t __ZN12_GLOBAL__N_114MachineSinkingD0Ev
000000010084e1d0 t __ZN12_GLOBAL__N_114MachineSinkingD1Ev
00000001008943e0 t __ZN12_GLOBAL__N_114PHIElimination20runOnMachineFunctionERN4llvm15MachineFunctionE
000000010159bcd8 b __ZN12_GLOBAL__N_114PHIElimination2IDE
0000000100894130 t __ZN12_GLOBAL__N_114PHIEliminationD0Ev
00000001008940a0 t __ZN12_GLOBAL__N_114PHIEliminationD1Ev
0000000100d8ecb0 t __ZN12_GLOBAL__N_114PassRemarksOptD1Ev
0000000100a43f60 t __ZN12_GLOBAL__N_114SimplifyCFGOpt12simplifyOnceEPN4llvm10BasicBlockE
0000000100a4ff70 t __ZN12_GLOBAL__N_114SimplifyCFGOpt14SimplifySwitchEPN4llvm10SwitchInstERNS1_9IRBuilderINS1_14ConstantFolderENS1_24IRBuilderDefaultInserterEEE
0000000100a4b120 t __ZN12_GLOBAL__N_114SimplifyCFGOpt18SimplifyCondBranchEPN4llvm10BranchInstERNS1_9IRBuilderINS1_14ConstantFolderENS1_24IRBuilderDefaultInserterEEE
0000000100a55980 t __ZN12_GLOBAL__N_114SimplifyCFGOpt25isValueEqualityComparisonEPN4llvm11InstructionE
0000000100a5c970 t __ZN12_GLOBAL__N_114SimplifyCFGOpt31GetValueEqualityComparisonCasesEPN4llvm11InstructionERNSt3__16vectorINS_27ValueEqualityComparisonCaseENS4_9allocatorIS6_EEEE
0000000100a56e80 t __ZN12_GLOBAL__N_114SimplifyCFGOpt35FoldValueComparisonIntoPredecessorsEPN4llvm11InstructionERNS1_9IRBuilderINS1_14ConstantFolderENS1_24IRBuilderDefaultInserterEEE
0000000100a55b30 t __ZN12_GLOBAL__N_114SimplifyCFGOpt45SimplifyEqualityComparisonWithOnlyPredecessorEPN4llvm11InstructionEPNS1_10BasicBlockERNS1_9IRBuilderINS1_14ConstantFolderENS1_24IRBuilderDefaultInserterEEE
0000000100e96590 t __ZN12_GLOBAL__N_114VersionPrinter5printEv
00000001002bdde0 t __ZN12_GLOBAL__N_114WinEHStatePass10emitEHLSDAERN4llvm9IRBuilderINS1_14ConstantFolderENS1_24IRBuilderDefaultInserterEEEPNS1_8FunctionE
00000001002ba360 t __ZN12_GLOBAL__N_114WinEHStatePass13runOnFunctionERN4llvm8FunctionE
00000001002ba2e0 t __ZN12_GLOBAL__N_114WinEHStatePass14doFinalizationERN4llvm6ModuleE
00000001002ba2d0 t __ZN12_GLOBAL__N_114WinEHStatePass16doInitializationERN4llvm6ModuleE
00000001002bdff0 t __ZN12_GLOBAL__N_114WinEHStatePass19getStateForCallSiteERN4llvm8DenseMapIPNS1_10BasicBlockENS1_13TinyPtrVectorIS4_EENS1_12DenseMapInfoIS4_EENS1_6detail12DenseMapPairIS4_S6_EEEERNS1_13WinEHFuncInfoENS1_8CallSiteE
00000001002bd9e0 t __ZN12_GLOBAL__N_114WinEHStatePass22insertStateNumberStoreEPN4llvm11InstructionEi
00000001002bdaf0 t __ZN12_GLOBAL__N_114WinEHStatePass25linkExceptionRegistrationERN4llvm9IRBuilderINS1_14ConstantFolderENS1_24IRBuilderDefaultInserterEEEPNS1_8FunctionE
0000000101591b58 b __ZN12_GLOBAL__N_114WinEHStatePass2IDE
00000001002ba290 t __ZN12_GLOBAL__N_114WinEHStatePassD0Ev
00000001002ba280 t __ZN12_GLOBAL__N_114WinEHStatePassD1Ev
0000000100c295e0 t __ZN12_GLOBAL__N_115DarwinAsmParser10InitializeERN4llvm11MCAsmParserE
0000000100c2d4f0 t __ZN12_GLOBAL__N_115DarwinAsmParser12checkVersionEN4llvm9StringRefES2_NS1_5SMLocENS1_6Triple6OSTypeE
0000000100c2d290 t __ZN12_GLOBAL__N_115DarwinAsmParser12parseVersionEPjS1_S1_
0000000100c2d3a0 t __ZN12_GLOBAL__N_115DarwinAsmParser15parseSDKVersionERN4llvm12VersionTupleE
0000000100c2d0c0 t __ZN12_GLOBAL__N_115DarwinAsmParser15parseVersionMinEN4llvm9StringRefENS1_5SMLocENS1_16MCVersionMinTypeE
0000000100c2c1c0 t __ZN12_GLOBAL__N_115DarwinAsmParser18parseSectionSwitchEN4llvm9StringRefES2_jjj
0000000100c2a580 t __ZN12_GLOBAL__N_115DarwinAsmParser21parseDirectiveSectionEN4llvm9StringRefENS1_5SMLocE
0000000100c2d7f0 t __ZN12_GLOBAL__N_115DarwinAsmParser31parseMajorMinorVersionComponentEPjS1_PKc
0000000100c2dd30 t __ZN12_GLOBAL__N_115DarwinAsmParser37parseOptionalTrailingVersionComponentEPjPKc
0000000100c295c0 t __ZN12_GLOBAL__N_115DarwinAsmParserD0Ev
0000000100c295b0 t __ZN12_GLOBAL__N_115DarwinAsmParserD1Ev
00000001006f09d0 t __ZN12_GLOBAL__N_115DetectDeadLanes20runOnMachineFunctionERN4llvm15MachineFunctionE
0000000101596d20 b __ZN12_GLOBAL__N_115DetectDeadLanes2IDE
00000001006f0960 t __ZN12_GLOBAL__N_115DetectDeadLanesD0Ev
00000001006f07a0 t __ZN12_GLOBAL__N_115DetectDeadLanesD1Ev
0000000100c34910 t __ZN12_GLOBAL__N_115ELFObjectWriter15checkRelocationERN4llvm9MCContextENS1_5SMLocEPKNS1_12MCSectionELFES7_
0000000100c34730 t __ZN12_GLOBAL__N_115ELFObjectWriter16addAddrsigSymbolEPKN4llvm8MCSymbolE
0000000100c33860 t __ZN12_GLOBAL__N_115ELFObjectWriter16recordRelocationERN4llvm11MCAssemblerERKNS1_11MCAsmLayoutEPKNS1_10MCFragmentERKNS1_7MCFixupENS1_7MCValueERy
0000000100c34720 t __ZN12_GLOBAL__N_115ELFObjectWriter18emitAddrsigSectionEv
0000000100c330f0 t __ZN12_GLOBAL__N_115ELFObjectWriter24executePostLayoutBindingERN4llvm11MCAssemblerERKNS1_11MCAsmLayoutE
0000000100c33000 t __ZN12_GLOBAL__N_115ELFObjectWriter5resetEv
0000000100c34930 t __ZN12_GLOBAL__N_115ELFObjectWriterD0Ev
0000000100c34920 t __ZN12_GLOBAL__N_115ELFObjectWriterD1Ev
0000000100c34940 t __ZN12_GLOBAL__N_115ELFObjectWriterD2Ev
00000001015a9080 b __ZN12_GLOBAL__N_115ExplicitSymbolsE
000000010060e520 t __ZN12_GLOBAL__N_115FPOStateMachine19emitFrameDataRecordERN4llvm10MCStreamerEPNS1_8MCSymbolE
00000001000cb8e0 t __ZN12_GLOBAL__N_115FixupBWInstPass20runOnMachineFunctionERN4llvm15MachineFunctionE
0000000101590568 b __ZN12_GLOBAL__N_115FixupBWInstPass2IDE
00000001000cb810 t __ZN12_GLOBAL__N_115FixupBWInstPassD0Ev
00000001000cb7a0 t __ZN12_GLOBAL__N_115FixupBWInstPassD1Ev
0000000100740c20 t __ZN12_GLOBAL__N_115LiveDebugValues13OpenRangesSet5eraseENS0_13DebugVariableE
000000010073c310 t __ZN12_GLOBAL__N_115LiveDebugValues20runOnMachineFunctionERN4llvm15MachineFunctionE
0000000100741df0 t __ZN12_GLOBAL__N_115LiveDebugValues23insertTransferDebugPairERN4llvm12MachineInstrERNS0_13OpenRangesSetERNS1_11SmallVectorINS0_17TransferDebugPairELj4EEERNS1_12UniqueVectorINS0_6VarLocEEEjj
0000000101598340 b __ZN12_GLOBAL__N_115LiveDebugValues2IDE
0000000100740d40 t __ZN12_GLOBAL__N_115LiveDebugValues6VarLocC1ERKN4llvm12MachineInstrERNS2_13LexicalScopesE
000000010073e9c0 t __ZN12_GLOBAL__N_115LiveDebugValues7processERN4llvm12MachineInstrERNS0_13OpenRangesSetERNS1_13SmallDenseMapIPKNS1_17MachineBasicBlockENS1_15SparseBitVectorILj128EEELj4ENS1_12DenseMapInfoIS9_EENS1_6detail12DenseMapPairIS9_SB_EEEERNS1_12UniqueVectorINS0_6VarLocEEERNS1_11SmallVectorINS0_17TransferDebugPairELj4EEEb
000000010073c270 t __ZN12_GLOBAL__N_115LiveDebugValuesD0Ev
000000010073c200 t __ZN12_GLOBAL__N_115LiveDebugValuesD1Ev
0000000100772310 t __ZN12_GLOBAL__N_115LiveRangeShrink20runOnMachineFunctionERN4llvm15MachineFunctionE
00000001015984e0 b __ZN12_GLOBAL__N_115LiveRangeShrink2IDE
0000000100772270 t __ZN12_GLOBAL__N_115LiveRangeShrinkD0Ev
0000000100772230 t __ZN12_GLOBAL__N_115LiveRangeShrinkD1Ev
000000010070a780 t __ZN12_GLOBAL__N_115LowerIntrinsics13runOnFunctionERN4llvm8FunctionE
000000010070a5e0 t __ZN12_GLOBAL__N_115LowerIntrinsics16doInitializationERN4llvm6ModuleE
00000001015971a0 b __ZN12_GLOBAL__N_115LowerIntrinsics2IDE
000000010070a5a0 t __ZN12_GLOBAL__N_115LowerIntrinsicsD0Ev
000000010070a590 t __ZN12_GLOBAL__N_115LowerIntrinsicsD1Ev
0000000100c6c5b0 t __ZN12_GLOBAL__N_115MCMachOStreamer10FinishImplEv
0000000100c6c3a0 t __ZN12_GLOBAL__N_115MCMachOStreamer12EmitZerofillEPN4llvm9MCSectionEPNS1_8MCSymbolEyjNS1_5SMLocE
0000000100c6b380 t __ZN12_GLOBAL__N_115MCMachOStreamer13ChangeSectionEPN4llvm9MCSectionEPKNS1_6MCExprE
0000000100c6be20 t __ZN12_GLOBAL__N_115MCMachOStreamer13EmitThumbFuncEPN4llvm8MCSymbolE
0000000100c6beb0 t __ZN12_GLOBAL__N_115MCMachOStreamer14EmitAssignmentEPN4llvm8MCSymbolEPKNS1_6MCExprE
0000000100c6d5a0 t __ZN12_GLOBAL__N_115MCMachOStreamer14EmitDataRegionEN4llvm14DataRegionData6KindTyE
0000000100c6bca0 t __ZN12_GLOBAL__N_115MCMachOStreamer14EmitDataRegionEN4llvm16MCDataRegionTypeE
0000000100c6c910 t __ZN12_GLOBAL__N_115MCMachOStreamer14EmitInstToDataERKN4llvm6MCInstERKNS1_15MCSubtargetInfoE
0000000100c6c200 t __ZN12_GLOBAL__N_115MCMachOStreamer14EmitSymbolDescEPN4llvm8MCSymbolEj
0000000100c6c570 t __ZN12_GLOBAL__N_115MCMachOStreamer14EmitTBSSSymbolEPN4llvm9MCSectionEPNS1_8MCSymbolEyj
0000000100c6bd80 t __ZN12_GLOBAL__N_115MCMachOStreamer14EmitVersionMinEN4llvm16MCVersionMinTypeEjjjNS1_12VersionTupleE
0000000100c6bdd0 t __ZN12_GLOBAL__N_115MCMachOStreamer16EmitBuildVersionEjjjjN4llvm12VersionTupleE
0000000100c6c2a0 t __ZN12_GLOBAL__N_115MCMachOStreamer16EmitCommonSymbolEPN4llvm8MCSymbolEyj
0000000100c6c280 t __ZN12_GLOBAL__N_115MCMachOStreamer16EmitLOHDirectiveEN4llvm9MCLOHTypeERKNS1_15SmallVectorImplIPNS1_8MCSymbolEEE
0000000100c6baa0 t __ZN12_GLOBAL__N_115MCMachOStreamer17EmitAssemblerFlagEN4llvm15MCAssemblerFlagE
0000000100c6bae0 t __ZN12_GLOBAL__N_115MCMachOStreamer17EmitLinkerOptionsEN4llvm8ArrayRefINSt3__112basic_stringIcNS3_11char_traitsIcEENS3_9allocatorIcEEEEEE
0000000100c6b9e0 t __ZN12_GLOBAL__N_115MCMachOStreamer19EmitEHSymAttributesEPKN4llvm8MCSymbolEPS2_
0000000100c6bf90 t __ZN12_GLOBAL__N_115MCMachOStreamer19EmitSymbolAttributeEPN4llvm8MCSymbolENS1_12MCSymbolAttrE
0000000100c6c370 t __ZN12_GLOBAL__N_115MCMachOStreamer21EmitLocalCommonSymbolEPN4llvm8MCSymbolEyj
0000000100c6b280 t __ZN12_GLOBAL__N_115MCMachOStreamer5resetEv
0000000100c6c590 t __ZN12_GLOBAL__N_115MCMachOStreamer9EmitIdentEN4llvm9StringRefE
0000000100c6b880 t __ZN12_GLOBAL__N_115MCMachOStreamer9EmitLabelEPN4llvm8MCSymbolENS1_5SMLocE
0000000100c6b240 t __ZN12_GLOBAL__N_115MCMachOStreamerD0Ev
0000000100c6b200 t __ZN12_GLOBAL__N_115MCMachOStreamerD1Ev
00000001008896c0 t __ZN12_GLOBAL__N_115MIRPrintingPass14doFinalizationERN4llvm6ModuleE
0000000100889730 t __ZN12_GLOBAL__N_115MIRPrintingPass20runOnMachineFunctionERN4llvm15MachineFunctionE
000000010159b530 b __ZN12_GLOBAL__N_115MIRPrintingPass2IDE
0000000100889630 t __ZN12_GLOBAL__N_115MIRPrintingPassD0Ev
00000001008895d0 t __ZN12_GLOBAL__N_115MIRPrintingPassD1Ev
00000001007ac8c0 t __ZN12_GLOBAL__N_115MachineCombiner20runOnMachineFunctionERN4llvm15MachineFunctionE
00000001007af290 t __ZN12_GLOBAL__N_115MachineCombiner29getLatenciesForInstrSequencesERN4llvm12MachineInstrERNS1_15SmallVectorImplIPS2_EES7_NS1_19MachineTraceMetrics5TraceE
00000001015996b0 b __ZN12_GLOBAL__N_115MachineCombiner2IDE
00000001007ac6f0 t __ZN12_GLOBAL__N_115MachineCombinerD0Ev
00000001007ac680 t __ZN12_GLOBAL__N_115MachineCombinerD1Ev
00000001007d4bd0 t __ZN12_GLOBAL__N_115MachineLICMBase13releaseMemoryEv
00000001007da8a0 t __ZN12_GLOBAL__N_115MachineLICMBase15InitRegPressureEPN4llvm17MachineBasicBlockE
00000001007da200 t __ZN12_GLOBAL__N_115MachineLICMBase15IsLICMCandidateERN4llvm12MachineInstrE
00000001007dc4a0 t __ZN12_GLOBAL__N_115MachineLICMBase16calcRegisterCostEPKN4llvm12MachineInstrEbb
00000001007daa20 t __ZN12_GLOBAL__N_115MachineLICMBase17UpdateRegPressureEPKN4llvm12MachineInstrEb
00000001007db0d0 t __ZN12_GLOBAL__N_115MachineLICMBase19IsLoopInvariantInstERN4llvm12MachineInstrE
00000001007db300 t __ZN12_GLOBAL__N_115MachineLICMBase19IsProfitableToHoistERN4llvm12MachineInstrE
00000001007d4cc0 t __ZN12_GLOBAL__N_115MachineLICMBase20runOnMachineFunctionERN4llvm15MachineFunctionE
00000001007da6f0 t __ZN12_GLOBAL__N_115MachineLICMBase21IsGuaranteedToExecuteEPN4llvm17MachineBasicBlockE
00000001007dcec0 t __ZN12_GLOBAL__N_115MachineLICMBase9ExitScopeEPN4llvm17MachineBasicBlockE
00000001007d98b0 t __ZN12_GLOBAL__N_115MachineLICMBaseD0Ev
00000001007d98a0 t __ZN12_GLOBAL__N_115MachineLICMBaseD1Ev
00000001007d98d0 t __ZN12_GLOBAL__N_115MachineLICMBaseD2Ev
00000001007eed10 t __ZN12_GLOBAL__N_115MachineOutliner11runOnModuleERN4llvm6ModuleE
0000000101599d68 b __ZN12_GLOBAL__N_115MachineOutliner2IDE
00000001007eec30 t __ZN12_GLOBAL__N_115MachineOutlinerD0Ev
00000001007eec20 t __ZN12_GLOBAL__N_115MachineOutlinerD1Ev
0000000100870830 t __ZN12_GLOBAL__N_115MachineVerifier13markReachableEPKN4llvm17MachineBasicBlockE
0000000100873020 t __ZN12_GLOBAL__N_115MachineVerifier15verifyLiveRangeERKN4llvm9LiveRangeEjNS1_11LaneBitmaskE
0000000100871940 t __ZN12_GLOBAL__N_115MachineVerifier17addRegWithSubRegsERN4llvm11SmallVectorIjLj16EEEj
0000000100871e40 t __ZN12_GLOBAL__N_115MachineVerifier18checkLivenessAtDefEPKN4llvm14MachineOperandEjNS1_9SlotIndexERKNS1_9LiveRangeEjbNS1_11LaneBitmaskE
0000000100871af0 t __ZN12_GLOBAL__N_115MachineVerifier18checkLivenessAtUseEPKN4llvm14MachineOperandEjNS1_9SlotIndexERKNS1_9LiveRangeEjNS1_11LaneBitmaskE
000000010086d780 t __ZN12_GLOBAL__N_115MachineVerifier19visitMachineOperandEPKN4llvm14MachineOperandEj
000000010086af70 t __ZN12_GLOBAL__N_115MachineVerifier23visitMachineBundleAfterEPKN4llvm12MachineInstrE
000000010086b570 t __ZN12_GLOBAL__N_115MachineVerifier23visitMachineInstrBeforeEPKN4llvm12MachineInstrE
0000000100872d70 t __ZN12_GLOBAL__N_115MachineVerifier6BBInfo9addPassedERKN4llvm8DenseSetIjNS2_12DenseMapInfoIjEEEE
000000010086a930 t __ZN12_GLOBAL__N_115MachineVerifier6BBInfoD1Ev
000000010086ada0 t __ZN12_GLOBAL__N_115MachineVerifier6reportEPKcPKN4llvm12MachineInstrE
0000000100871820 t __ZN12_GLOBAL__N_115MachineVerifier6reportEPKcPKN4llvm14MachineOperandEjNS3_3LLTE
0000000100870460 t __ZN12_GLOBAL__N_115MachineVerifier6reportEPKcPKN4llvm15MachineFunctionE
000000010086a9c0 t __ZN12_GLOBAL__N_115MachineVerifier6reportEPKcPKN4llvm17MachineBasicBlockE
0000000100864210 t __ZN12_GLOBAL__N_115MachineVerifier6verifyERN4llvm15MachineFunctionE
000000010086a4a0 t __ZN12_GLOBAL__N_115MachineVerifierD1Ev
0000000100703980 t __ZN12_GLOBAL__N_115MemCmpExpansion19getCompareLoadPairsEjRj
00000001007037f0 t __ZN12_GLOBAL__N_115MemCmpExpansion21emitMemCmpResultBlockEv
00000001007041e0 t __ZN12_GLOBAL__N_115MemCmpExpansion23getPtrToElementAtOffsetEPN4llvm5ValueEPNS1_4TypeEy
0000000100702f60 t __ZN12_GLOBAL__N_115MemCmpExpansionC1EPN4llvm8CallInstEyRKNS1_19TargetTransformInfo22MemCmpExpansionOptionsEjbjRKNS1_10DataLayoutE
0000000100ea8810 t __ZN12_GLOBAL__N_115MemoryBufferMemIN4llvm12MemoryBufferEED0Ev
0000000100ea8800 t __ZN12_GLOBAL__N_115MemoryBufferMemIN4llvm12MemoryBufferEED1Ev
0000000100ea8870 t __ZN12_GLOBAL__N_115MemoryBufferMemIN4llvm20WritableMemoryBufferEED0Ev
0000000100ea8860 t __ZN12_GLOBAL__N_115MemoryBufferMemIN4llvm20WritableMemoryBufferEED1Ev
00000001008ffb30 t __ZN12_GLOBAL__N_115NamedVRegCursor21createVirtualRegisterEPKN4llvm19TargetRegisterClassE
000000010027f9b0 t __ZN12_GLOBAL__N_115OptimizeLEAPass13calcInstrDistERKN4llvm12MachineInstrES4_
000000010027c080 t __ZN12_GLOBAL__N_115OptimizeLEAPass20runOnMachineFunctionERN4llvm15MachineFunctionE
0000000101591198 b __ZN12_GLOBAL__N_115OptimizeLEAPass2IDE
000000010027c000 t __ZN12_GLOBAL__N_115OptimizeLEAPassD0Ev
000000010027bfa0 t __ZN12_GLOBAL__N_115OptimizeLEAPassD1Ev
0000000100899c90 t __ZN12_GLOBAL__N_115PostRAScheduler20runOnMachineFunctionERN4llvm15MachineFunctionE
000000010159c020 b __ZN12_GLOBAL__N_115PostRAScheduler2IDE
0000000100899b70 t __ZN12_GLOBAL__N_115PostRASchedulerD0Ev
0000000100899a90 t __ZN12_GLOBAL__N_115PostRASchedulerD1Ev
00000001004696a0 t __ZN12_GLOBAL__N_115ScheduleDAGVLIW17releaseSuccessorsEPN4llvm5SUnitE
0000000100468a00 t __ZN12_GLOBAL__N_115ScheduleDAGVLIW8ScheduleEv
0000000100468970 t __ZN12_GLOBAL__N_115ScheduleDAGVLIWD0Ev
00000001004688e0 t __ZN12_GLOBAL__N_115ScheduleDAGVLIWD1Ev
0000000100064050 t __ZN12_GLOBAL__N_115ShadowCallStack20runOnMachineFunctionERN4llvm15MachineFunctionE
000000010158ffd0 b __ZN12_GLOBAL__N_115ShadowCallStack2IDE
0000000100063ff0 t __ZN12_GLOBAL__N_115ShadowCallStackD0Ev
0000000100063fb0 t __ZN12_GLOBAL__N_115ShadowCallStackD1Ev
0000000101570570 s __ZN12_GLOBAL__N_115SimpleTypeNamesE
000000010041f3d0 t __ZN12_GLOBAL__N_115VectorLegalizer10ExpandLoadEN4llvm7SDValueE
000000010041d440 t __ZN12_GLOBAL__N_115VectorLegalizer10LegalizeOpEN4llvm7SDValueE
000000010041f1f0 t __ZN12_GLOBAL__N_115VectorLegalizer24TranslateLegalizeResultsEN4llvm7SDValueES2_
0000000100420ae0 t __ZN12_GLOBAL__N_115VectorLegalizer6ExpandEN4llvm7SDValueE
00000001009a86d0 t __ZN12_GLOBAL__N_115VirtRegRewriter20runOnMachineFunctionERN4llvm15MachineFunctionE
00000001015a11d8 b __ZN12_GLOBAL__N_115VirtRegRewriter2IDE
00000001009a8560 t __ZN12_GLOBAL__N_115VirtRegRewriterD0Ev
00000001009a8520 t __ZN12_GLOBAL__N_115VirtRegRewriterD1Ev
000000010030e030 t __ZN12_GLOBAL__N_115WorklistRemover11NodeDeletedEPN4llvm6SDNodeES3_
000000010030dfe0 t __ZN12_GLOBAL__N_115WorklistRemoverD0Ev
000000010030df90 t __ZN12_GLOBAL__N_115WorklistRemoverD1Ev
00000001000d2a80 t __ZN12_GLOBAL__N_115X86AvoidSFBPass11buildCopiesEiPN4llvm12MachineInstrExS3_xxx
00000001000cf790 t __ZN12_GLOBAL__N_115X86AvoidSFBPass20runOnMachineFunctionERN4llvm15MachineFunctionE
0000000101590708 b __ZN12_GLOBAL__N_115X86AvoidSFBPass2IDE
00000001000d2f50 t __ZN12_GLOBAL__N_115X86AvoidSFBPass9buildCopyEPN4llvm12MachineInstrEjxS3_jxjxx
00000001000cf6b0 t __ZN12_GLOBAL__N_115X86AvoidSFBPassD0Ev
00000001000cf630 t __ZN12_GLOBAL__N_115X86AvoidSFBPassD1Ev
0000000100115b20 t __ZN12_GLOBAL__N_115X86DAGToDAGISel10selectAddrEPN4llvm6SDNodeENS1_7SDValueERS4_S5_S5_S5_S5_
00000001001149d0 t __ZN12_GLOBAL__N_115X86DAGToDAGISel11tryFoldLoadEPN4llvm6SDNodeES3_NS1_7SDValueERS4_S5_S5_S5_S5_
0000000100115050 t __ZN12_GLOBAL__N_115X86DAGToDAGISel12emitPCMPESTREjjbRKN4llvm5SDLocENS1_3MVTEPNS1_6SDNodeERNS1_7SDValueE
0000000100114ad0 t __ZN12_GLOBAL__N_115X86DAGToDAGISel12emitPCMPISTREjjbRKN4llvm5SDLocENS1_3MVTEPNS1_6SDNodeE
0000000100115e20 t __ZN12_GLOBAL__N_115X86DAGToDAGISel12matchAddressEN4llvm7SDValueERNS_18X86ISelAddressModeE
0000000100118fb0 t __ZN12_GLOBAL__N_115X86DAGToDAGISel12matchWrapperEN4llvm7SDValueERNS_18X86ISelAddressModeE
000000010011b950 t __ZN12_GLOBAL__N_115X86DAGToDAGISel13selectLEAAddrEN4llvm7SDValueERS2_S3_S3_S3_S3_
00000001001124a0 t __ZN12_GLOBAL__N_115X86DAGToDAGISel14RunSDNodeXFormEN4llvm7SDValueEj
0000000100113710 t __ZN12_GLOBAL__N_115X86DAGToDAGISel15matchBitExtractEPN4llvm6SDNodeE
0000000100103a00 t __ZN12_GLOBAL__N_115X86DAGToDAGISel17PreprocessISelDAGEv
000000010011bd00 t __ZN12_GLOBAL__N_115X86DAGToDAGISel17selectTLSADDRAddrEN4llvm7SDValueERS2_S3_S3_S3_S3_
0000000100104ab0 t __ZN12_GLOBAL__N_115X86DAGToDAGISel18PostprocessISelDAGEv
0000000100115f40 t __ZN12_GLOBAL__N_115X86DAGToDAGISel18getAddressOperandsERNS_18X86ISelAddressModeERKN4llvm5SDLocERNS3_7SDValueES8_S8_S8_S8_
0000000100111070 t __ZN12_GLOBAL__N_115X86DAGToDAGISel19CheckComplexPatternEPN4llvm6SDNodeES3_NS1_7SDValueEjRNS1_15SmallVectorImplINSt3__14pairIS4_S3_EEEE
000000010011b520 t __ZN12_GLOBAL__N_115X86DAGToDAGISel19selectScalarSSELoadEPN4llvm6SDNodeES3_NS1_7SDValueERS4_S5_S5_S5_S5_S5_
00000001001140d0 t __ZN12_GLOBAL__N_115X86DAGToDAGISel20matchBEXTRFromAndImmEPN4llvm6SDNodeE
00000001001035c0 t __ZN12_GLOBAL__N_115X86DAGToDAGISel20runOnMachineFunctionERN4llvm15MachineFunctionE
0000000100103610 t __ZN12_GLOBAL__N_115X86DAGToDAGISel21EmitFunctionEntryCodeEv
00000001001162e0 t __ZN12_GLOBAL__N_115X86DAGToDAGISel23matchAddressRecursivelyEN4llvm7SDValueERNS_18X86ISelAddressModeEj
000000010011bf30 t __ZN12_GLOBAL__N_115X86DAGToDAGISel25getInsertVINSERTImmediateEPN4llvm6SDNodeEjRKNS1_5SDLocE
000000010010d010 t __ZN12_GLOBAL__N_115X86DAGToDAGISel28SelectInlineAsmMemoryOperandERKN4llvm7SDValueEjRNSt3__16vectorIS2_NS5_9allocatorIS2_EEEE
0000000100105a50 t __ZN12_GLOBAL__N_115X86DAGToDAGISel6SelectEPN4llvm6SDNodeE
0000000100119b70 t __ZN12_GLOBAL__N_115X86DAGToDAGISel8matchAddEN4llvm7SDValueERNS_18X86ISelAddressModeEj
0000000100103580 t __ZN12_GLOBAL__N_115X86DAGToDAGISelD0Ev
0000000100103570 t __ZN12_GLOBAL__N_115X86DAGToDAGISelD1Ev
000000010008d760 t __ZN12_GLOBAL__N_115X86ExpandPseudo20runOnMachineFunctionERN4llvm15MachineFunctionE
0000000101590499 b __ZN12_GLOBAL__N_115X86ExpandPseudo2IDE
000000010008d620 t __ZN12_GLOBAL__N_115X86ExpandPseudoD0Ev
000000010008d5e0 t __ZN12_GLOBAL__N_115X86ExpandPseudoD1Ev
0000000100ee1f00 t __ZN12_GLOBAL__N_115parent_path_endEN4llvm9StringRefENS0_3sys4path5StyleE
0000000101580360 s __ZN12_GLOBAL__N_116ARMAttributeTagsE
00000001006b0a80 t __ZN12_GLOBAL__N_116BranchFolderPass20runOnMachineFunctionERN4llvm15MachineFunctionE
0000000101595b88 b __ZN12_GLOBAL__N_116BranchFolderPass2IDE
00000001006b09e0 t __ZN12_GLOBAL__N_116BranchFolderPassD0Ev
00000001006b09a0 t __ZN12_GLOBAL__N_116BranchFolderPassD1Ev
00000001006b3d60 t __ZN12_GLOBAL__N_116BranchRelaxation18adjustBlockOffsetsERN4llvm17MachineBasicBlockE
00000001006b4300 t __ZN12_GLOBAL__N_116BranchRelaxation19createNewBlockAfterERN4llvm17MachineBasicBlockE
00000001006b1f30 t __ZN12_GLOBAL__N_116BranchRelaxation20runOnMachineFunctionERN4llvm15MachineFunctionE
0000000101595b98 b __ZN12_GLOBAL__N_116BranchRelaxation2IDE
00000001006b1c50 t __ZN12_GLOBAL__N_116BranchRelaxation7dumpBBsEv
00000001006b1ef0 t __ZN12_GLOBAL__N_116BranchRelaxationD0Ev
00000001006b1e10 t __ZN12_GLOBAL__N_116BranchRelaxationD1Ev
00000001006b9170 t __ZN12_GLOBAL__N_116CFIInstrInserter20runOnMachineFunctionERN4llvm15MachineFunctionE
0000000101595c78 b __ZN12_GLOBAL__N_116CFIInstrInserter2IDE
00000001006b90e0 t __ZN12_GLOBAL__N_116CFIInstrInserterD0Ev
00000001006b9080 t __ZN12_GLOBAL__N_116CFIInstrInserterD1Ev
0000000100e9d590 t __ZN12_GLOBAL__N_116DebugCounterListD0Ev
0000000100e9beb0 t __ZN12_GLOBAL__N_116DebugCounterListD1Ev
00000001006f5f60 t __ZN12_GLOBAL__N_116EarlyIfConverter12tryConvertIfEPN4llvm17MachineBasicBlockE
00000001006f5630 t __ZN12_GLOBAL__N_116EarlyIfConverter20runOnMachineFunctionERN4llvm15MachineFunctionE
0000000101596f80 b __ZN12_GLOBAL__N_116EarlyIfConverter2IDE
00000001006f54a0 t __ZN12_GLOBAL__N_116EarlyIfConverterD0Ev
00000001006f53d0 t __ZN12_GLOBAL__N_116EarlyIfConverterD1Ev
0000000101599ba9 b __ZN12_GLOBAL__N_116EarlyMachineLICM2IDE
00000001007dd230 t __ZN12_GLOBAL__N_116EarlyMachineLICMD0Ev
00000001007dd220 t __ZN12_GLOBAL__N_116EarlyMachineLICMD1Ev
0000000100700cc0 t __ZN12_GLOBAL__N_116ExpandMemCmpPass13runOnFunctionERN4llvm8FunctionE
0000000101597130 b __ZN12_GLOBAL__N_116ExpandMemCmpPass2IDE
0000000100700c60 t __ZN12_GLOBAL__N_116ExpandMemCmpPassD0Ev
0000000100700c50 t __ZN12_GLOBAL__N_116ExpandMemCmpPassD1Ev
0000000100706370 t __ZN12_GLOBAL__N_116ExpandReductions13runOnFunctionERN4llvm8FunctionE
0000000101597150 b __ZN12_GLOBAL__N_116ExpandReductions2IDE
0000000100706320 t __ZN12_GLOBAL__N_116ExpandReductionsD0Ev
0000000100706310 t __ZN12_GLOBAL__N_116ExpandReductionsD1Ev
0000000100ee7640 t __ZN12_GLOBAL__N_116FileToRemoveListD1Ev
000000010007d1d0 t __ZN12_GLOBAL__N_116FormalArgHandler15markPhysRegUsedEj
000000010007ce30 t __ZN12_GLOBAL__N_116FormalArgHandlerD0Ev
00000001000714e0 t __ZN12_GLOBAL__N_116FormalArgHandlerD1Ev
0000000100c60660 t __ZN12_GLOBAL__N_116FrameEmitterImpl19EmitCFIInstructionsEN4llvm8ArrayRefINS1_16MCCFIInstructionEEEPNS1_8MCSymbolE
0000000100e235f0 t __ZN12_GLOBAL__N_116GetCFGOnlyPasses13passEnumerateEPKN4llvm8PassInfoE
0000000100e235e0 t __ZN12_GLOBAL__N_116GetCFGOnlyPassesD0Ev
0000000100e23170 t __ZN12_GLOBAL__N_116GetCFGOnlyPassesD1Ev
0000000100724ff0 t __ZN12_GLOBAL__N_116HoistSpillHelper14runHoistSpillsERN4llvm12LiveIntervalERNS1_6VNInfoERNS1_11SmallPtrSetIPNS1_12MachineInstrELj16EEERNS1_15SmallVectorImplIS8_EERNS1_8DenseMapIPNS1_17MachineBasicBlockEjNS1_12DenseMapInfoISG_EENS1_6detail12DenseMapPairISG_jEEEE
000000010071f790 t __ZN12_GLOBAL__N_116HoistSpillHelper19LRE_DidCloneVirtRegEjj
0000000100723260 t __ZN12_GLOBAL__N_116HoistSpillHelper20addToMergeableSpillsERN4llvm12MachineInstrEij
0000000100722f10 t __ZN12_GLOBAL__N_116HoistSpillHelper21rmFromMergeableSpillsERN4llvm12MachineInstrEi
000000010071f770 t __ZN12_GLOBAL__N_116HoistSpillHelperD0Ev
000000010071f650 t __ZN12_GLOBAL__N_116HoistSpillHelperD1Ev
00000001015a29c8 b __ZN12_GLOBAL__N_116LCSSAWrapperPass2IDE
00000001008fad00 t __ZN12_GLOBAL__N_116MIRCanonicalizer20runOnMachineFunctionERN4llvm15MachineFunctionE
000000010159d3a8 b __ZN12_GLOBAL__N_116MIRCanonicalizer2IDE
00000001008fac60 t __ZN12_GLOBAL__N_116MIRCanonicalizerD0Ev
00000001008fac20 t __ZN12_GLOBAL__N_116MIRCanonicalizerD1Ev
0000000100844f30 t __ZN12_GLOBAL__N_116MachineScheduler20runOnMachineFunctionERN4llvm15MachineFunctionE
000000010159acb0 b __ZN12_GLOBAL__N_116MachineScheduler2IDE
0000000100844d90 t __ZN12_GLOBAL__N_116MachineSchedulerD0Ev
0000000100844d40 t __ZN12_GLOBAL__N_116MachineSchedulerD1Ev
000000010095ef40 t __ZN12_GLOBAL__N_116StackMapLiveness20runOnMachineFunctionERN4llvm15MachineFunctionE
000000010159ded8 b __ZN12_GLOBAL__N_116StackMapLiveness2IDE
000000010095ee90 t __ZN12_GLOBAL__N_116StackMapLivenessD0Ev
000000010095ee20 t __ZN12_GLOBAL__N_116StackMapLivenessD1Ev
0000000100cae350 t __ZN12_GLOBAL__N_116TypeNameComputer12visitTypeEndERN4llvm8codeview8CVRecordINS2_12TypeLeafKindEEE
0000000100cae310 t __ZN12_GLOBAL__N_116TypeNameComputer14visitTypeBeginERN4llvm8codeview8CVRecordINS2_12TypeLeafKindEEE
0000000100cae330 t __ZN12_GLOBAL__N_116TypeNameComputer14visitTypeBeginERN4llvm8codeview8CVRecordINS2_12TypeLeafKindEEENS2_9TypeIndexE
0000000100caf240 t __ZN12_GLOBAL__N_116TypeNameComputer16visitKnownRecordERN4llvm8codeview8CVRecordINS2_12TypeLeafKindEEERNS2_10EnumRecordE
0000000100caf060 t __ZN12_GLOBAL__N_116TypeNameComputer16visitKnownRecordERN4llvm8codeview8CVRecordINS2_12TypeLeafKindEEERNS2_11ArrayRecordE
0000000100caf100 t __ZN12_GLOBAL__N_116TypeNameComputer16visitKnownRecordERN4llvm8codeview8CVRecordINS2_12TypeLeafKindEEERNS2_11ClassRecordE
0000000100caed70 t __ZN12_GLOBAL__N_116TypeNameComputer16visitKnownRecordERN4llvm8codeview8CVRecordINS2_12TypeLeafKindEEERNS2_11LabelRecordE
0000000100caf1a0 t __ZN12_GLOBAL__N_116TypeNameComputer16visitKnownRecordERN4llvm8codeview8CVRecordINS2_12TypeLeafKindEEERNS2_11UnionRecordE
0000000100caf5b0 t __ZN12_GLOBAL__N_116TypeNameComputer16visitKnownRecordERN4llvm8codeview8CVRecordINS2_12TypeLeafKindEEERNS2_12FuncIdRecordE
0000000100caed80 t __ZN12_GLOBAL__N_116TypeNameComputer16visitKnownRecordERN4llvm8codeview8CVRecordINS2_12TypeLeafKindEEERNS2_13ArgListRecordE
0000000100cae360 t __ZN12_GLOBAL__N_116TypeNameComputer16visitKnownRecordERN4llvm8codeview8CVRecordINS2_12TypeLeafKindEEERNS2_13PointerRecordE
0000000100caf9f0 t __ZN12_GLOBAL__N_116TypeNameComputer16visitKnownRecordERN4llvm8codeview8CVRecordINS2_12TypeLeafKindEEERNS2_13PrecompRecordE
0000000100caf380 t __ZN12_GLOBAL__N_116TypeNameComputer16visitKnownRecordERN4llvm8codeview8CVRecordINS2_12TypeLeafKindEEERNS2_13VFTableRecordE
0000000100caf5a0 t __ZN12_GLOBAL__N_116TypeNameComputer16visitKnownRecordERN4llvm8codeview8CVRecordINS2_12TypeLeafKindEEERNS2_14BitFieldRecordE
0000000100cae830 t __ZN12_GLOBAL__N_116TypeNameComputer16visitKnownRecordERN4llvm8codeview8CVRecordINS2_12TypeLeafKindEEERNS2_14ModifierRecordE
0000000100caf920 t __ZN12_GLOBAL__N_116TypeNameComputer16visitKnownRecordERN4llvm8codeview8CVRecordINS2_12TypeLeafKindEEERNS2_14StringIdRecordE
0000000100caf6f0 t __ZN12_GLOBAL__N_116TypeNameComputer16visitKnownRecordERN4llvm8codeview8CVRecordINS2_12TypeLeafKindEEERNS2_15BuildInfoRecordE
0000000100caefc0 t __ZN12_GLOBAL__N_116TypeNameComputer16visitKnownRecordERN4llvm8codeview8CVRecordINS2_12TypeLeafKindEEERNS2_15FieldListRecordE
0000000100caea40 t __ZN12_GLOBAL__N_116TypeNameComputer16visitKnownRecordERN4llvm8codeview8CVRecordINS2_12TypeLeafKindEEERNS2_15ProcedureRecordE
0000000100cafa00 t __ZN12_GLOBAL__N_116TypeNameComputer16visitKnownRecordERN4llvm8codeview8CVRecordINS2_12TypeLeafKindEEERNS2_16EndPrecompRecordE
0000000100caf700 t __ZN12_GLOBAL__N_116TypeNameComputer16visitKnownRecordERN4llvm8codeview8CVRecordINS2_12TypeLeafKindEEERNS2_16StringListRecordE
0000000100caf2e0 t __ZN12_GLOBAL__N_116TypeNameComputer16visitKnownRecordERN4llvm8codeview8CVRecordINS2_12TypeLeafKindEEERNS2_17TypeServer2RecordE
0000000100caf650 t __ZN12_GLOBAL__N_116TypeNameComputer16visitKnownRecordERN4llvm8codeview8CVRecordINS2_12TypeLeafKindEEERNS2_18MemberFuncIdRecordE
0000000100caf450 t __ZN12_GLOBAL__N_116TypeNameComputer16visitKnownRecordERN4llvm8codeview8CVRecordINS2_12TypeLeafKindEEERNS2_18VFTableShapeRecordE
0000000100caf9c0 t __ZN12_GLOBAL__N_116TypeNameComputer16visitKnownRecordERN4llvm8codeview8CVRecordINS2_12TypeLeafKindEEERNS2_19UdtSourceLineRecordE
0000000100caebc0 t __ZN12_GLOBAL__N_116TypeNameComputer16visitKnownRecordERN4llvm8codeview8CVRecordINS2_12TypeLeafKindEEERNS2_20MemberFunctionRecordE
0000000100caf9d0 t __ZN12_GLOBAL__N_116TypeNameComputer16visitKnownRecordERN4llvm8codeview8CVRecordINS2_12TypeLeafKindEEERNS2_22UdtModSourceLineRecordE
0000000100caf9e0 t __ZN12_GLOBAL__N_116TypeNameComputer16visitKnownRecordERN4llvm8codeview8CVRecordINS2_12TypeLeafKindEEERNS2_24MethodOverloadListRecordE
0000000100cae2d0 t __ZN12_GLOBAL__N_116TypeNameComputerD0Ev
0000000100cae2a0 t __ZN12_GLOBAL__N_116TypeNameComputerD1Ev
0000000100c9cb30 t __ZN12_GLOBAL__N_116WasmObjectWriter10endSectionERNS_18SectionBookkeepingE
0000000100c91370 t __ZN12_GLOBAL__N_116WasmObjectWriter11writeObjectERN4llvm11MCAssemblerERKNS1_11MCAsmLayoutE
0000000100c9c900 t __ZN12_GLOBAL__N_116WasmObjectWriter12startSectionERNS_18SectionBookkeepingEj
0000000100c9cd90 t __ZN12_GLOBAL__N_116WasmObjectWriter16applyRelocationsEN4llvm8ArrayRefINS_19WasmRelocationEntryEEEy
0000000100c907f0 t __ZN12_GLOBAL__N_116WasmObjectWriter16recordRelocationERN4llvm11MCAssemblerERKNS1_11MCAsmLayoutEPKNS1_10MCFragmentERKNS1_7MCFixupENS1_7MCValueERy
0000000100c9a140 t __ZN12_GLOBAL__N_116WasmObjectWriter17writeRelocSectionEjN4llvm9StringRefERNSt3__16vectorINS_19WasmRelocationEntryENS3_9allocatorIS5_EEEE
0000000100c9d8b0 t __ZN12_GLOBAL__N_116WasmObjectWriter18startCustomSectionERNS_18SectionBookkeepingEN4llvm9StringRefE
0000000100c994b0 t __ZN12_GLOBAL__N_116WasmObjectWriter20registerFunctionTypeERKN4llvm12MCSymbolWasmE
0000000100c9d720 t __ZN12_GLOBAL__N_116WasmObjectWriter23getRelocationIndexValueERKNS_19WasmRelocationEntryE
0000000100c90680 t __ZN12_GLOBAL__N_116WasmObjectWriter24executePostLayoutBindingERN4llvm11MCAssemblerERKNS1_11MCAsmLayoutE
0000000100c8fa40 t __ZN12_GLOBAL__N_116WasmObjectWriter5resetEv
0000000100c8fa20 t __ZN12_GLOBAL__N_116WasmObjectWriterD0Ev
0000000100c8f7f0 t __ZN12_GLOBAL__N_116WasmObjectWriterD1Ev
0000000100086250 t __ZN12_GLOBAL__N_116X86CondBrFolding13replaceBrDestEPN4llvm17MachineBasicBlockES3_S3_
0000000100086070 t __ZN12_GLOBAL__N_116X86CondBrFolding17fixupModifiedCondEPN4llvm17MachineBasicBlockE
0000000100603dc0 t __ZN12_GLOBAL__N_116X86MCCodeEmitterD0Ev
0000000100603db0 t __ZN12_GLOBAL__N_116X86MCCodeEmitterD1Ev
0000000100705bd0 t __ZN12_GLOBAL__N_116expandReductionsERN4llvm8FunctionEPKNS0_19TargetTransformInfoE
0000000100acdc00 t __ZN12_GLOBAL__N_116getValueAsDoubleEPN4llvm10ConstantFPE
0000000100cdf5a0 t __ZN12_GLOBAL__N_117BitcodeReaderBase18parseVersionRecordEN4llvm8ArrayRefIyEE
0000000100cd1740 t __ZN12_GLOBAL__N_117BitcodeReaderBase5errorERKN4llvm5TwineE
000000010007d240 t __ZN12_GLOBAL__N_117CallReturnHandler15markPhysRegUsedEj
000000010007d230 t __ZN12_GLOBAL__N_117CallReturnHandlerD0Ev
0000000100071ec0 t __ZN12_GLOBAL__N_117CallReturnHandlerD1Ev
0000000100e97620 t __ZN12_GLOBAL__N_117CommandLineParser12updateArgStrEPN4llvm2cl6OptionENS1_9StringRefEPNS2_10SubCommandE
0000000100e96e30 t __ZN12_GLOBAL__N_117CommandLineParser16addLiteralOptionERN4llvm2cl6OptionEPNS2_10SubCommandENS1_9StringRefE
0000000100e931a0 t __ZN12_GLOBAL__N_117CommandLineParser18registerSubCommandEPN4llvm2cl10SubCommandE
0000000100e971a0 t __ZN12_GLOBAL__N_117CommandLineParser9addOptionEPN4llvm2cl6OptionEPNS2_10SubCommandE
0000000100268f30 t __ZN12_GLOBAL__N_117EvexToVexInstPass20runOnMachineFunctionERN4llvm15MachineFunctionE
00000001015910d0 b __ZN12_GLOBAL__N_117EvexToVexInstPass2IDE
0000000100268ec0 t __ZN12_GLOBAL__N_117EvexToVexInstPassD0Ev
0000000100268e80 t __ZN12_GLOBAL__N_117EvexToVexInstPassD1Ev
0000000100700840 t __ZN12_GLOBAL__N_117ExpandISelPseudos20runOnMachineFunctionERN4llvm15MachineFunctionE
0000000101597058 b __ZN12_GLOBAL__N_117ExpandISelPseudos2IDE
00000001007007e0 t __ZN12_GLOBAL__N_117ExpandISelPseudosD0Ev
00000001007007a0 t __ZN12_GLOBAL__N_117ExpandISelPseudosD1Ev
000000010008a340 t __ZN12_GLOBAL__N_117InstrCOPYReplacerD0Ev
000000010008a330 t __ZN12_GLOBAL__N_117InstrCOPYReplacerD1Ev
00000001007f3da0 t __ZN12_GLOBAL__N_117InstructionMapper18mapToLegalUnsignedERN4llvm26MachineInstrBundleIteratorINS1_12MachineInstrELb0EEERbS6_RjRNSt3__16vectorIjNS8_9allocatorIjEEEERNS9_IS4_NSA_IS4_EEEE
00000001007f3ad0 t __ZN12_GLOBAL__N_117InstructionMapper20mapToIllegalUnsignedERN4llvm26MachineInstrBundleIteratorINS1_12MachineInstrELb0EEERbRNSt3__16vectorIjNS7_9allocatorIjEEEERNS8_IS4_NS9_IS4_EEEE
000000010072bb50 t __ZN12_GLOBAL__N_117InterleavedAccess13runOnFunctionERN4llvm8FunctionE
0000000101598260 b __ZN12_GLOBAL__N_117InterleavedAccess2IDE
000000010072ba90 t __ZN12_GLOBAL__N_117InterleavedAccessD0Ev
000000010072ba80 t __ZN12_GLOBAL__N_117InterleavedAccessD1Ev
0000000100532b40 t __ZN12_GLOBAL__N_117MatchStateUpdater11NodeDeletedEPN4llvm6SDNodeES3_
0000000100532af0 t __ZN12_GLOBAL__N_117MatchStateUpdaterD0Ev
0000000100532aa0 t __ZN12_GLOBAL__N_117MatchStateUpdaterD1Ev
0000000100018d80 t __ZN12_GLOBAL__N_117PPCVSXSwapRemoval14dumpSwapVectorEv
00000001015a6da0 b __ZN12_GLOBAL__N_117PassRemarksMissedE
0000000100875870 t __ZN12_GLOBAL__N_117PatchableFunction20runOnMachineFunctionERN4llvm15MachineFunctionE
000000010159b460 b __ZN12_GLOBAL__N_117PatchableFunction2IDE
0000000100875820 t __ZN12_GLOBAL__N_117PatchableFunctionD0Ev
00000001008757e0 t __ZN12_GLOBAL__N_117PatchableFunctionD1Ev
0000000100890480 t __ZN12_GLOBAL__N_117PeepholeOptimizer14findNextSourceEN4llvm15TargetInstrInfo13RegSubRegPairERNS1_13SmallDenseMapIS3_NS_18ValueTrackerResultELj4ENS1_12DenseMapInfoIS3_EENS1_6detail12DenseMapPairIS3_S5_EEEE
000000010088ff30 t __ZN12_GLOBAL__N_117PeepholeOptimizer20findTargetRecurrenceEjRKN4llvm8SmallSetIjLj2ENSt3__14lessIjEEEERNS1_11SmallVectorINS_15RecurrenceInstrELj4EEE
000000010088b890 t __ZN12_GLOBAL__N_117PeepholeOptimizer20runOnMachineFunctionERN4llvm15MachineFunctionE
000000010159ba88 b __ZN12_GLOBAL__N_117PeepholeOptimizer2IDE
000000010088b750 t __ZN12_GLOBAL__N_117PeepholeOptimizerD0Ev
000000010088b710 t __ZN12_GLOBAL__N_117PeepholeOptimizerD1Ev
00000001008edab0 t __ZN12_GLOBAL__N_117RegisterCoalescer12addUndefFlagERKN4llvm12LiveIntervalENS1_9SlotIndexERNS1_14MachineOperandEj
00000001008db950 t __ZN12_GLOBAL__N_117RegisterCoalescer13releaseMemoryEv
00000001008dd660 t __ZN12_GLOBAL__N_117RegisterCoalescer14coalesceLocalsEv
00000001008de480 t __ZN12_GLOBAL__N_117RegisterCoalescer17eliminateDeadDefsEv
00000001008e8200 t __ZN12_GLOBAL__N_117RegisterCoalescer17updateRegDefsUsesEjjj
00000001008ddb10 t __ZN12_GLOBAL__N_117RegisterCoalescer20copyCoalesceWorkListEN4llvm15MutableArrayRefIPNS1_12MachineInstrEEE
00000001008db9e0 t __ZN12_GLOBAL__N_117RegisterCoalescer20runOnMachineFunctionERN4llvm15MachineFunctionE
00000001008dd790 t __ZN12_GLOBAL__N_117RegisterCoalescer22lateLiveIntervalUpdateEv
00000001008e6340 t __ZN12_GLOBAL__N_117RegisterCoalescer23reMaterializeTrivialDefERKN4llvm13CoalescerPairEPNS1_12MachineInstrERb
00000001008dd420 t __ZN12_GLOBAL__N_117RegisterCoalescer24LRE_WillEraseInstructionEPN4llvm12MachineInstrE
000000010159d208 b __ZN12_GLOBAL__N_117RegisterCoalescer2IDE
00000001008de680 t __ZN12_GLOBAL__N_117RegisterCoalescer8joinCopyEPN4llvm12MachineInstrERb
00000001008db770 t __ZN12_GLOBAL__N_117RegisterCoalescerD0Ev
00000001008db5f0 t __ZN12_GLOBAL__N_117RegisterCoalescerD1Ev
000000010158e170 b __ZN12_GLOBAL__N_117RoundSectionSizesE
0000000100458770 t __ZN12_GLOBAL__N_117ScheduleDAGRRList14ReleasePendingEv
0000000100452c20 t __ZN12_GLOBAL__N_117ScheduleDAGRRList19ReleasePredecessorsEPN4llvm5SUnitE
0000000100458910 t __ZN12_GLOBAL__N_117ScheduleDAGRRList20releaseInterferencesEj
0000000100453220 t __ZN12_GLOBAL__N_117ScheduleDAGRRList26PickNodeToScheduleBottomUpEv
0000000100458c90 t __ZN12_GLOBAL__N_117ScheduleDAGRRList8EmitNodeEPN4llvm5SUnitE
0000000100451830 t __ZN12_GLOBAL__N_117ScheduleDAGRRList8ScheduleEv
0000000100451810 t __ZN12_GLOBAL__N_117ScheduleDAGRRListD0Ev
0000000100451680 t __ZN12_GLOBAL__N_117ScheduleDAGRRListD1Ev
0000000100968d30 t __ZN12_GLOBAL__N_117StackSlotColoring20runOnMachineFunctionERN4llvm15MachineFunctionE
000000010159e1f0 b __ZN12_GLOBAL__N_117StackSlotColoring2IDE
0000000100968bc0 t __ZN12_GLOBAL__N_117StackSlotColoringD0Ev
0000000100968970 t __ZN12_GLOBAL__N_117StackSlotColoringD1Ev
0000000100c3aa80 t __ZN12_GLOBAL__N_117SymbolTableWriter11writeSymbolEjhyyhjb
000000010096f0b0 t __ZN12_GLOBAL__N_117TailDuplicateBase20runOnMachineFunctionERN4llvm15MachineFunctionE
000000010096f290 t __ZN12_GLOBAL__N_117TailDuplicateBaseD0Ev
000000010096f1c0 t __ZN12_GLOBAL__N_117TailDuplicateBaseD1Ev
00000001000d3be0 t __ZN12_GLOBAL__N_117X86FixupSetCCPass20runOnMachineFunctionERN4llvm15MachineFunctionE
0000000101590709 b __ZN12_GLOBAL__N_117X86FixupSetCCPass2IDE
00000001000d3b70 t __ZN12_GLOBAL__N_117X86FixupSetCCPassD0Ev
00000001000d3b30 t __ZN12_GLOBAL__N_117X86FixupSetCCPassD1Ev
00000001002414e0 t __ZN12_GLOBAL__N_117X86InsertPrefetch16doInitializationERN4llvm6ModuleE
0000000100241770 t __ZN12_GLOBAL__N_117X86InsertPrefetch20runOnMachineFunctionERN4llvm15MachineFunctionE
0000000101590c68 b __ZN12_GLOBAL__N_117X86InsertPrefetch2IDE
0000000100241440 t __ZN12_GLOBAL__N_117X86InsertPrefetchD0Ev
00000001002413c0 t __ZN12_GLOBAL__N_117X86InsertPrefetchD1Ev
0000000100243280 t __ZN12_GLOBAL__N_117X86MemUnfoldTable13addTableEntryERKN4llvm23X86MemoryFoldTableEntryEt
00000001000321a0 t __ZN12_GLOBAL__N_118ARMConstantIslands7dumpBBsEv
000000010158fbe8 b __ZN12_GLOBAL__N_118AddBuildAttributesE
00000001015a2768 b __ZN12_GLOBAL__N_118BreakCriticalEdges2IDE
00000001002d6c10 t __ZN12_GLOBAL__N_118DILocationVerifier12changedInstrERN4llvm12MachineInstrE
00000001002d6a70 t __ZN12_GLOBAL__N_118DILocationVerifier12createdInstrERN4llvm12MachineInstrE
00000001002d6a60 t __ZN12_GLOBAL__N_118DILocationVerifier12erasingInstrERN4llvm12MachineInstrE
00000001002d6c00 t __ZN12_GLOBAL__N_118DILocationVerifier13changingInstrERN4llvm12MachineInstrE
00000001002d6a20 t __ZN12_GLOBAL__N_118DILocationVerifierD0Ev
00000001002d3140 t __ZN12_GLOBAL__N_118DILocationVerifierD1Ev
0000000100c3b490 t __ZN12_GLOBAL__N_118ELFDwoObjectWriter11writeObjectERN4llvm11MCAssemblerERKNS1_11MCAsmLayoutE
0000000100c3b5e0 t __ZN12_GLOBAL__N_118ELFDwoObjectWriter15checkRelocationERN4llvm9MCContextENS1_5SMLocEPKNS1_12MCSectionELFES7_
0000000100c3b470 t __ZN12_GLOBAL__N_118ELFDwoObjectWriterD0Ev
0000000100c3b460 t __ZN12_GLOBAL__N_118ELFDwoObjectWriterD1Ev
000000010159e201 b __ZN12_GLOBAL__N_118EarlyTailDuplicate2IDE
000000010096f460 t __ZN12_GLOBAL__N_118EarlyTailDuplicateD0Ev
000000010096f390 t __ZN12_GLOBAL__N_118EarlyTailDuplicateD1Ev
0000000100ea0900 t __ZN12_GLOBAL__N_118ErrorErrorCategoryD0Ev
0000000100ea08f0 t __ZN12_GLOBAL__N_118ErrorErrorCategoryD1Ev
000000010071a560 t __ZN12_GLOBAL__N_118ImplicitNullChecks17computeDependenceEPKN4llvm12MachineInstrENS1_8ArrayRefIPS2_EE
0000000100718a60 t __ZN12_GLOBAL__N_118ImplicitNullChecks20runOnMachineFunctionERN4llvm15MachineFunctionE
00000001015980b8 b __ZN12_GLOBAL__N_118ImplicitNullChecks2IDE
000000010071a410 t __ZN12_GLOBAL__N_118ImplicitNullChecks9canHandleEPKN4llvm12MachineInstrE
00000001007189e0 t __ZN12_GLOBAL__N_118ImplicitNullChecksD0Ev
00000001007189a0 t __ZN12_GLOBAL__N_118ImplicitNullChecksD1Ev
00000001015a8d40 b __ZN12_GLOBAL__N_118InfoOutputFilenameE
0000000100782380 t __ZN12_GLOBAL__N_118LocalStackSlotPass17AdjustStackOffsetERN4llvm16MachineFrameInfoEiRxbRj
0000000100780df0 t __ZN12_GLOBAL__N_118LocalStackSlotPass20runOnMachineFunctionERN4llvm15MachineFunctionE
00000001015985c8 b __ZN12_GLOBAL__N_118LocalStackSlotPass2IDE
0000000100780d50 t __ZN12_GLOBAL__N_118LocalStackSlotPassD0Ev
0000000100780cf0 t __ZN12_GLOBAL__N_118LocalStackSlotPassD1Ev
00000001015a21f8 b __ZN12_GLOBAL__N_118LoopStrengthReduce2IDE
00000001009f64f0 t __ZN12_GLOBAL__N_118LoopStrengthReduce9runOnLoopEPN4llvm4LoopERNS1_13LPPassManagerE
00000001009f62d0 t __ZN12_GLOBAL__N_118LoopStrengthReduceD0Ev
00000001009f62c0 t __ZN12_GLOBAL__N_118LoopStrengthReduceD1Ev
0000000100414720 t __ZN12_GLOBAL__N_118NodeUpdateListener11NodeDeletedEPN4llvm6SDNodeES3_
0000000100414850 t __ZN12_GLOBAL__N_118NodeUpdateListener11NodeUpdatedEPN4llvm6SDNodeE
00000001004146d0 t __ZN12_GLOBAL__N_118NodeUpdateListenerD0Ev
000000010040e840 t __ZN12_GLOBAL__N_118NodeUpdateListenerD1Ev
00000001015a3b09 b __ZN12_GLOBAL__N_118PrintCallGraphPass2IDE
0000000100ac07d0 t __ZN12_GLOBAL__N_118PrintCallGraphPass8runOnSCCERN4llvm12CallGraphSCCE
0000000100ac0760 t __ZN12_GLOBAL__N_118PrintCallGraphPassD0Ev
0000000100ac0730 t __ZN12_GLOBAL__N_118PrintCallGraphPassD1Ev
000000010050f840 t __ZN12_GLOBAL__N_118RAUWUpdateListener11NodeDeletedEPN4llvm6SDNodeES3_
000000010050f7f0 t __ZN12_GLOBAL__N_118RAUWUpdateListenerD0Ev
00000001005097c0 t __ZN12_GLOBAL__N_118RAUWUpdateListenerD1Ev
0000000100acdd60 t __ZN12_GLOBAL__N_118ReadDataFromGlobalEPN4llvm8ConstantEyPhjRKNS0_10DataLayoutE
000000010045a5b0 t __ZN12_GLOBAL__N_118RegReductionPQBase10updateNodeEPKN4llvm5SUnitE
000000010045a5e0 t __ZN12_GLOBAL__N_118RegReductionPQBase12releaseStateEv
000000010045aac0 t __ZN12_GLOBAL__N_118RegReductionPQBase13scheduledNodeEPN4llvm5SUnitE
000000010045adb0 t __ZN12_GLOBAL__N_118RegReductionPQBase15unscheduledNodeEPN4llvm5SUnitE
000000010045a680 t __ZN12_GLOBAL__N_118RegReductionPQBase4pushEPN4llvm5SUnitE
000000010045a830 t __ZN12_GLOBAL__N_118RegReductionPQBase6removeEPN4llvm5SUnitE
000000010045a520 t __ZN12_GLOBAL__N_118RegReductionPQBase7addNodeEPKN4llvm5SUnitE
00000001004590d0 t __ZN12_GLOBAL__N_118RegReductionPQBase9initNodesERNSt3__16vectorIN4llvm5SUnitENS1_9allocatorIS4_EEEE
0000000100458d80 t __ZN12_GLOBAL__N_118RegReductionPQBaseC2ERN4llvm15MachineFunctionEbbbPKNS1_15TargetInstrInfoEPKNS1_18TargetRegisterInfoEPKNS1_14TargetLoweringE
000000010045b1f0 t __ZN12_GLOBAL__N_118RegReductionPQBaseD0Ev
000000010045b1e0 t __ZN12_GLOBAL__N_118RegReductionPQBaseD1Ev
0000000100acf400 t __ZN12_GLOBAL__N_118StripPtrCastKeepASEPN4llvm8ConstantERPNS0_4TypeE
00000001002b8400 t __ZN12_GLOBAL__N_118VZeroUpperInserter16insertVZeroUpperEN4llvm26MachineInstrBundleIteratorINS1_12MachineInstrELb0EEERNS1_17MachineBasicBlockE
00000001002b7690 t __ZN12_GLOBAL__N_118VZeroUpperInserter20runOnMachineFunctionERN4llvm15MachineFunctionE
0000000101591b48 b __ZN12_GLOBAL__N_118VZeroUpperInserter2IDE
00000001002b75f0 t __ZN12_GLOBAL__N_118VZeroUpperInserterD0Ev
00000001002b7570 t __ZN12_GLOBAL__N_118VZeroUpperInserterD1Ev
0000000100e5f830 t __ZN12_GLOBAL__N_118VerifierLegacyPass13runOnFunctionERN4llvm8FunctionE
0000000100e5f750 t __ZN12_GLOBAL__N_118VerifierLegacyPass14doFinalizationERN4llvm6ModuleE
0000000100e5f3d0 t __ZN12_GLOBAL__N_118VerifierLegacyPass16doInitializationERN4llvm6ModuleE
00000001015a7e68 b __ZN12_GLOBAL__N_118VerifierLegacyPass2IDE
0000000100e5f380 t __ZN12_GLOBAL__N_118VerifierLegacyPassD0Ev
0000000100e5f330 t __ZN12_GLOBAL__N_118VerifierLegacyPassD1Ev
000000010060bb00 t __ZN12_GLOBAL__N_118X86ELFObjectWriterD0Ev
000000010060baf0 t __ZN12_GLOBAL__N_118X86ELFObjectWriterD1Ev
0000000100287610 t __ZN12_GLOBAL__N_118X86RetpolineThunks13populateThunkERN4llvm15MachineFunctionEj
0000000100286da0 t __ZN12_GLOBAL__N_118X86RetpolineThunks16doInitializationERN4llvm6ModuleE
00000001002872d0 t __ZN12_GLOBAL__N_118X86RetpolineThunks19createThunkFunctionERN4llvm6ModuleENS1_9StringRefE
0000000100286e30 t __ZN12_GLOBAL__N_118X86RetpolineThunks20runOnMachineFunctionERN4llvm15MachineFunctionE
0000000101591260 b __ZN12_GLOBAL__N_118X86RetpolineThunks2IDE
0000000100286d30 t __ZN12_GLOBAL__N_118X86RetpolineThunksD0Ev
0000000100286cf0 t __ZN12_GLOBAL__N_118X86RetpolineThunksD1Ev
000000010060cc60 t __ZN12_GLOBAL__N_118X86WinCOFFStreamer10FinishImplEv
000000010060cc10 t __ZN12_GLOBAL__N_118X86WinCOFFStreamer13EmitCVFPODataEPKN4llvm8MCSymbolENS1_5SMLocE
000000010060cc30 t __ZN12_GLOBAL__N_118X86WinCOFFStreamer20EmitWinEHHandlerDataEN4llvm5SMLocE
000000010060cb40 t __ZN12_GLOBAL__N_118X86WinCOFFStreamer23EmitWindowsUnwindTablesEv
000000010060cba0 t __ZN12_GLOBAL__N_118X86WinCOFFStreamerD0Ev
000000010060cb70 t __ZN12_GLOBAL__N_118X86WinCOFFStreamerD1Ev
0000000100acf630 t __ZN12_GLOBAL__N_118isManifestConstantEPKN4llvm8ConstantE
00000001005f9070 t __ZN12_GLOBAL__N_119ELFX86_32AsmBackendD0Ev
00000001005f9060 t __ZN12_GLOBAL__N_119ELFX86_32AsmBackendD1Ev
00000001005f91a0 t __ZN12_GLOBAL__N_119ELFX86_64AsmBackendD0Ev
00000001005f9190 t __ZN12_GLOBAL__N_119ELFX86_64AsmBackendD1Ev
00000001007e4710 t __ZN12_GLOBAL__N_119FreeMachineFunction13runOnFunctionERN4llvm8FunctionE
0000000101599bd0 b __ZN12_GLOBAL__N_119FreeMachineFunction2IDE
00000001007e4650 t __ZN12_GLOBAL__N_119FreeMachineFunctionD0Ev
00000001007e4640 t __ZN12_GLOBAL__N_119FreeMachineFunctionD1Ev
0000000100848e80 t __ZN12_GLOBAL__N_119InstructionShuffler10initializeEPN4llvm13ScheduleDAGMIE
0000000100849160 t __ZN12_GLOBAL__N_119InstructionShuffler14releaseTopNodeEPN4llvm5SUnitE
0000000100849320 t __ZN12_GLOBAL__N_119InstructionShuffler17releaseBottomNodeEPN4llvm5SUnitE
0000000100848ea0 t __ZN12_GLOBAL__N_119InstructionShuffler8pickNodeERb
0000000100849150 t __ZN12_GLOBAL__N_119InstructionShuffler9schedNodeEPN4llvm5SUnitEb
0000000100848e30 t __ZN12_GLOBAL__N_119InstructionShufflerD0Ev
0000000100848de0 t __ZN12_GLOBAL__N_119InstructionShufflerD1Ev
0000000100675bd0 t __ZN12_GLOBAL__N_119LoadedELFObjectInfoD0Ev
0000000100675bb0 t __ZN12_GLOBAL__N_119LoadedELFObjectInfoD1Ev
000000010086a750 t __ZN12_GLOBAL__N_119MachineVerifierPass20runOnMachineFunctionERN4llvm15MachineFunctionE
000000010159b458 b __ZN12_GLOBAL__N_119MachineVerifierPass2IDE
000000010086a6c0 t __ZN12_GLOBAL__N_119MachineVerifierPassD0Ev
000000010086a660 t __ZN12_GLOBAL__N_119MachineVerifierPassD1Ev
000000010158dbc0 b __ZN12_GLOBAL__N_119MicroMipsSizeReduce11ReduceTableE
000000010002fb40 t __ZN12_GLOBAL__N_119MicroMipsSizeReduce13ReduceXWtoXWPEPNS_18ReduceEntryFunArgsE
0000000100030020 t __ZN12_GLOBAL__N_119MicroMipsSizeReduce14ReduceSXtoSX16EPNS_18ReduceEntryFunArgsE
000000010002fcb0 t __ZN12_GLOBAL__N_119MicroMipsSizeReduce14ReduceXWtoXWSPEPNS_18ReduceEntryFunArgsE
000000010002f9c0 t __ZN12_GLOBAL__N_119MicroMipsSizeReduce16ReduceLXUtoLXU16EPNS_18ReduceEntryFunArgsE
00000001000301b0 t __ZN12_GLOBAL__N_119MicroMipsSizeReduce16ReduceXORtoXOR16EPNS_18ReduceEntryFunArgsE
000000010002fdb0 t __ZN12_GLOBAL__N_119MicroMipsSizeReduce17ReduceMoveToMovepEPNS_18ReduceEntryFunArgsE
0000000100030330 t __ZN12_GLOBAL__N_119MicroMipsSizeReduce18ReplaceInstructionEPN4llvm12MachineInstrERKNS_11ReduceEntryES3_b
000000010002f7f0 t __ZN12_GLOBAL__N_119MicroMipsSizeReduce20ReduceADDIUToADDIUSPEPNS_18ReduceEntryFunArgsE
000000010002f6a0 t __ZN12_GLOBAL__N_119MicroMipsSizeReduce22ReduceADDIUToADDIUR1SPEPNS_18ReduceEntryFunArgsE
000000010002f8b0 t __ZN12_GLOBAL__N_119MicroMipsSizeReduce28ReduceArithmeticInstructionsEPNS_18ReduceEntryFunArgsE
000000010158e0d0 b __ZN12_GLOBAL__N_119MicroMipsSizeReduce6MipsIIE
0000000100025720 t __ZN12_GLOBAL__N_119MipsConstantIslands7dumpBBsEv
0000000100e908b0 t __ZN12_GLOBAL__N_119MutableArrayRefImpl10writeBytesEjN4llvm8ArrayRefIhEE
0000000100e90870 t __ZN12_GLOBAL__N_119MutableArrayRefImpl26readLongestContiguousChunkEjRN4llvm8ArrayRefIhEE
0000000100e90940 t __ZN12_GLOBAL__N_119MutableArrayRefImpl6commitEv
0000000100e90890 t __ZN12_GLOBAL__N_119MutableArrayRefImpl9getLengthEv
0000000100e90850 t __ZN12_GLOBAL__N_119MutableArrayRefImpl9readBytesEjjRN4llvm8ArrayRefIhEE
0000000100e90830 t __ZN12_GLOBAL__N_119MutableArrayRefImplD0Ev
0000000100e90820 t __ZN12_GLOBAL__N_119MutableArrayRefImplD1Ev
0000000100018650 t __ZN12_GLOBAL__N_119PPCReduceCRLogicals15CRLogicalOpInfo4dumpEv
00000001015a6e58 b __ZN12_GLOBAL__N_119PassRemarksAnalysisE
000000010089daa0 t __ZN12_GLOBAL__N_119ProcessImplicitDefs20runOnMachineFunctionERN4llvm15MachineFunctionE
000000010159c048 b __ZN12_GLOBAL__N_119ProcessImplicitDefs2IDE
000000010089d9f0 t __ZN12_GLOBAL__N_119ProcessImplicitDefsD0Ev
000000010089d940 t __ZN12_GLOBAL__N_119ProcessImplicitDefsD1Ev
0000000101595798 b __ZN12_GLOBAL__N_119RTDyldErrorCategoryE
0000000100893570 t __ZN12_GLOBAL__N_119RegSequenceRewriter20RewriteCurrentSourceEjj
0000000100893440 t __ZN12_GLOBAL__N_119RegSequenceRewriter23getNextRewritableSourceERN4llvm15TargetInstrInfo13RegSubRegPairES4_
0000000100893430 t __ZN12_GLOBAL__N_119RegSequenceRewriterD0Ev
0000000100893420 t __ZN12_GLOBAL__N_119RegSequenceRewriterD1Ev
0000000100907f40 t __ZN12_GLOBAL__N_119SafeStackLegacyPass13runOnFunctionERN4llvm8FunctionE
000000010159d578 b __ZN12_GLOBAL__N_119SafeStackLegacyPass2IDE
0000000100907ee0 t __ZN12_GLOBAL__N_119SafeStackLegacyPassD0Ev
0000000100907ed0 t __ZN12_GLOBAL__N_119SafeStackLegacyPassD1Ev
00000001006d59f0 t __ZN12_GLOBAL__N_119TypePromotionHelper22promoteOperandForOtherEPN4llvm11InstructionERNS_24TypePromotionTransactionERNS1_8DenseMapIS3_NS1_14PointerIntPairIPNS1_4TypeELj2ENS_7ExtTypeENS1_21PointerLikeTypeTraitsIS9_EENS1_18PointerIntPairInfoIS9_Lj2ESC_EEEENS1_12DenseMapInfoIS3_EENS1_6detail12DenseMapPairIS3_SF_EEEERjPNS1_15SmallVectorImplIS3_EESQ_RKNS1_14TargetLoweringEb
00000001006d4080 t __ZN12_GLOBAL__N_119TypePromotionHelper25signExtendOperandForOtherEPN4llvm11InstructionERNS_24TypePromotionTransactionERNS1_8DenseMapIS3_NS1_14PointerIntPairIPNS1_4TypeELj2ENS_7ExtTypeENS1_21PointerLikeTypeTraitsIS9_EENS1_18PointerIntPairInfoIS9_Lj2ESC_EEEENS1_12DenseMapInfoIS3_EENS1_6detail12DenseMapPairIS3_SF_EEEERjPNS1_15SmallVectorImplIS3_EESQ_RKNS1_14TargetLoweringE
00000001006d40a0 t __ZN12_GLOBAL__N_119TypePromotionHelper25zeroExtendOperandForOtherEPN4llvm11InstructionERNS_24TypePromotionTransactionERNS1_8DenseMapIS3_NS1_14PointerIntPairIPNS1_4TypeELj2ENS_7ExtTypeENS1_21PointerLikeTypeTraitsIS9_EENS1_18PointerIntPairInfoIS9_Lj2ESC_EEEENS1_12DenseMapInfoIS3_EENS1_6detail12DenseMapPairIS3_SF_EEEERjPNS1_15SmallVectorImplIS3_EESQ_RKNS1_14TargetLoweringE
00000001006d3d80 t __ZN12_GLOBAL__N_119TypePromotionHelper31promoteOperandForTruncAndAnyExtEPN4llvm11InstructionERNS_24TypePromotionTransactionERNS1_8DenseMapIS3_NS1_14PointerIntPairIPNS1_4TypeELj2ENS_7ExtTypeENS1_21PointerLikeTypeTraitsIS9_EENS1_18PointerIntPairInfoIS9_Lj2ESC_EEEENS1_12DenseMapInfoIS3_EENS1_6detail12DenseMapPairIS3_SF_EEEERjPNS1_15SmallVectorImplIS3_EESQ_RKNS1_14TargetLoweringE
00000001006d3640 t __ZN12_GLOBAL__N_119TypePromotionHelper9getActionEPN4llvm11InstructionERKNS1_11SmallPtrSetIS3_Lj16EEERKNS1_14TargetLoweringERKNS1_8DenseMapIS3_NS1_14PointerIntPairIPNS1_4TypeELj2ENS_7ExtTypeENS1_21PointerLikeTypeTraitsISE_EENS1_18PointerIntPairInfoISE_Lj2ESH_EEEENS1_12DenseMapInfoIS3_EENS1_6detail12DenseMapPairIS3_SK_EEEE
0000000100ca0ee0 t __ZN12_GLOBAL__N_119WinCOFFObjectWriter11writeObjectERN4llvm11MCAssemblerERKNS1_11MCAsmLayoutE
0000000100ca3040 t __ZN12_GLOBAL__N_119WinCOFFObjectWriter12createSymbolEN4llvm9StringRefE
0000000100ca0da0 t __ZN12_GLOBAL__N_119WinCOFFObjectWriter16addAddrsigSymbolEPKN4llvm8MCSymbolE
0000000100ca0490 t __ZN12_GLOBAL__N_119WinCOFFObjectWriter16recordRelocationERN4llvm11MCAssemblerERKNS1_11MCAsmLayoutEPKNS1_10MCFragmentERKNS1_7MCFixupENS1_7MCValueERy
0000000100ca0d90 t __ZN12_GLOBAL__N_119WinCOFFObjectWriter18emitAddrsigSectionEv
0000000100ca3390 t __ZN12_GLOBAL__N_119WinCOFFObjectWriter21GetOrCreateCOFFSymbolEPKN4llvm8MCSymbolE
0000000100c9f7c0 t __ZN12_GLOBAL__N_119WinCOFFObjectWriter24executePostLayoutBindingERN4llvm11MCAssemblerERKNS1_11MCAsmLayoutE
0000000100c9f060 t __ZN12_GLOBAL__N_119WinCOFFObjectWriter5resetEv
0000000100c9f040 t __ZN12_GLOBAL__N_119WinCOFFObjectWriterD0Ev
0000000100c9eed0 t __ZN12_GLOBAL__N_119WinCOFFObjectWriterD1Ev
0000000100046380 t __ZN12_GLOBAL__N_119X86AddressSanitizer18InstrumentMOVSBaseEjjjjRN4llvm9MCContextERNS1_10MCStreamerE
0000000100045670 t __ZN12_GLOBAL__N_119X86AddressSanitizer24ComputeMemOperandAddressERN4llvm10X86OperandEjjRNS1_9MCContextERNS1_10MCStreamerE
00000001000423e0 t __ZN12_GLOBAL__N_119X86AddressSanitizer28InstrumentAndEmitInstructionERKN4llvm6MCInstERNS1_15SmallVectorImplINSt3__110unique_ptrINS1_18MCParsedAsmOperandENS6_14default_deleteIS8_EEEEEERNS1_9MCContextERKNS1_11MCInstrInfoERNS1_10MCStreamerEb
0000000100045c50 t __ZN12_GLOBAL__N_119X86AddressSanitizer7EmitLEAERN4llvm10X86OperandEjjRNS1_10MCStreamerE
0000000100609a70 t __ZN12_GLOBAL__N_119X86MachObjectWriter16recordRelocationEPN4llvm16MachObjectWriterERNS1_11MCAssemblerERKNS1_11MCAsmLayoutEPKNS1_10MCFragmentERKNS1_7MCFixupENS1_7MCValueERy
000000010060b3f0 t __ZN12_GLOBAL__N_119X86MachObjectWriter25recordScatteredRelocationEPN4llvm16MachObjectWriterERKNS1_11MCAssemblerERKNS1_11MCAsmLayoutEPKNS1_10MCFragmentERKNS1_7MCFixupENS1_7MCValueEjRy
0000000100609a30 t __ZN12_GLOBAL__N_119X86MachObjectWriterD0Ev
0000000100609a20 t __ZN12_GLOBAL__N_119X86MachObjectWriterD1Ev
00000001009b9b20 t __ZN12_GLOBAL__N_119XRayInstrumentation20runOnMachineFunctionERN4llvm15MachineFunctionE
00000001009ba540 t __ZN12_GLOBAL__N_119XRayInstrumentation26replaceRetWithPatchableRetERN4llvm15MachineFunctionEPKNS1_15TargetInstrInfoENS_22InstrumentationOptionsE
00000001015a1448 b __ZN12_GLOBAL__N_119XRayInstrumentation2IDE
00000001009b9a00 t __ZN12_GLOBAL__N_119XRayInstrumentationD0Ev
00000001009b99c0 t __ZN12_GLOBAL__N_119XRayInstrumentationD1Ev
0000000100763d10 t __ZN12_GLOBAL__N_120CalcLiveRangeUtilSet13findInsertPosEN4llvm9LiveRange7SegmentE
00000001005f9140 t __ZN12_GLOBAL__N_120ELFX86_X32AsmBackendD0Ev
00000001005f9130 t __ZN12_GLOBAL__N_120ELFX86_X32AsmBackendD1Ev
0000000100a0fe80 t __ZN12_GLOBAL__N_120FastDivInsertionTask12createFastBBEPN4llvm10BasicBlockE
0000000100a0f860 t __ZN12_GLOBAL__N_120FastDivInsertionTask13getValueRangeEPN4llvm5ValueERNS1_11SmallPtrSetIPNS1_11InstructionELj4EEE
0000000100a10220 t __ZN12_GLOBAL__N_120FastDivInsertionTask20createDivRemPhiNodesERNS_13QuotRemWithBBES2_PN4llvm10BasicBlockE
0000000100ca8f80 t __ZN12_GLOBAL__N_120FieldListVisitHelperC1ERN4llvm8codeview20TypeVisitorCallbacksENS1_8ArrayRefIhEENS2_17VisitorDataSourceE
000000010007ce40 t __ZN12_GLOBAL__N_120IncomingValueHandler15getStackAddressEyxRN4llvm18MachinePointerInfoE
000000010007cf80 t __ZN12_GLOBAL__N_120IncomingValueHandler16assignValueToRegEjjRN4llvm11CCValAssignE
000000010007d0f0 t __ZN12_GLOBAL__N_120IncomingValueHandler20assignValueToAddressEjjyRN4llvm18MachinePointerInfoERNS1_11CCValAssignE
000000010007d220 t __ZN12_GLOBAL__N_120IncomingValueHandlerD0Ev
000000010007d210 t __ZN12_GLOBAL__N_120IncomingValueHandlerD1Ev
000000010071ad50 t __ZN12_GLOBAL__N_120IndirectBrExpandPass13runOnFunctionERN4llvm8FunctionE
00000001015980d0 b __ZN12_GLOBAL__N_120IndirectBrExpandPass2IDE
000000010071ad30 t __ZN12_GLOBAL__N_120IndirectBrExpandPassD0Ev
000000010071ad20 t __ZN12_GLOBAL__N_120IndirectBrExpandPassD1Ev
0000000100893140 t __ZN12_GLOBAL__N_120InsertSubregRewriter20RewriteCurrentSourceEjj
0000000100893040 t __ZN12_GLOBAL__N_120InsertSubregRewriter23getNextRewritableSourceERN4llvm15TargetInstrInfo13RegSubRegPairES4_
0000000100893030 t __ZN12_GLOBAL__N_120InsertSubregRewriterD0Ev
0000000100893020 t __ZN12_GLOBAL__N_120InsertSubregRewriterD1Ev
000000010008a170 t __ZN12_GLOBAL__N_120InstrReplaceWithCopyD0Ev
000000010008a160 t __ZN12_GLOBAL__N_120InstrReplaceWithCopyD1Ev
000000010008a940 t __ZN12_GLOBAL__N_120InstrReplacerDstCOPYD0Ev
000000010008a930 t __ZN12_GLOBAL__N_120InstrReplacerDstCOPYD1Ev
000000010066d0f0 t __ZN12_GLOBAL__N_120LoadedCOFFObjectInfoD0Ev
000000010066d0d0 t __ZN12_GLOBAL__N_120LoadedCOFFObjectInfoD1Ev
0000000100845400 t __ZN12_GLOBAL__N_120MachineSchedulerBase15scheduleRegionsERN4llvm17ScheduleDAGInstrsEb
0000000100ea88e0 t __ZN12_GLOBAL__N_120MemoryBufferMMapFileIN4llvm12MemoryBufferEED0Ev
0000000100ea88c0 t __ZN12_GLOBAL__N_120MemoryBufferMMapFileIN4llvm12MemoryBufferEED1Ev
0000000100075860 t __ZN12_GLOBAL__N_120OutgoingValueHandler15getStackAddressEyxRN4llvm18MachinePointerInfoE
0000000100075a50 t __ZN12_GLOBAL__N_120OutgoingValueHandler16assignValueToRegEjjRN4llvm11CCValAssignE
0000000100075c00 t __ZN12_GLOBAL__N_120OutgoingValueHandler20assignValueToAddressEjjyRN4llvm18MachinePointerInfoERNS1_11CCValAssignE
0000000100075d10 t __ZN12_GLOBAL__N_120OutgoingValueHandler9assignArgEjN4llvm3MVTES2_NS1_11CCValAssign7LocInfoERKNS1_12CallLowering7ArgInfoERNS1_7CCStateE
0000000100075850 t __ZN12_GLOBAL__N_120OutgoingValueHandlerD0Ev
000000010006e9d0 t __ZN12_GLOBAL__N_120OutgoingValueHandlerD1Ev
0000000100846300 t __ZN12_GLOBAL__N_120PostMachineScheduler20runOnMachineFunctionERN4llvm15MachineFunctionE
000000010159acc0 b __ZN12_GLOBAL__N_120PostMachineScheduler2IDE
0000000100846240 t __ZN12_GLOBAL__N_120PostMachineSchedulerD0Ev
00000001008461f0 t __ZN12_GLOBAL__N_120PostMachineSchedulerD1Ev
0000000100854b00 t __ZN12_GLOBAL__N_120PostRAMachineSinking20runOnMachineFunctionERN4llvm15MachineFunctionE
000000010159b438 b __ZN12_GLOBAL__N_120PostRAMachineSinking2IDE
0000000100854a90 t __ZN12_GLOBAL__N_120PostRAMachineSinkingD0Ev
00000001008549a0 t __ZN12_GLOBAL__N_120PostRAMachineSinkingD1Ev
00000001015a4ae8 b __ZN12_GLOBAL__N_120PrintLoopPassWrapper2IDE
0000000100b097d0 t __ZN12_GLOBAL__N_120PrintLoopPassWrapper9runOnLoopEPN4llvm4LoopERNS1_13LPPassManagerE
0000000100b09760 t __ZN12_GLOBAL__N_120PrintLoopPassWrapperD0Ev
0000000100b09730 t __ZN12_GLOBAL__N_120PrintLoopPassWrapperD1Ev
0000000100907a30 t __ZN12_GLOBAL__N_120ResetMachineFunction20runOnMachineFunctionERN4llvm15MachineFunctionE
000000010159d4a8 b __ZN12_GLOBAL__N_120ResetMachineFunction2IDE
0000000100907940 t __ZN12_GLOBAL__N_120ResetMachineFunctionD0Ev
0000000100907900 t __ZN12_GLOBAL__N_120ResetMachineFunctionD1Ev
00000001004c57d0 t __ZN12_GLOBAL__N_120SDISelAsmOperandInfoC1EOS0_
000000010089b840 t __ZN12_GLOBAL__N_120SchedulePostRATDList10exitRegionEv
000000010089a8c0 t __ZN12_GLOBAL__N_120SchedulePostRATDList10startBlockEPN4llvm17MachineBasicBlockE
000000010089a900 t __ZN12_GLOBAL__N_120SchedulePostRATDList11enterRegionEPN4llvm17MachineBasicBlockENS1_26MachineInstrBundleIteratorINS1_12MachineInstrELb0EEES6_j
000000010089bca0 t __ZN12_GLOBAL__N_120SchedulePostRATDList11finishBlockEv
000000010089b910 t __ZN12_GLOBAL__N_120SchedulePostRATDList12EmitScheduleEv
000000010089be30 t __ZN12_GLOBAL__N_120SchedulePostRATDList17ReleaseSuccessorsEPN4llvm5SUnitE
000000010089c0b0 t __ZN12_GLOBAL__N_120SchedulePostRATDList8emitNoopEj
000000010089a930 t __ZN12_GLOBAL__N_120SchedulePostRATDList8scheduleEv
000000010089bdf0 t __ZN12_GLOBAL__N_120SchedulePostRATDListD0Ev
000000010089bcd0 t __ZN12_GLOBAL__N_120SchedulePostRATDListD1Ev
00000001003b5af0 t __ZN12_GLOBAL__N_120SelectionDAGLegalize10ExpandNodeEPN4llvm6SDNodeE
00000001003b1630 t __ZN12_GLOBAL__N_120SelectionDAGLegalize10LegalizeOpEPN4llvm6SDNodeE
00000001003ccbf0 t __ZN12_GLOBAL__N_120SelectionDAGLegalize11PromoteNodeEPN4llvm6SDNodeE
00000001003b54c0 t __ZN12_GLOBAL__N_120SelectionDAGLegalize11ReplaceNodeEN4llvm7SDValueES2_
00000001003b57b0 t __ZN12_GLOBAL__N_120SelectionDAGLegalize11ReplaceNodeEPN4llvm6SDNodeEPKNS1_7SDValueE
00000001003b51b0 t __ZN12_GLOBAL__N_120SelectionDAGLegalize11ReplaceNodeEPN4llvm6SDNodeES3_
00000001003d51b0 t __ZN12_GLOBAL__N_120SelectionDAGLegalize13ExpandLibCallEN4llvm5RTLIB7LibcallENS1_3EVTEPKNS1_7SDValueEjbRKNS1_5SDLocE
00000001003d6e90 t __ZN12_GLOBAL__N_120SelectionDAGLegalize13ExpandLibCallEN4llvm5RTLIB7LibcallEPNS1_6SDNodeEb
00000001003d1200 t __ZN12_GLOBAL__N_120SelectionDAGLegalize15LegalizeLoadOpsEPN4llvm6SDNodeE
00000001003d3890 t __ZN12_GLOBAL__N_120SelectionDAGLegalize16EmitStackConvertEN4llvm7SDValueENS1_3EVTES3_RKNS1_5SDLocE
00000001003c8760 t __ZN12_GLOBAL__N_120SelectionDAGLegalize20ConvertNodeToLibcallEPN4llvm6SDNodeE
00000001003d5840 t __ZN12_GLOBAL__N_120SelectionDAGLegalize21LegalizeSetCCCondCodeEN4llvm3EVTERNS1_7SDValueES4_S4_RbRKNS1_5SDLocE
00000001003d45c0 t __ZN12_GLOBAL__N_120SelectionDAGLegalize29ExpandVectorBuildThroughStackEPN4llvm6SDNodeE
00000001003d3d80 t __ZN12_GLOBAL__N_120SelectionDAGLegalize35ExpandExtractFromVectorThroughStackEN4llvm7SDValueE
0000000100ac17d0 t __ZN12_GLOBAL__N_120SimpleCaptureTracker11tooManyUsesEv
0000000100ac17e0 t __ZN12_GLOBAL__N_120SimpleCaptureTracker8capturedEPKN4llvm3UseE
0000000100ac17c0 t __ZN12_GLOBAL__N_120SimpleCaptureTrackerD0Ev
0000000100ac14f0 t __ZN12_GLOBAL__N_120SimpleCaptureTrackerD1Ev
00000001007c9c20 t __ZN12_GLOBAL__N_120UnpackMachineBundles20runOnMachineFunctionERN4llvm15MachineFunctionE
0000000101599888 b __ZN12_GLOBAL__N_120UnpackMachineBundles2IDE
00000001007c9ba0 t __ZN12_GLOBAL__N_120UnpackMachineBundlesD0Ev
00000001007c9b30 t __ZN12_GLOBAL__N_120UnpackMachineBundlesD1Ev
00000001005f8f10 t __ZN12_GLOBAL__N_120WindowsX86AsmBackendD0Ev
00000001005f8f00 t __ZN12_GLOBAL__N_120WindowsX86AsmBackendD1Ev
000000010007db50 t __ZN12_GLOBAL__N_120X86CmovConverterPass20runOnMachineFunctionERN4llvm15MachineFunctionE
000000010007f830 t __ZN12_GLOBAL__N_120X86CmovConverterPass21collectCmovCandidatesEN4llvm8ArrayRefIPNS1_17MachineBasicBlockEEERNS1_11SmallVectorINS6_IPNS1_12MachineInstrELj2EEELj2EEEb
00000001015902f0 b __ZN12_GLOBAL__N_120X86CmovConverterPass2IDE
000000010007da90 t __ZN12_GLOBAL__N_120X86CmovConverterPassD0Ev
000000010007da20 t __ZN12_GLOBAL__N_120X86CmovConverterPassD1Ev
0000000100083ea0 t __ZN12_GLOBAL__N_120X86CondBrFoldingPass20runOnMachineFunctionERN4llvm15MachineFunctionE
0000000101590300 b __ZN12_GLOBAL__N_120X86CondBrFoldingPass2IDE
0000000100083e00 t __ZN12_GLOBAL__N_120X86CondBrFoldingPassD0Ev
0000000100083dc0 t __ZN12_GLOBAL__N_120X86CondBrFoldingPassD1Ev
00000001002b86c0 t __ZN12_GLOBAL__N_120X86WinAllocaExpander20runOnMachineFunctionERN4llvm15MachineFunctionE
0000000101591b49 b __ZN12_GLOBAL__N_120X86WinAllocaExpander2IDE
00000001002b8650 t __ZN12_GLOBAL__N_120X86WinAllocaExpanderD0Ev
00000001002b8610 t __ZN12_GLOBAL__N_120X86WinAllocaExpanderD1Ev
00000001009fad10 t __ZN12_GLOBAL__N_120visitICmpLoadOperandEPN4llvm5ValueERNS_14BaseIdentifierE
00000001006db6d0 t __ZN12_GLOBAL__N_121AddressingModeMatcher16matchScaledValueEPN4llvm5ValueExj
00000001006d9ed0 t __ZN12_GLOBAL__N_121AddressingModeMatcher18matchOperationAddrEPN4llvm4UserEjjPb
00000001006d9480 t __ZN12_GLOBAL__N_121AddressingModeMatcher9matchAddrEPN4llvm5ValueEj
000000010075c7e0 t __ZN12_GLOBAL__N_121CalcLiveRangeUtilBaseINS_20CalcLiveRangeUtilSetENSt3__121__tree_const_iteratorIN4llvm9LiveRange7SegmentEPNS2_11__tree_nodeIS6_PvEElEENS2_3setIS6_NS2_4lessIS6_EENS2_9allocatorIS6_EEEEE13createDeadDefENS4_9SlotIndexEPNS4_20BumpPtrAllocatorImplINS4_15MallocAllocatorELm4096ELm4096EEEPNS4_6VNInfoE
0000000100763e20 t __ZN12_GLOBAL__N_121CalcLiveRangeUtilBaseINS_20CalcLiveRangeUtilSetENSt3__121__tree_const_iteratorIN4llvm9LiveRange7SegmentEPNS2_11__tree_nodeIS6_PvEElEENS2_3setIS6_NS2_4lessIS6_EENS2_9allocatorIS6_EEEEE18extendSegmentEndToESB_NS4_9SlotIndexE
000000010075ce60 t __ZN12_GLOBAL__N_121CalcLiveRangeUtilBaseINS_23CalcLiveRangeUtilVectorEPN4llvm9LiveRange7SegmentENS2_11SmallVectorIS4_Lj2EEEE13createDeadDefENS2_9SlotIndexEPNS2_20BumpPtrAllocatorImplINS2_15MallocAllocatorELm4096ELm4096EEEPNS2_6VNInfoE
00000001007641b0 t __ZN12_GLOBAL__N_121CalcLiveRangeUtilBaseINS_23CalcLiveRangeUtilVectorEPN4llvm9LiveRange7SegmentENS2_11SmallVectorIS4_Lj2EEEE18extendSegmentEndToES5_NS2_9SlotIndexE
0000000100c34860 t __ZN12_GLOBAL__N_121ELFSingleObjectWriter11writeObjectERN4llvm11MCAssemblerERKNS1_11MCAsmLayoutE
0000000100c32fe0 t __ZN12_GLOBAL__N_121ELFSingleObjectWriterD0Ev
0000000100c32fd0 t __ZN12_GLOBAL__N_121ELFSingleObjectWriterD1Ev
0000000100893320 t __ZN12_GLOBAL__N_121ExtractSubregRewriter20RewriteCurrentSourceEjj
0000000100893220 t __ZN12_GLOBAL__N_121ExtractSubregRewriter23getNextRewritableSourceERN4llvm15TargetInstrInfo13RegSubRegPairES4_
0000000100893210 t __ZN12_GLOBAL__N_121ExtractSubregRewriterD0Ev
0000000100893200 t __ZN12_GLOBAL__N_121ExtractSubregRewriterD1Ev
000000010070b2e0 t __ZN12_GLOBAL__N_121GCMachineCodeAnalysis20runOnMachineFunctionERN4llvm15MachineFunctionE
0000000101597190 b __ZN12_GLOBAL__N_121GCMachineCodeAnalysis2IDE
000000010070b250 t __ZN12_GLOBAL__N_121GCMachineCodeAnalysisD0Ev
000000010070b210 t __ZN12_GLOBAL__N_121GCMachineCodeAnalysisD1Ev
0000000101564350 s __ZN12_GLOBAL__N_121InstrProfSectNameCoffE
0000000100693bb0 t __ZN12_GLOBAL__N_121LoadedMachOObjectInfoD0Ev
0000000100693b90 t __ZN12_GLOBAL__N_121LoadedMachOObjectInfoD1Ev
0000000100a3be20 t __ZN12_GLOBAL__N_121LowerInvokeLegacyPass13runOnFunctionERN4llvm8FunctionE
00000001015a29e8 b __ZN12_GLOBAL__N_121LowerInvokeLegacyPass2IDE
0000000100a3be00 t __ZN12_GLOBAL__N_121LowerInvokeLegacyPassD0Ev
0000000100a3bdf0 t __ZN12_GLOBAL__N_121LowerInvokeLegacyPassD1Ev
00000001007a10f0 t __ZN12_GLOBAL__N_121MachineBlockPlacement10buildChainEPKN4llvm17MachineBasicBlockERNS_10BlockChainEPNS1_14SmallSetVectorIS4_Lj16EEE
00000001007a0a70 t __ZN12_GLOBAL__N_121MachineBlockPlacement13fillWorkListsEPKN4llvm17MachineBasicBlockERNS1_15SmallPtrSetImplIPNS_10BlockChainEEEPKNS1_14SmallSetVectorIS4_Lj16EEE
0000000100799850 t __ZN12_GLOBAL__N_121MachineBlockPlacement14buildCFGChainsEv
000000010079c1e0 t __ZN12_GLOBAL__N_121MachineBlockPlacement15buildLoopChainsERKN4llvm11MachineLoopE
00000001007a60b0 t __ZN12_GLOBAL__N_121MachineBlockPlacement19markBlockSuccessorsERKNS_10BlockChainEPKN4llvm17MachineBasicBlockES7_PKNS4_14SmallSetVectorIS7_Lj16EEE
0000000100797870 t __ZN12_GLOBAL__N_121MachineBlockPlacement20runOnMachineFunctionERN4llvm15MachineFunctionE
00000001007a71a0 t __ZN12_GLOBAL__N_121MachineBlockPlacement21isProfitableToTailDupEPKN4llvm17MachineBasicBlockES4_NS1_17BranchProbabilityERKNS_10BlockChainEPKNS1_14SmallSetVectorIS4_Lj16EEE
00000001007a63d0 t __ZN12_GLOBAL__N_121MachineBlockPlacement23collectViableSuccessorsEPKN4llvm17MachineBasicBlockERKNS_10BlockChainEPKNS1_14SmallSetVectorIS4_Lj16EEERNS1_11SmallVectorIPS2_Lj4EEE
00000001007a9b40 t __ZN12_GLOBAL__N_121MachineBlockPlacement23maybeTailDuplicateBlockEPN4llvm17MachineBasicBlockES3_RNS_10BlockChainEPNS1_14SmallSetVectorIPKS2_Lj16EEERNS1_14ilist_iteratorINS1_12ilist_detail12node_optionsIS2_Lb1ELb0EvEELb0ELb0EEERb
00000001007a5ac0 t __ZN12_GLOBAL__N_121MachineBlockPlacement24selectBestCandidateBlockERKNS_10BlockChainERN4llvm15SmallVectorImplIPNS4_17MachineBasicBlockEEE
00000001007a67a0 t __ZN12_GLOBAL__N_121MachineBlockPlacement26hasBetterLayoutPredecessorEPKN4llvm17MachineBasicBlockES4_RKNS_10BlockChainENS1_17BranchProbabilityES8_S7_PKNS1_14SmallSetVectorIS4_Lj16EEE
00000001007a6d20 t __ZN12_GLOBAL__N_121MachineBlockPlacement29canTailDuplicateUnplacedPredsEPKN4llvm17MachineBasicBlockEPS2_RKNS_10BlockChainEPKNS1_14SmallSetVectorIS4_Lj16EEE
0000000101599448 b __ZN12_GLOBAL__N_121MachineBlockPlacement2IDE
00000001007977e0 t __ZN12_GLOBAL__N_121MachineBlockPlacementD0Ev
00000001007975f0 t __ZN12_GLOBAL__N_121MachineBlockPlacementD1Ev
0000000100862a00 t __ZN12_GLOBAL__N_121MinInstrCountEnsemble13pickTracePredEPKN4llvm17MachineBasicBlockE
0000000100862bf0 t __ZN12_GLOBAL__N_121MinInstrCountEnsemble13pickTraceSuccEPKN4llvm17MachineBasicBlockE
0000000100862fa0 t __ZN12_GLOBAL__N_121MinInstrCountEnsembleD0Ev
0000000100862f90 t __ZN12_GLOBAL__N_121MinInstrCountEnsembleD1Ev
0000000100a12d70 t __ZN12_GLOBAL__N_121PruningFunctionCloner10CloneBlockEPKN4llvm10BasicBlockENS1_14ilist_iteratorINS1_12ilist_detail12node_optionsINS1_11InstructionELb1ELb0EvEELb0ELb1EEERNSt3__16vectorIS4_NSB_9allocatorIS4_EEEE
0000000100905ed0 t __ZN12_GLOBAL__N_121RegUsageInfoCollector20runOnMachineFunctionERN4llvm15MachineFunctionE
000000010159d490 b __ZN12_GLOBAL__N_121RegUsageInfoCollector2IDE
0000000100905e20 t __ZN12_GLOBAL__N_121RegUsageInfoCollectorD0Ev
0000000100905de0 t __ZN12_GLOBAL__N_121RegUsageInfoCollectorD1Ev
0000000100b7ad80 t __ZN12_GLOBAL__N_121SCEVPredicateRewriter12visitUnknownEPKN4llvm11SCEVUnknownE
0000000100b7a660 t __ZN12_GLOBAL__N_121SCEVPredicateRewriter19visitSignExtendExprEPKN4llvm18SCEVSignExtendExprE
0000000100b7a530 t __ZN12_GLOBAL__N_121SCEVPredicateRewriter19visitZeroExtendExprEPKN4llvm18SCEVZeroExtendExprE
000000010092d650 t __ZN12_GLOBAL__N_121ShadowStackGCLowering13runOnFunctionERN4llvm8FunctionE
000000010092d340 t __ZN12_GLOBAL__N_121ShadowStackGCLowering16doInitializationERN4llvm6ModuleE
000000010159dad8 b __ZN12_GLOBAL__N_121ShadowStackGCLowering2IDE
000000010092ec50 t __ZN12_GLOBAL__N_121ShadowStackGCLowering9CreateGEPERN4llvm11LLVMContextERNS1_9IRBuilderINS1_14ConstantFolderENS1_24IRBuilderDefaultInserterEEEPNS1_4TypeEPNS1_5ValueEiPKc
000000010092eb30 t __ZN12_GLOBAL__N_121ShadowStackGCLowering9CreateGEPERN4llvm11LLVMContextERNS1_9IRBuilderINS1_14ConstantFolderENS1_24IRBuilderDefaultInserterEEEPNS1_4TypeEPNS1_5ValueEiiPKc
000000010092d300 t __ZN12_GLOBAL__N_121ShadowStackGCLoweringD0Ev
000000010092d2c0 t __ZN12_GLOBAL__N_121ShadowStackGCLoweringD1Ev
00000001006e1380 t __ZN12_GLOBAL__N_121SimplificationTracker15destroyNewNodesEPN4llvm4TypeE
00000001006e17b0 t __ZN12_GLOBAL__N_121SimplificationTracker3GetEPN4llvm5ValueE
0000000100891c50 t __ZN12_GLOBAL__N_121UncoalescableRewriter20RewriteCurrentSourceEjj
0000000100890380 t __ZN12_GLOBAL__N_121UncoalescableRewriter23getNextRewritableSourceERN4llvm15TargetInstrInfo13RegSubRegPairES4_
0000000100891c40 t __ZN12_GLOBAL__N_121UncoalescableRewriterD0Ev
0000000100891c30 t __ZN12_GLOBAL__N_121UncoalescableRewriterD1Ev
0000000100045df0 t __ZN12_GLOBAL__N_121X86AddressSanitizer3218EmitCallAsanReportEjbRN4llvm9MCContextERNS1_10MCStreamerERKNS_19X86AddressSanitizer15RegisterContextE
0000000100044bf0 t __ZN12_GLOBAL__N_121X86AddressSanitizer3218InstrumentMOVSImplEjRN4llvm9MCContextERNS1_10MCStreamerE
0000000100044520 t __ZN12_GLOBAL__N_121X86AddressSanitizer3225InstrumentMemOperandLargeERN4llvm10X86OperandEjbRKNS_19X86AddressSanitizer15RegisterContextERNS1_9MCContextERNS1_10MCStreamerE
0000000100043470 t __ZN12_GLOBAL__N_121X86AddressSanitizer3225InstrumentMemOperandSmallERN4llvm10X86OperandEjbRKNS_19X86AddressSanitizer15RegisterContextERNS1_9MCContextERNS1_10MCStreamerE
0000000100042fd0 t __ZN12_GLOBAL__N_121X86AddressSanitizer3228InstrumentMemOperandEpilogueERKNS_19X86AddressSanitizer15RegisterContextERN4llvm9MCContextERNS5_10MCStreamerE
00000001000429e0 t __ZN12_GLOBAL__N_121X86AddressSanitizer3228InstrumentMemOperandPrologueERKNS_19X86AddressSanitizer15RegisterContextERN4llvm9MCContextERNS5_10MCStreamerE
00000001000423d0 t __ZN12_GLOBAL__N_121X86AddressSanitizer32D0Ev
00000001000423c0 t __ZN12_GLOBAL__N_121X86AddressSanitizer32D1Ev
0000000100049120 t __ZN12_GLOBAL__N_121X86AddressSanitizer6413EmitAdjustRSPERN4llvm9MCContextERNS1_10MCStreamerEl
0000000100049260 t __ZN12_GLOBAL__N_121X86AddressSanitizer6418EmitCallAsanReportEjbRN4llvm9MCContextERNS1_10MCStreamerERKNS_19X86AddressSanitizer15RegisterContextE
0000000100048df0 t __ZN12_GLOBAL__N_121X86AddressSanitizer6418InstrumentMOVSImplEjRN4llvm9MCContextERNS1_10MCStreamerE
0000000100048720 t __ZN12_GLOBAL__N_121X86AddressSanitizer6425InstrumentMemOperandLargeERN4llvm10X86OperandEjbRKNS_19X86AddressSanitizer15RegisterContextERNS1_9MCContextERNS1_10MCStreamerE
0000000100047600 t __ZN12_GLOBAL__N_121X86AddressSanitizer6425InstrumentMemOperandSmallERN4llvm10X86OperandEjbRKNS_19X86AddressSanitizer15RegisterContextERNS1_9MCContextERNS1_10MCStreamerE
0000000100047150 t __ZN12_GLOBAL__N_121X86AddressSanitizer6428InstrumentMemOperandEpilogueERKNS_19X86AddressSanitizer15RegisterContextERN4llvm9MCContextERNS5_10MCStreamerE
0000000100046b50 t __ZN12_GLOBAL__N_121X86AddressSanitizer6428InstrumentMemOperandPrologueERKNS_19X86AddressSanitizer15RegisterContextERN4llvm9MCContextERNS5_10MCStreamerE
0000000100046b40 t __ZN12_GLOBAL__N_121X86AddressSanitizer64D0Ev
0000000100046b30 t __ZN12_GLOBAL__N_121X86AddressSanitizer64D1Ev
000000010008b560 t __ZN12_GLOBAL__N_121X86DiscriminateMemOps20runOnMachineFunctionERN4llvm15MachineFunctionE
0000000101590498 b __ZN12_GLOBAL__N_121X86DiscriminateMemOps2IDE
000000010008b4f0 t __ZN12_GLOBAL__N_121X86DiscriminateMemOpsD0Ev
000000010008b4b0 t __ZN12_GLOBAL__N_121X86DiscriminateMemOpsD1Ev
000000010008afb0 t __ZN12_GLOBAL__N_121X86DomainReassignment12encloseInstrERNS_7ClosureEPN4llvm12MachineInstrE
000000010008ad60 t __ZN12_GLOBAL__N_121X86DomainReassignment13visitRegisterERNS_7ClosureEjRNS_9RegDomainERN4llvm15SmallVectorImplIjEE
0000000100086fb0 t __ZN12_GLOBAL__N_121X86DomainReassignment20runOnMachineFunctionERN4llvm15MachineFunctionE
00000001015903d0 b __ZN12_GLOBAL__N_121X86DomainReassignment2IDE
0000000100086ed0 t __ZN12_GLOBAL__N_121X86DomainReassignmentD0Ev
0000000100086e40 t __ZN12_GLOBAL__N_121X86DomainReassignmentD1Ev
0000000101591ac0 b __ZN12_GLOBAL__N_121X86ExecutionDomainFix2IDE
00000001002a1840 t __ZN12_GLOBAL__N_121X86ExecutionDomainFixD0Ev
00000001002a1830 t __ZN12_GLOBAL__N_121X86ExecutionDomainFixD1Ev
00000001015a6440 b __ZN12_GLOBAL__N_121kExpectedProducerNameE
00000001006de0f0 t __ZN12_GLOBAL__N_122AddressingModeCombiner10findCommonERN4llvm8DenseMapIPNS1_5ValueES4_NS1_12DenseMapInfoIS4_EENS1_6detail12DenseMapPairIS4_S4_EEEE
0000000100e97a00 t __ZN12_GLOBAL__N_122CategorizedHelpPrinter12printOptionsERN4llvm11SmallVectorINSt3__14pairIPKcPNS1_2cl6OptionEEELj128EEEm
0000000100e985b0 t __ZN12_GLOBAL__N_122CategorizedHelpPrinter21OptionCategoryCompareEPKPN4llvm2cl14OptionCategoryES6_
0000000100e985a0 t __ZN12_GLOBAL__N_122CategorizedHelpPrinterD0Ev
0000000100e952d0 t __ZN12_GLOBAL__N_122CategorizedHelpPrinterD1Ev
0000000100ac99e0 t __ZN12_GLOBAL__N_122ConstantFoldScalarCallEN4llvm9StringRefEjPNS0_4TypeENS0_8ArrayRefIPNS0_8ConstantEEEPKNS0_17TargetLibraryInfoENS0_17ImmutableCallSiteE
00000001005f7440 t __ZN12_GLOBAL__N_122DarwinX86_32AsmBackendD0Ev
00000001005f7430 t __ZN12_GLOBAL__N_122DarwinX86_32AsmBackendD1Ev
00000001005f90d0 t __ZN12_GLOBAL__N_122DarwinX86_64AsmBackendD0Ev
00000001005f90c0 t __ZN12_GLOBAL__N_122DarwinX86_64AsmBackendD1Ev
00000001005f9010 t __ZN12_GLOBAL__N_122ELFX86_IAMCUAsmBackendD0Ev
00000001005f9000 t __ZN12_GLOBAL__N_122ELFX86_IAMCUAsmBackendD1Ev
00000001007c9f20 t __ZN12_GLOBAL__N_122FinalizeMachineBundles20runOnMachineFunctionERN4llvm15MachineFunctionE
0000000101599898 b __ZN12_GLOBAL__N_122FinalizeMachineBundles2IDE
00000001007c9ed0 t __ZN12_GLOBAL__N_122FinalizeMachineBundlesD0Ev
00000001007c9e90 t __ZN12_GLOBAL__N_122FinalizeMachineBundlesD1Ev
0000000100acfb80 t __ZN12_GLOBAL__N_122GetConstantFoldFPValueEdPN4llvm4TypeE
000000010072dce0 t __ZN12_GLOBAL__N_122InterleavedLoadCombine13runOnFunctionERN4llvm8FunctionE
0000000101598330 b __ZN12_GLOBAL__N_122InterleavedLoadCombine2IDE
000000010072dc60 t __ZN12_GLOBAL__N_122InterleavedLoadCombineD0Ev
000000010072dc50 t __ZN12_GLOBAL__N_122InterleavedLoadCombineD1Ev
00000001007b1d40 t __ZN12_GLOBAL__N_122MachineCopyPropagation11forwardUsesERN4llvm12MachineInstrE
00000001007b2840 t __ZN12_GLOBAL__N_122MachineCopyPropagation12ReadRegisterEj
00000001007b18c0 t __ZN12_GLOBAL__N_122MachineCopyPropagation16eraseIfRedundantERN4llvm12MachineInstrEjj
00000001007b0220 t __ZN12_GLOBAL__N_122MachineCopyPropagation20runOnMachineFunctionERN4llvm15MachineFunctionE
00000001007b31d0 t __ZN12_GLOBAL__N_122MachineCopyPropagation25isForwardableRegClassCopyERKN4llvm12MachineInstrES4_j
00000001015996c4 b __ZN12_GLOBAL__N_122MachineCopyPropagation2IDE
00000001007b01d0 t __ZN12_GLOBAL__N_122MachineCopyPropagationD0Ev
00000001007b00c0 t __ZN12_GLOBAL__N_122MachineCopyPropagationD1Ev
0000000100899630 t __ZN12_GLOBAL__N_122PostRAHazardRecognizer20runOnMachineFunctionERN4llvm15MachineFunctionE
000000010159bce8 b __ZN12_GLOBAL__N_122PostRAHazardRecognizer2IDE
00000001008995b0 t __ZN12_GLOBAL__N_122PostRAHazardRecognizerD0Ev
0000000100899570 t __ZN12_GLOBAL__N_122PostRAHazardRecognizerD1Ev
0000000100dc5de0 t __ZN12_GLOBAL__N_122PrintModulePassWrapper11runOnModuleERN4llvm6ModuleE
00000001015a6fd8 b __ZN12_GLOBAL__N_122PrintModulePassWrapper2IDE
0000000100dc5d50 t __ZN12_GLOBAL__N_122PrintModulePassWrapperD0Ev
0000000100dc5d20 t __ZN12_GLOBAL__N_122PrintModulePassWrapperD1Ev
0000000100036e40 t __ZN12_GLOBAL__N_122X86GenericDisassemblerD0Ev
0000000100036e00 t __ZN12_GLOBAL__N_122X86GenericDisassemblerD1Ev
0000000101590740 b __ZN12_GLOBAL__N_122X86InstructionSelector15CustomRenderersE
0000000101590730 b __ZN12_GLOBAL__N_122X86InstructionSelector19ComplexPredicateFnsE
00000001000f17c0 t __ZN12_GLOBAL__N_122X86InstructionSelectorD0Ev
00000001000f1650 t __ZN12_GLOBAL__N_122X86InstructionSelectorD1Ev
000000010060c780 t __ZN12_GLOBAL__N_122X86WinCOFFObjectWriterD0Ev
000000010060c770 t __ZN12_GLOBAL__N_122X86WinCOFFObjectWriterD1Ev
0000000100be6e10 t __ZN12_GLOBAL__N_122_object_error_categoryD0Ev
0000000100be6e00 t __ZN12_GLOBAL__N_122_object_error_categoryD1Ev
0000000100ebcff0 t __ZN12_GLOBAL__N_123CreateDefaultTimerGroup4callEv
0000000101564380 s __ZN12_GLOBAL__N_123InstrProfSectNameCommonE
0000000101564320 s __ZN12_GLOBAL__N_123InstrProfSectNamePrefixE
0000000100a54490 t __ZN12_GLOBAL__N_123LockstepReverseIterator5resetEv
00000001015a6cc8 b __ZN12_GLOBAL__N_123PassRemarksMissedOptLocE
00000001015a6cb8 b __ZN12_GLOBAL__N_123PassRemarksPassedOptLocE
0000000100906ef0 t __ZN12_GLOBAL__N_123RegUsageInfoPropagation20runOnMachineFunctionERN4llvm15MachineFunctionE
000000010159d4a0 b __ZN12_GLOBAL__N_123RegUsageInfoPropagation2IDE
0000000100906e40 t __ZN12_GLOBAL__N_123RegUsageInfoPropagationD0Ev
0000000100906e00 t __ZN12_GLOBAL__N_123RegUsageInfoPropagationD1Ev
0000000100ce0620 t __ZN12_GLOBAL__N_124BitcodeErrorCategoryTypeD0Ev
0000000100ce0610 t __ZN12_GLOBAL__N_124BitcodeErrorCategoryTypeD1Ev
0000000100ac4b20 t __ZN12_GLOBAL__N_124ConstantFoldConstantImplEPKN4llvm8ConstantERKNS0_10DataLayoutEPKNS0_17TargetLibraryInfoERNS0_13SmallDenseMapIPS1_SB_Lj4ENS0_12DenseMapInfoISB_EENS0_6detail12DenseMapPairISB_SB_EEEE
00000001002df6e0 t __ZN12_GLOBAL__N_124LegalizerWorkListManager12changedInstrERN4llvm12MachineInstrE
00000001002df4b0 t __ZN12_GLOBAL__N_124LegalizerWorkListManager12createdInstrERN4llvm12MachineInstrE
00000001002df3f0 t __ZN12_GLOBAL__N_124LegalizerWorkListManager12erasingInstrERN4llvm12MachineInstrE
00000001002df630 t __ZN12_GLOBAL__N_124LegalizerWorkListManager13changingInstrERN4llvm12MachineInstrE
00000001002df3b0 t __ZN12_GLOBAL__N_124LegalizerWorkListManagerD0Ev
00000001002df170 t __ZN12_GLOBAL__N_124LegalizerWorkListManagerD1Ev
0000000100a6c910 t __ZN12_GLOBAL__N_124PatternRewriteDescriptorILN4llvm14SymbolRewriter17RewriteDescriptor4TypeE1ENS1_8FunctionEXadL_ZNKS1_6Module11getFunctionENS1_9StringRefEEEXadL_ZNS6_9functionsEvEEE15performOnModuleERS6_
0000000100a6c8d0 t __ZN12_GLOBAL__N_124PatternRewriteDescriptorILN4llvm14SymbolRewriter17RewriteDescriptor4TypeE1ENS1_8FunctionEXadL_ZNKS1_6Module11getFunctionENS1_9StringRefEEEXadL_ZNS6_9functionsEvEEED0Ev
0000000100a6c890 t __ZN12_GLOBAL__N_124PatternRewriteDescriptorILN4llvm14SymbolRewriter17RewriteDescriptor4TypeE1ENS1_8FunctionEXadL_ZNKS1_6Module11getFunctionENS1_9StringRefEEEXadL_ZNS6_9functionsEvEEED1Ev
0000000100a6cf70 t __ZN12_GLOBAL__N_124PatternRewriteDescriptorILN4llvm14SymbolRewriter17RewriteDescriptor4TypeE2ENS1_14GlobalVariableEXadL_ZNKS1_6Module17getGlobalVariableENS1_9StringRefEEEXadL_ZNS6_7globalsEvEEE15performOnModuleERS6_
0000000100a6cf30 t __ZN12_GLOBAL__N_124PatternRewriteDescriptorILN4llvm14SymbolRewriter17RewriteDescriptor4TypeE2ENS1_14GlobalVariableEXadL_ZNKS1_6Module17getGlobalVariableENS1_9StringRefEEEXadL_ZNS6_7globalsEvEEED0Ev
0000000100a6cef0 t __ZN12_GLOBAL__N_124PatternRewriteDescriptorILN4llvm14SymbolRewriter17RewriteDescriptor4TypeE2ENS1_14GlobalVariableEXadL_ZNKS1_6Module17getGlobalVariableENS1_9StringRefEEEXadL_ZNS6_7globalsEvEEED1Ev
0000000100a6d5f0 t __ZN12_GLOBAL__N_124PatternRewriteDescriptorILN4llvm14SymbolRewriter17RewriteDescriptor4TypeE3ENS1_11GlobalAliasEXadL_ZNKS1_6Module13getNamedAliasENS1_9StringRefEEEXadL_ZNS6_7aliasesEvEEE15performOnModuleERS6_
0000000100a6d5b0 t __ZN12_GLOBAL__N_124PatternRewriteDescriptorILN4llvm14SymbolRewriter17RewriteDescriptor4TypeE3ENS1_11GlobalAliasEXadL_ZNKS1_6Module13getNamedAliasENS1_9StringRefEEEXadL_ZNS6_7aliasesEvEEED0Ev
0000000100a6d570 t __ZN12_GLOBAL__N_124PatternRewriteDescriptorILN4llvm14SymbolRewriter17RewriteDescriptor4TypeE3ENS1_11GlobalAliasEXadL_ZNKS1_6Module13getNamedAliasENS1_9StringRefEEEXadL_ZNS6_7aliasesEvEEED1Ev
0000000100dc6070 t __ZN12_GLOBAL__N_124PrintFunctionPassWrapper13runOnFunctionERN4llvm8FunctionE
00000001015a6fd9 b __ZN12_GLOBAL__N_124PrintFunctionPassWrapper2IDE
0000000100dc6000 t __ZN12_GLOBAL__N_124PrintFunctionPassWrapperD0Ev
0000000100dc5fd0 t __ZN12_GLOBAL__N_124PrintFunctionPassWrapperD1Ev
00000001008f85d0 t __ZN12_GLOBAL__N_124RenameIndependentSubregs20runOnMachineFunctionERN4llvm15MachineFunctionE
000000010159d218 b __ZN12_GLOBAL__N_124RenameIndependentSubregs2IDE
00000001008f8470 t __ZN12_GLOBAL__N_124RenameIndependentSubregsD0Ev
00000001008f8430 t __ZN12_GLOBAL__N_124RenameIndependentSubregsD1Ev
0000000100a6c620 t __ZN12_GLOBAL__N_124RewriteSymbolsLegacyPass11runOnModuleERN4llvm6ModuleE
00000001015a3190 b __ZN12_GLOBAL__N_124RewriteSymbolsLegacyPass2IDE
0000000100a6c580 t __ZN12_GLOBAL__N_124RewriteSymbolsLegacyPassD0Ev
0000000100a6c4f0 t __ZN12_GLOBAL__N_124RewriteSymbolsLegacyPassD1Ev
00000001006655e0 t __ZN12_GLOBAL__N_124RuntimeDyldErrorCategoryD0Ev
00000001006655d0 t __ZN12_GLOBAL__N_124RuntimeDyldErrorCategoryD1Ev
00000001009195f0 t __ZN12_GLOBAL__N_124ScalarizeMaskedMemIntrin13runOnFunctionERN4llvm8FunctionE
00000001009197d0 t __ZN12_GLOBAL__N_124ScalarizeMaskedMemIntrin16optimizeCallInstEPN4llvm8CallInstERb
000000010159d708 b __ZN12_GLOBAL__N_124ScalarizeMaskedMemIntrin2IDE
0000000100919590 t __ZN12_GLOBAL__N_124ScalarizeMaskedMemIntrinD0Ev
0000000100919580 t __ZN12_GLOBAL__N_124ScalarizeMaskedMemIntrinD1Ev
00000001006d40c0 t __ZN12_GLOBAL__N_124TypePromotionTransaction10createZExtEPN4llvm11InstructionEPNS1_5ValueEPNS1_4TypeE
00000001006d4710 t __ZN12_GLOBAL__N_124TypePromotionTransaction10setOperandEPN4llvm11InstructionEjPNS1_5ValueE
00000001006d7550 t __ZN12_GLOBAL__N_124TypePromotionTransaction11SExtBuilder4undoEv
00000001006d7540 t __ZN12_GLOBAL__N_124TypePromotionTransaction11SExtBuilderD0Ev
00000001006d7530 t __ZN12_GLOBAL__N_124TypePromotionTransaction11SExtBuilderD1Ev
00000001006d73f0 t __ZN12_GLOBAL__N_124TypePromotionTransaction11TypeMutator4undoEv
00000001006d73e0 t __ZN12_GLOBAL__N_124TypePromotionTransaction11TypeMutatorD0Ev
00000001006d73d0 t __ZN12_GLOBAL__N_124TypePromotionTransaction11TypeMutatorD1Ev
00000001006d4c60 t __ZN12_GLOBAL__N_124TypePromotionTransaction11ZExtBuilder4undoEv
00000001006d4c50 t __ZN12_GLOBAL__N_124TypePromotionTransaction11ZExtBuilderD0Ev
00000001006d4c40 t __ZN12_GLOBAL__N_124TypePromotionTransaction11ZExtBuilderD1Ev
00000001006d6f20 t __ZN12_GLOBAL__N_124TypePromotionTransaction12TruncBuilder4undoEv
00000001006d6f10 t __ZN12_GLOBAL__N_124TypePromotionTransaction12TruncBuilderD0Ev
00000001006d6f00 t __ZN12_GLOBAL__N_124TypePromotionTransaction12TruncBuilderD1Ev
00000001006d50c0 t __ZN12_GLOBAL__N_124TypePromotionTransaction12UsesReplacer4undoEv
00000001006d4d90 t __ZN12_GLOBAL__N_124TypePromotionTransaction12UsesReplacerC1EPN4llvm11InstructionEPNS2_5ValueE
00000001006d5070 t __ZN12_GLOBAL__N_124TypePromotionTransaction12UsesReplacerD0Ev
00000001006d5030 t __ZN12_GLOBAL__N_124TypePromotionTransaction12UsesReplacerD1Ev
00000001006d57e0 t __ZN12_GLOBAL__N_124TypePromotionTransaction13OperandSetter4undoEv
00000001006d57d0 t __ZN12_GLOBAL__N_124TypePromotionTransaction13OperandSetterD0Ev
00000001006d57c0 t __ZN12_GLOBAL__N_124TypePromotionTransaction13OperandSetterD1Ev
00000001006d55f0 t __ZN12_GLOBAL__N_124TypePromotionTransaction13OperandsHider4undoEv
00000001006d55b0 t __ZN12_GLOBAL__N_124TypePromotionTransaction13OperandsHiderD0Ev
00000001006d5580 t __ZN12_GLOBAL__N_124TypePromotionTransaction13OperandsHiderD1Ev
00000001006d5730 t __ZN12_GLOBAL__N_124TypePromotionTransaction16InsertionHandler6insertEPN4llvm11InstructionE
00000001006d42d0 t __ZN12_GLOBAL__N_124TypePromotionTransaction16eraseInstructionEPN4llvm11InstructionEPNS1_5ValueE
00000001006d53c0 t __ZN12_GLOBAL__N_124TypePromotionTransaction18InstructionRemover4undoEv
00000001006d5370 t __ZN12_GLOBAL__N_124TypePromotionTransaction18InstructionRemoverD0Ev
00000001006d5320 t __ZN12_GLOBAL__N_124TypePromotionTransaction18InstructionRemoverD1Ev
00000001006d4d80 t __ZN12_GLOBAL__N_124TypePromotionTransaction19TypePromotionAction6commitEv
00000001006d7690 t __ZN12_GLOBAL__N_124TypePromotionTransaction21InstructionMoveBefore4undoEv
00000001006d7680 t __ZN12_GLOBAL__N_124TypePromotionTransaction21InstructionMoveBeforeD0Ev
00000001006d7670 t __ZN12_GLOBAL__N_124TypePromotionTransaction21InstructionMoveBeforeD1Ev
0000000100069a70 t __ZN12_GLOBAL__N_124X86CallFrameOptimization20runOnMachineFunctionERN4llvm15MachineFunctionE
00000001015900a0 b __ZN12_GLOBAL__N_124X86CallFrameOptimization2IDE
0000000100069a00 t __ZN12_GLOBAL__N_124X86CallFrameOptimizationD0Ev
00000001000699c0 t __ZN12_GLOBAL__N_124X86CallFrameOptimizationD1Ev
00000001000d88c0 t __ZN12_GLOBAL__N_124X86FlagsCopyLoweringPass10insertTestERN4llvm17MachineBasicBlockENS1_26MachineInstrBundleIteratorINS1_12MachineInstrELb0EEENS1_8DebugLocEj
00000001000d8a40 t __ZN12_GLOBAL__N_124X86FlagsCopyLoweringPass16promoteCondToRegERN4llvm17MachineBasicBlockENS1_26MachineInstrBundleIteratorINS1_12MachineInstrELb0EEENS1_8DebugLocENS1_3X868CondCodeE
00000001000d4700 t __ZN12_GLOBAL__N_124X86FlagsCopyLoweringPass20runOnMachineFunctionERN4llvm15MachineFunctionE
0000000101590718 b __ZN12_GLOBAL__N_124X86FlagsCopyLoweringPass2IDE
00000001000d4660 t __ZN12_GLOBAL__N_124X86FlagsCopyLoweringPassD0Ev
00000001000d4620 t __ZN12_GLOBAL__N_124X86FlagsCopyLoweringPassD1Ev
000000010060d880 t __ZN12_GLOBAL__N_124X86WinCOFFTargetStreamer11emitFPODataEPKN4llvm8MCSymbolENS1_5SMLocE
000000010060d310 t __ZN12_GLOBAL__N_124X86WinCOFFTargetStreamer11emitFPOProcEPKN4llvm8MCSymbolEjNS1_5SMLocE
000000010060d520 t __ZN12_GLOBAL__N_124X86WinCOFFTargetStreamer14emitFPOEndProcEN4llvm5SMLocE
000000010060dd00 t __ZN12_GLOBAL__N_124X86WinCOFFTargetStreamer14emitFPOPushRegEjN4llvm5SMLocE
000000010060e070 t __ZN12_GLOBAL__N_124X86WinCOFFTargetStreamer15emitFPOSetFrameEjN4llvm5SMLocE
000000010060df20 t __ZN12_GLOBAL__N_124X86WinCOFFTargetStreamer17emitFPOStackAlignEjN4llvm5SMLocE
000000010060de10 t __ZN12_GLOBAL__N_124X86WinCOFFTargetStreamer17emitFPOStackAllocEjN4llvm5SMLocE
000000010060d470 t __ZN12_GLOBAL__N_124X86WinCOFFTargetStreamer18emitFPOEndPrologueEN4llvm5SMLocE
000000010060d2f0 t __ZN12_GLOBAL__N_124X86WinCOFFTargetStreamerD0Ev
000000010060d220 t __ZN12_GLOBAL__N_124X86WinCOFFTargetStreamerD1Ev
0000000100ceb620 t __ZN12_GLOBAL__N_125BitcodeReaderMetadataList11assignValueEPN4llvm8MetadataEj
0000000100ceef10 t __ZN12_GLOBAL__N_125BitcodeReaderMetadataList14upgradeTypeRefEPN4llvm8MetadataE
0000000100cec1c0 t __ZN12_GLOBAL__N_125BitcodeReaderMetadataList17getMetadataFwdRefEj
0000000100cee240 t __ZN12_GLOBAL__N_125BitcodeReaderMetadataList19resolveTypeRefArrayEPN4llvm8MetadataE
0000000100a6c700 t __ZN12_GLOBAL__N_125ExplicitRewriteDescriptorILN4llvm14SymbolRewriter17RewriteDescriptor4TypeE1ENS1_8FunctionEXadL_ZNKS1_6Module11getFunctionENS1_9StringRefEEEE15performOnModuleERS6_
0000000100a6c6c0 t __ZN12_GLOBAL__N_125ExplicitRewriteDescriptorILN4llvm14SymbolRewriter17RewriteDescriptor4TypeE1ENS1_8FunctionEXadL_ZNKS1_6Module11getFunctionENS1_9StringRefEEEED0Ev
0000000100a6c680 t __ZN12_GLOBAL__N_125ExplicitRewriteDescriptorILN4llvm14SymbolRewriter17RewriteDescriptor4TypeE1ENS1_8FunctionEXadL_ZNKS1_6Module11getFunctionENS1_9StringRefEEEED1Ev
0000000100a6ce20 t __ZN12_GLOBAL__N_125ExplicitRewriteDescriptorILN4llvm14SymbolRewriter17RewriteDescriptor4TypeE2ENS1_14GlobalVariableEXadL_ZNKS1_6Module17getGlobalVariableENS1_9StringRefEEEE15performOnModuleERS6_
0000000100a6cde0 t __ZN12_GLOBAL__N_125ExplicitRewriteDescriptorILN4llvm14SymbolRewriter17RewriteDescriptor4TypeE2ENS1_14GlobalVariableEXadL_ZNKS1_6Module17getGlobalVariableENS1_9StringRefEEEED0Ev
0000000100a6cda0 t __ZN12_GLOBAL__N_125ExplicitRewriteDescriptorILN4llvm14SymbolRewriter17RewriteDescriptor4TypeE2ENS1_14GlobalVariableEXadL_ZNKS1_6Module17getGlobalVariableENS1_9StringRefEEEED1Ev
0000000100a6d480 t __ZN12_GLOBAL__N_125ExplicitRewriteDescriptorILN4llvm14SymbolRewriter17RewriteDescriptor4TypeE3ENS1_11GlobalAliasEXadL_ZNKS1_6Module13getNamedAliasENS1_9StringRefEEEE15performOnModuleERS6_
0000000100a6d440 t __ZN12_GLOBAL__N_125ExplicitRewriteDescriptorILN4llvm14SymbolRewriter17RewriteDescriptor4TypeE3ENS1_11GlobalAliasEXadL_ZNKS1_6Module13getNamedAliasENS1_9StringRefEEEED0Ev
0000000100a6d400 t __ZN12_GLOBAL__N_125ExplicitRewriteDescriptorILN4llvm14SymbolRewriter17RewriteDescriptor4TypeE3ENS1_11GlobalAliasEXadL_ZNKS1_6Module13getNamedAliasENS1_9StringRefEEEED1Ev
00000001005dbcf0 t __ZN12_GLOBAL__N_125InvokeStateChangeIterator4scanEv
00000001005db250 t __ZN12_GLOBAL__N_125InvokeStateChangeIterator5rangeERKN4llvm13WinEHFuncInfoENS1_14ilist_iteratorINS1_12ilist_detail12node_optionsINS1_17MachineBasicBlockELb1ELb0EvEELb0ELb1EEESA_i
0000000101585d18 d __ZN12_GLOBAL__N_125NumInterleavedLoadCombineE
00000001015a6cd8 b __ZN12_GLOBAL__N_125PassRemarksAnalysisOptLocE
000000010045a7f0 t __ZN12_GLOBAL__N_125RegReductionPriorityQueueINS_13bu_ls_rr_sortEE3popEv
0000000100459040 t __ZN12_GLOBAL__N_125RegReductionPriorityQueueINS_13bu_ls_rr_sortEED0Ev
0000000100458fc0 t __ZN12_GLOBAL__N_125RegReductionPriorityQueueINS_13bu_ls_rr_sortEED1Ev
000000010045dc40 t __ZN12_GLOBAL__N_125RegReductionPriorityQueueINS_14ilp_ls_rr_sortEE3popEv
000000010045dba0 t __ZN12_GLOBAL__N_125RegReductionPriorityQueueINS_14ilp_ls_rr_sortEED0Ev
000000010045db20 t __ZN12_GLOBAL__N_125RegReductionPriorityQueueINS_14ilp_ls_rr_sortEED1Ev
000000010045cea0 t __ZN12_GLOBAL__N_125RegReductionPriorityQueueINS_14src_ls_rr_sortEE3popEv
000000010045ce00 t __ZN12_GLOBAL__N_125RegReductionPriorityQueueINS_14src_ls_rr_sortEED0Ev
000000010045cd80 t __ZN12_GLOBAL__N_125RegReductionPriorityQueueINS_14src_ls_rr_sortEED1Ev
000000010045d3e0 t __ZN12_GLOBAL__N_125RegReductionPriorityQueueINS_17hybrid_ls_rr_sortEE3popEv
000000010045d340 t __ZN12_GLOBAL__N_125RegReductionPriorityQueueINS_17hybrid_ls_rr_sortEED0Ev
000000010045d2c0 t __ZN12_GLOBAL__N_125RegReductionPriorityQueueINS_17hybrid_ls_rr_sortEED1Ev
00000001009a1a70 t __ZN12_GLOBAL__N_125TwoAddressInstructionPass14isRevCopyChainEjji
00000001009a1830 t __ZN12_GLOBAL__N_125TwoAddressInstructionPass17noUseAfterLastDefEjjRj
0000000100997c80 t __ZN12_GLOBAL__N_125TwoAddressInstructionPass20runOnMachineFunctionERN4llvm15MachineFunctionE
000000010099b050 t __ZN12_GLOBAL__N_125TwoAddressInstructionPass23tryInstructionTransformERN4llvm26MachineInstrBundleIteratorINS1_12MachineInstrELb0EEES5_jjjb
00000001015a11a8 b __ZN12_GLOBAL__N_125TwoAddressInstructionPass2IDE
00000001009a0050 t __ZN12_GLOBAL__N_125TwoAddressInstructionPass8scanUsesEj
00000001009979f0 t __ZN12_GLOBAL__N_125TwoAddressInstructionPassD0Ev
0000000100997930 t __ZN12_GLOBAL__N_125TwoAddressInstructionPassD1Ev
0000000100240770 t __ZN12_GLOBAL__N_125X86InterleavedAccessGroup13transpose_4x4EN4llvm8ArrayRefIPNS1_11InstructionEEERNS1_15SmallVectorImplIPNS1_5ValueEEE
000000010023cde0 t __ZN12_GLOBAL__N_125X86InterleavedAccessGroup26lowerIntoOptimizedSequenceEv
00000001002401f0 t __ZN12_GLOBAL__N_125X86InterleavedAccessGroup9decomposeEPN4llvm11InstructionEjPNS1_10VectorTypeERNS1_15SmallVectorImplIS3_EE
00000001009c2ea0 t __ZN12_GLOBAL__N_126ConstantHoistingLegacyPass13releaseMemoryEv
00000001009c2eb0 t __ZN12_GLOBAL__N_126ConstantHoistingLegacyPass13runOnFunctionERN4llvm8FunctionE
00000001015a16a0 b __ZN12_GLOBAL__N_126ConstantHoistingLegacyPass2IDE
00000001009c2df0 t __ZN12_GLOBAL__N_126ConstantHoistingLegacyPassD0Ev
00000001009c2dc0 t __ZN12_GLOBAL__N_126ConstantHoistingLegacyPassD1Ev
00000001006efd60 t __ZN12_GLOBAL__N_126DeadMachineInstructionElim20runOnMachineFunctionERN4llvm15MachineFunctionE
0000000101596d10 b __ZN12_GLOBAL__N_126DeadMachineInstructionElim2IDE
00000001006efcd0 t __ZN12_GLOBAL__N_126DeadMachineInstructionElimD0Ev
00000001006efc70 t __ZN12_GLOBAL__N_126DeadMachineInstructionElimD1Ev
0000000100659f40 t __ZN12_GLOBAL__N_126GDBJITRegistrationListener18notifyObjectLoadedEyRKN4llvm6object10ObjectFileERKNS1_11RuntimeDyld16LoadedObjectInfoE
000000010065a3d0 t __ZN12_GLOBAL__N_126GDBJITRegistrationListener19notifyFreeingObjectEy
0000000100659f20 t __ZN12_GLOBAL__N_126GDBJITRegistrationListenerD0Ev
0000000100659930 t __ZN12_GLOBAL__N_126GDBJITRegistrationListenerD1Ev
00000001007aa7c0 t __ZN12_GLOBAL__N_126MachineBlockPlacementStats20runOnMachineFunctionERN4llvm15MachineFunctionE
0000000101599458 b __ZN12_GLOBAL__N_126MachineBlockPlacementStats2IDE
00000001007aa720 t __ZN12_GLOBAL__N_126MachineBlockPlacementStatsD0Ev
00000001007aa6e0 t __ZN12_GLOBAL__N_126MachineBlockPlacementStatsD1Ev
00000001007c7c20 t __ZN12_GLOBAL__N_126MachineFunctionPrinterPass20runOnMachineFunctionERN4llvm15MachineFunctionE
0000000101599878 b __ZN12_GLOBAL__N_126MachineFunctionPrinterPass2IDE
00000001007c7af0 t __ZN12_GLOBAL__N_126MachineFunctionPrinterPassD0Ev
00000001007c7a90 t __ZN12_GLOBAL__N_126MachineFunctionPrinterPassD1Ev
0000000100b73e50 t __ZN12_GLOBAL__N_127SCEVBackedgeConditionFolder12visitUnknownEPKN4llvm11SCEVUnknownE
0000000100bc9a40 t __ZN12_GLOBAL__N_127SampleProfErrorCategoryTypeD0Ev
0000000100bc9a30 t __ZN12_GLOBAL__N_127SampleProfErrorCategoryTypeD1Ev
00000001009a3540 t __ZN12_GLOBAL__N_127UnreachableMachineBlockElim20runOnMachineFunctionERN4llvm15MachineFunctionE
00000001015a11c8 b __ZN12_GLOBAL__N_127UnreachableMachineBlockElim2IDE
00000001009a3420 t __ZN12_GLOBAL__N_127UnreachableMachineBlockElimD0Ev
00000001009a33e0 t __ZN12_GLOBAL__N_127UnreachableMachineBlockElimD1Ev
000000010060cf20 t __ZN12_GLOBAL__N_127X86WinCOFFAsmTargetStreamer11emitFPODataEPKN4llvm8MCSymbolENS1_5SMLocE
000000010060cd80 t __ZN12_GLOBAL__N_127X86WinCOFFAsmTargetStreamer11emitFPOProcEPKN4llvm8MCSymbolEjNS1_5SMLocE
000000010060cec0 t __ZN12_GLOBAL__N_127X86WinCOFFAsmTargetStreamer14emitFPOEndProcEN4llvm5SMLocE
000000010060cfc0 t __ZN12_GLOBAL__N_127X86WinCOFFAsmTargetStreamer14emitFPOPushRegEjN4llvm5SMLocE
000000010060d180 t __ZN12_GLOBAL__N_127X86WinCOFFAsmTargetStreamer15emitFPOSetFrameEjN4llvm5SMLocE
000000010060d0f0 t __ZN12_GLOBAL__N_127X86WinCOFFAsmTargetStreamer17emitFPOStackAlignEjN4llvm5SMLocE
000000010060d060 t __ZN12_GLOBAL__N_127X86WinCOFFAsmTargetStreamer17emitFPOStackAllocEjN4llvm5SMLocE
000000010060ce60 t __ZN12_GLOBAL__N_127X86WinCOFFAsmTargetStreamer18emitFPOEndPrologueEN4llvm5SMLocE
000000010060cd60 t __ZN12_GLOBAL__N_127X86WinCOFFAsmTargetStreamerD0Ev
000000010060cd50 t __ZN12_GLOBAL__N_127X86WinCOFFAsmTargetStreamerD1Ev
0000000100ac5480 t __ZN12_GLOBAL__N_128ConstantFoldInstOperandsImplEPKN4llvm5ValueEjNS0_8ArrayRefIPNS0_8ConstantEEERKNS0_10DataLayoutEPKNS0_17TargetLibraryInfoE
0000000101598268 b __ZN12_GLOBAL__N_129DisableInterleavedLoadCombineE
000000010023c600 t __ZN12_GLOBAL__N_129X86IndirectBranchTrackingPass20runOnMachineFunctionERN4llvm15MachineFunctionE
0000000101590b78 b __ZN12_GLOBAL__N_129X86IndirectBranchTrackingPass2IDE
000000010023c590 t __ZN12_GLOBAL__N_129X86IndirectBranchTrackingPassD0Ev
000000010023c550 t __ZN12_GLOBAL__N_129X86IndirectBranchTrackingPassD1Ev
00000001009a2f20 t __ZN12_GLOBAL__N_130UnreachableBlockElimLegacyPass13runOnFunctionERN4llvm8FunctionE
00000001015a11c9 b __ZN12_GLOBAL__N_130UnreachableBlockElimLegacyPass2IDE
00000001009a2e90 t __ZN12_GLOBAL__N_130UnreachableBlockElimLegacyPassD0Ev
00000001009a2e80 t __ZN12_GLOBAL__N_130UnreachableBlockElimLegacyPassD1Ev
0000000100ac3e10 t __ZN12_GLOBAL__N_131FoldReinterpretLoadFromConstPtrEPN4llvm8ConstantEPNS0_4TypeERKNS0_10DataLayoutE
0000000100a16320 t __ZN12_GLOBAL__N_131PostInlineEntryExitInstrumenter13runOnFunctionERN4llvm8FunctionE
00000001015a2779 b __ZN12_GLOBAL__N_131PostInlineEntryExitInstrumenter2IDE
0000000100a16290 t __ZN12_GLOBAL__N_131PostInlineEntryExitInstrumenterD0Ev
0000000100a16280 t __ZN12_GLOBAL__N_131PostInlineEntryExitInstrumenterD1Ev
0000000100298fc0 t __ZN12_GLOBAL__N_131X86SpeculativeLoadHardeningPass10saveEFLAGSERN4llvm17MachineBasicBlockENS1_26MachineInstrBundleIteratorINS1_12MachineInstrELb0EEENS1_8DebugLocE
000000010029bcd0 t __ZN12_GLOBAL__N_131X86SpeculativeLoadHardeningPass20mergePredStateIntoSPERN4llvm17MachineBasicBlockENS1_26MachineInstrBundleIteratorINS1_12MachineInstrELb0EEENS1_8DebugLocEj
000000010028b790 t __ZN12_GLOBAL__N_131X86SpeculativeLoadHardeningPass20runOnMachineFunctionERN4llvm15MachineFunctionE
000000010029b650 t __ZN12_GLOBAL__N_131X86SpeculativeLoadHardeningPass21hardenValueInRegisterEjRN4llvm17MachineBasicBlockENS1_26MachineInstrBundleIteratorINS1_12MachineInstrELb0EEENS1_8DebugLocE
00000001002902d0 t __ZN12_GLOBAL__N_131X86SpeculativeLoadHardeningPass22extractPredStateFromSPERN4llvm17MachineBasicBlockENS1_26MachineInstrBundleIteratorINS1_12MachineInstrELb0EEENS1_8DebugLocE
00000001015917b0 b __ZN12_GLOBAL__N_131X86SpeculativeLoadHardeningPass2IDE
0000000100290580 t __ZN12_GLOBAL__N_131X86SpeculativeLoadHardeningPass36tracePredStateThroughBlocksAndHardenERN4llvm15MachineFunctionE
000000010028b6f0 t __ZN12_GLOBAL__N_131X86SpeculativeLoadHardeningPassD0Ev
000000010028b680 t __ZN12_GLOBAL__N_131X86SpeculativeLoadHardeningPassD1Ev
0000000100a01d40 t __ZN12_GLOBAL__N_133PartiallyInlineLibCallsLegacyPass13runOnFunctionERN4llvm8FunctionE
00000001015a2220 b __ZN12_GLOBAL__N_133PartiallyInlineLibCallsLegacyPass2IDE
0000000100a01ce0 t __ZN12_GLOBAL__N_133PartiallyInlineLibCallsLegacyPassD0Ev
0000000100a01cd0 t __ZN12_GLOBAL__N_133PartiallyInlineLibCallsLegacyPassD1Ev
000000010089d280 t __ZN12_GLOBAL__N_134PreISelIntrinsicLoweringLegacyPass11runOnModuleERN4llvm6ModuleE
000000010159c040 b __ZN12_GLOBAL__N_134PreISelIntrinsicLoweringLegacyPass2IDE
000000010089d260 t __ZN12_GLOBAL__N_134PreISelIntrinsicLoweringLegacyPassD0Ev
000000010089d250 t __ZN12_GLOBAL__N_134PreISelIntrinsicLoweringLegacyPassD1Ev
00000001000df0d0 t __ZN12_GLOBAL__N_13FPS13popStackAfterERN4llvm26MachineInstrBundleIteratorINS1_12MachineInstrELb0EEE
00000001000de910 t __ZN12_GLOBAL__N_13FPS14adjustLiveRegsEjN4llvm26MachineInstrBundleIteratorINS1_12MachineInstrELb0EEE
00000001000df4c0 t __ZN12_GLOBAL__N_13FPS14duplicateToTopEjjN4llvm26MachineInstrBundleIteratorINS1_12MachineInstrELb0EEE
00000001000dfca0 t __ZN12_GLOBAL__N_13FPS15shuffleStackTopEPKhjN4llvm26MachineInstrBundleIteratorINS3_12MachineInstrELb0EEE
00000001000da110 t __ZN12_GLOBAL__N_13FPS17processBasicBlockERN4llvm15MachineFunctionERNS1_17MachineBasicBlockE
00000001000df340 t __ZN12_GLOBAL__N_13FPS19freeStackSlotBeforeEN4llvm26MachineInstrBundleIteratorINS1_12MachineInstrELb0EEEj
00000001000d93f0 t __ZN12_GLOBAL__N_13FPS20runOnMachineFunctionERN4llvm15MachineFunctionE
0000000101590719 b __ZN12_GLOBAL__N_13FPS2IDE
00000001000df6e0 t __ZN12_GLOBAL__N_13FPS9moveToTopEjN4llvm26MachineInstrBundleIteratorINS1_12MachineInstrELb0EEE
00000001000d9280 t __ZN12_GLOBAL__N_13FPSD0Ev
00000001000d9220 t __ZN12_GLOBAL__N_13FPSD1Ev
00000001008a4f20 t __ZN12_GLOBAL__N_13PEI19replaceFrameIndicesEPN4llvm17MachineBasicBlockERNS1_15MachineFunctionERi
000000010089f710 t __ZN12_GLOBAL__N_13PEI20runOnMachineFunctionERN4llvm15MachineFunctionE
000000010159c058 b __ZN12_GLOBAL__N_13PEI2IDE
000000010089f5b0 t __ZN12_GLOBAL__N_13PEID0Ev
000000010089f530 t __ZN12_GLOBAL__N_13PEID1Ev
00000001002671c0 t __ZN12_GLOBAL__N_14CGBR20runOnMachineFunctionERN4llvm15MachineFunctionE
00000001015910c0 b __ZN12_GLOBAL__N_14CGBR2IDE
0000000100267120 t __ZN12_GLOBAL__N_14CGBRD0Ev
00000001002670e0 t __ZN12_GLOBAL__N_14CGBRD1Ev
00000001009ef2d0 t __ZN12_GLOBAL__N_14Cost11RateFormulaERKN4llvm19TargetTransformInfoERKNS_7FormulaERNS1_15SmallPtrSetImplIPKNS1_4SCEVEEERKNS1_8DenseSetISB_NS1_12DenseMapInfoISB_EEEEPKNS1_4LoopERNS1_15ScalarEvolutionERNS1_13DominatorTreeERKNS_6LSRUseEPSC_
00000001009f0520 t __ZN12_GLOBAL__N_14Cost12RateRegisterEPKN4llvm4SCEVERNS1_15SmallPtrSetImplIS4_EEPKNS1_4LoopERNS1_15ScalarEvolutionERNS1_13DominatorTreeERKNS1_19TargetTransformInfoE
00000001009f01b0 t __ZN12_GLOBAL__N_14Cost19RatePrimaryRegisterEPKN4llvm4SCEVERNS1_15SmallPtrSetImplIS4_EEPKNS1_4LoopERNS1_15ScalarEvolutionERNS1_13DominatorTreeEPS6_RKNS1_19TargetTransformInfoE
0000000101587368 d __ZN12_GLOBAL__N_15stats11ObjectBytesE
0000000101587248 d __ZN12_GLOBAL__N_15stats13evaluateFixupE
0000000101587408 d __ZN12_GLOBAL__N_15stats14MCExprEvaluateE
0000000101587268 d __ZN12_GLOBAL__N_15stats15FragmentLayoutsE
00000001015873e8 d __ZN12_GLOBAL__N_15stats15RelaxationStepsE
0000000101587288 d __ZN12_GLOBAL__N_15stats16EmittedFragmentsE
0000000101587348 d __ZN12_GLOBAL__N_15stats19EmittedOrgFragmentsE
0000000101587388 d __ZN12_GLOBAL__N_15stats19RelaxedInstructionsE
00000001015872c8 d __ZN12_GLOBAL__N_15stats20EmittedDataFragmentsE
0000000101587328 d __ZN12_GLOBAL__N_15stats20EmittedFillFragmentsE
00000001015872a8 d __ZN12_GLOBAL__N_15stats21EmittedAlignFragmentsE
00000001015873c8 d __ZN12_GLOBAL__N_15stats21PaddingFragmentsBytesE
00000001015872e8 d __ZN12_GLOBAL__N_15stats25EmittedRelaxableFragmentsE
00000001015873a8 d __ZN12_GLOBAL__N_15stats27PaddingFragmentsRelaxationsE
0000000101587308 d __ZN12_GLOBAL__N_15stats34EmittedCompactEncodedInstFragmentsE
00000001009e84a0 t __ZN12_GLOBAL__N_16LSRUse11getNewFixupEv
00000001009efc00 t __ZN12_GLOBAL__N_16LSRUse13RecomputeRegsEmRNS_13RegUseTrackerE
00000001009e8ad0 t __ZN12_GLOBAL__N_16LSRUseD1Ev
0000000100a6f9a0 t __ZN12_GLOBAL__N_16Mapper11mapMetadataEPKN4llvm8MetadataE
0000000100a70620 t __ZN12_GLOBAL__N_16Mapper13remapFunctionERN4llvm8FunctionE
0000000100a6ffd0 t __ZN12_GLOBAL__N_16Mapper16remapInstructionEPN4llvm11InstructionE
0000000100a70970 t __ZN12_GLOBAL__N_16Mapper17mapSimpleMetadataEPKN4llvm8MetadataE
0000000100a70850 t __ZN12_GLOBAL__N_16Mapper25remapGlobalObjectMetadataERN4llvm12GlobalObjectE
0000000100a6e750 t __ZN12_GLOBAL__N_16Mapper8mapValueEPKN4llvm5ValueE
0000000100a71f90 t __ZN12_GLOBAL__N_16Mapper9mapToSelfEPKN4llvm8MetadataE
0000000100862fe0 t __ZN12_GLOBAL__N_17DataDepC1EPKN4llvm19MachineRegisterInfoEjj
00000001009eaa40 t __ZN12_GLOBAL__N_17Formula12canonicalizeERKN4llvm4LoopE
000000010074fdb0 t __ZN12_GLOBAL__N_17LDVImpl10mapVirtRegEjPNS_9UserValueE
0000000100746540 t __ZN12_GLOBAL__N_17LDVImpl5clearEv
0000000100708bc0 t __ZN12_GLOBAL__N_17Printer13runOnFunctionERN4llvm8FunctionE
00000001007089b0 t __ZN12_GLOBAL__N_17Printer14doFinalizationERN4llvm6ModuleE
0000000101597180 b __ZN12_GLOBAL__N_17Printer2IDE
0000000100708970 t __ZN12_GLOBAL__N_17PrinterD0Ev
0000000100708960 t __ZN12_GLOBAL__N_17PrinterD1Ev
00000001008ab1e0 t __ZN12_GLOBAL__N_17RABasic13releaseMemoryEv
00000001008abbc0 t __ZN12_GLOBAL__N_17RABasic13selectOrSplitERN4llvm12LiveIntervalERNS1_15SmallVectorImplIjEE
00000001008ab7f0 t __ZN12_GLOBAL__N_17RABasic19LRE_CanEraseVirtRegEj
00000001008ab210 t __ZN12_GLOBAL__N_17RABasic20runOnMachineFunctionERN4llvm15MachineFunctionE
00000001008ab860 t __ZN12_GLOBAL__N_17RABasic21LRE_WillShrinkVirtRegEj
000000010159c220 b __ZN12_GLOBAL__N_17RABasic2IDE
00000001008abaa0 t __ZN12_GLOBAL__N_17RABasic7dequeueEv
00000001008ab8d0 t __ZN12_GLOBAL__N_17RABasic7enqueueEPN4llvm12LiveIntervalE
00000001008ab8c0 t __ZN12_GLOBAL__N_17RABasic7spillerEv
00000001008aae10 t __ZN12_GLOBAL__N_17RABasicD0Ev
00000001008aaca0 t __ZN12_GLOBAL__N_17RABasicD1Ev
0000000100b73320 t __ZN12_GLOBAL__N_18BinaryOpC1EPN4llvm8OperatorE
00000001008ead80 t __ZN12_GLOBAL__N_18JoinVals11eraseInstrsERN4llvm15SmallPtrSetImplIPNS1_12MachineInstrEEERNS1_15SmallVectorImplIjEEPNS1_12LiveIntervalE
00000001008ea6c0 t __ZN12_GLOBAL__N_18JoinVals11pruneValuesERS0_RN4llvm15SmallVectorImplINS2_9SlotIndexEEEb
00000001008ed6c0 t __ZN12_GLOBAL__N_18JoinVals13isPrunedValueEjRS0_
00000001008e8fb0 t __ZN12_GLOBAL__N_18JoinVals16resolveConflictsERS0_
00000001008eb620 t __ZN12_GLOBAL__N_18JoinVals17computeAssignmentEjRS0_
00000001008e9f80 t __ZN12_GLOBAL__N_18JoinVals17pruneSubRegValuesERN4llvm12LiveIntervalERNS1_11LaneBitmaskE
00000001008e8d50 t __ZN12_GLOBAL__N_18JoinVals9mapValuesERS0_
00000001008e8bb0 t __ZN12_GLOBAL__N_18JoinValsC1ERN4llvm9LiveRangeEjjNS1_11LaneBitmaskERNS1_15SmallVectorImplIPNS1_6VNInfoEEERKNS1_13CoalescerPairEPNS1_13LiveIntervalsEPKNS1_18TargetRegisterInfoEbb
00000001008c7c20 t __ZN12_GLOBAL__N_18RAGreedy10growRegionERNS0_20GlobalSplitCandidateE
00000001008c3cd0 t __ZN12_GLOBAL__N_18RAGreedy13calcSpillCostEv
00000001008c59a0 t __ZN12_GLOBAL__N_18RAGreedy13doRegionSplitERN4llvm12LiveIntervalEjbRNS1_15SmallVectorImplIjEE
00000001008b5c40 t __ZN12_GLOBAL__N_18RAGreedy13releaseMemoryEv
00000001008b7a40 t __ZN12_GLOBAL__N_18RAGreedy13selectOrSplitERN4llvm12LiveIntervalERNS1_15SmallVectorImplIjEE
00000001008c3490 t __ZN12_GLOBAL__N_18RAGreedy17evictInterferenceERN4llvm12LiveIntervalEjRNS1_15SmallVectorImplIjEE
00000001008baa00 t __ZN12_GLOBAL__N_18RAGreedy17selectOrSplitImplERN4llvm12LiveIntervalERNS1_15SmallVectorImplIjEERNS1_8SmallSetIjLj16ENSt3__14lessIjEEEEj
00000001008b7b80 t __ZN12_GLOBAL__N_18RAGreedy19LRE_CanEraseVirtRegEj
00000001008b7c60 t __ZN12_GLOBAL__N_18RAGreedy19LRE_DidCloneVirtRegEjj
00000001008c7620 t __ZN12_GLOBAL__N_18RAGreedy19addSplitConstraintsEN4llvm17InterferenceCache6CursorERNS1_14BlockFrequencyE
00000001008c8ff0 t __ZN12_GLOBAL__N_18RAGreedy20GlobalSplitCandidate10getBundlesERN4llvm15SmallVectorImplIjEEj
00000001008c2600 t __ZN12_GLOBAL__N_18RAGreedy20canEvictInterferenceERN4llvm12LiveIntervalEjbRNS0_12EvictionCostE
00000001008b5d00 t __ZN12_GLOBAL__N_18RAGreedy20runOnMachineFunctionERN4llvm15MachineFunctionE
00000001008b7c00 t __ZN12_GLOBAL__N_18RAGreedy21LRE_WillShrinkVirtRegEj
00000001008b7b50 t __ZN12_GLOBAL__N_18RAGreedy21aboutToRemoveIntervalERN4llvm12LiveIntervalE
00000001008ca030 t __ZN12_GLOBAL__N_18RAGreedy23tryRecoloringCandidatesERNSt3__114priority_queueINS1_4pairIjjEENS1_6vectorIS4_NS1_9allocatorIS4_EEEENS1_4lessIS4_EEEERN4llvm15SmallVectorImplIjEERNSD_8SmallSetIjLj16ENS9_IjEEEEj
00000001008c3de0 t __ZN12_GLOBAL__N_18RAGreedy24calculateRegionSplitCostERN4llvm12LiveIntervalERNS1_15AllocationOrderERNS1_14BlockFrequencyERjbPb
00000001008c8ce0 t __ZN12_GLOBAL__N_18RAGreedy24getCheapestEvicteeWeightERKN4llvm15AllocationOrderERNS1_12LiveIntervalENS1_9SlotIndexES7_Pf
00000001008c86e0 t __ZN12_GLOBAL__N_18RAGreedy26splitCanCauseEvictionChainEjRNS0_20GlobalSplitCandidateEjRKN4llvm15AllocationOrderE
00000001008b9470 t __ZN12_GLOBAL__N_18RAGreedy28reportNumberOfSplillsReloadsEPN4llvm11MachineLoopERjS4_S4_S4_
000000010159caf8 b __ZN12_GLOBAL__N_18RAGreedy2IDE
00000001008ba7f0 t __ZN12_GLOBAL__N_18RAGreedy7dequeueERNSt3__114priority_queueINS1_4pairIjjEENS1_6vectorIS4_NS1_9allocatorIS4_EEEENS1_4lessIS4_EEEE
00000001008b7a20 t __ZN12_GLOBAL__N_18RAGreedy7dequeueEv
00000001008b7a00 t __ZN12_GLOBAL__N_18RAGreedy7enqueueEPN4llvm12LiveIntervalE
00000001008ba060 t __ZN12_GLOBAL__N_18RAGreedy7enqueueERNSt3__114priority_queueINS1_4pairIjjEENS1_6vectorIS4_NS1_9allocatorIS4_EEEENS1_4lessIS4_EEEEPN4llvm12LiveIntervalE
00000001008b79f0 t __ZN12_GLOBAL__N_18RAGreedy7spillerEv
00000001008bdb30 t __ZN12_GLOBAL__N_18RAGreedy8tryEvictERN4llvm12LiveIntervalERNS1_15AllocationOrderERNS1_15SmallVectorImplIjEEj
00000001008be410 t __ZN12_GLOBAL__N_18RAGreedy8trySplitERN4llvm12LiveIntervalERNS1_15AllocationOrderERNS1_15SmallVectorImplIjEE
000000010155ef60 s __ZN12_GLOBAL__N_18RAGreedy9StageNameE
00000001008bd530 t __ZN12_GLOBAL__N_18RAGreedy9tryAssignERN4llvm12LiveIntervalERNS1_15AllocationOrderERNS1_15SmallVectorImplIjEE
00000001008b4a90 t __ZN12_GLOBAL__N_18RAGreedyC1Ev
00000001008b5830 t __ZN12_GLOBAL__N_18RAGreedyD0Ev
00000001008b5360 t __ZN12_GLOBAL__N_18RAGreedyD1Ev
0000000100e3dd20 t __ZN12_GLOBAL__N_18Verifier11visitMDNodeERKN4llvm6MDNodeE
0000000100e4f540 t __ZN12_GLOBAL__N_18Verifier13visitCallBaseERN4llvm8CallBaseE
0000000100e5d570 t __ZN12_GLOBAL__N_18Verifier13visitCallInstERN4llvm8CallInstE
0000000100e45a40 t __ZN12_GLOBAL__N_18Verifier15visitDIVariableERKN4llvm10DIVariableE
0000000100e3cff0 t __ZN12_GLOBAL__N_18Verifier16visitGlobalValueERKN4llvm11GlobalValueE
0000000100e4bc00 t __ZN12_GLOBAL__N_18Verifier16visitInstructionERN4llvm11InstructionE
0000000100e55c40 t __ZN12_GLOBAL__N_18Verifier17visitDbgIntrinsicEN4llvm9StringRefERNS1_20DbgVariableIntrinsicE
0000000100e506c0 t __ZN12_GLOBAL__N_18Verifier18visitIntrinsicCallEN4llvm9Intrinsic2IDERNS1_8CallBaseE
0000000100e3d270 t __ZN12_GLOBAL__N_18Verifier19verifyFunctionAttrsEPN4llvm12FunctionTypeENS1_13AttributeListEPKNS1_5ValueE
0000000100e5e310 t __ZN12_GLOBAL__N_18Verifier19visitAliaseeSubExprERN4llvm15SmallPtrSetImplIPKNS1_11GlobalAliasEEERS4_RKNS1_8ConstantE
0000000100e5a740 t __ZN12_GLOBAL__N_18Verifier19visitBinaryOperatorERN4llvm14BinaryOperatorE
0000000100e5c1d0 t __ZN12_GLOBAL__N_18Verifier19visitFuncletPadInstERN4llvm14FuncletPadInstE
0000000100e43ca0 t __ZN12_GLOBAL__N_18Verifier19visitTemplateParamsERKN4llvm6MDNodeERKNS1_8MetadataE
0000000100e42070 t __ZN12_GLOBAL__N_18Verifier20verifyAttributeTypesEN4llvm12AttributeSetEbPKNS1_5ValueE
0000000100e41b80 t __ZN12_GLOBAL__N_18Verifier20verifyParameterAttrsEN4llvm12AttributeSetEPNS1_4TypeEPKNS1_5ValueE
0000000100e43090 t __ZN12_GLOBAL__N_18Verifier20visitValueAsMetadataERKN4llvm15ValueAsMetadataEPNS1_8FunctionE
0000000100e44520 t __ZN12_GLOBAL__N_18Verifier21verifySourceDebugInfoERKN4llvm13DICompileUnitERKNS1_6DIFileE
0000000100e3da40 t __ZN12_GLOBAL__N_18Verifier21verifySwiftErrorValueEPKN4llvm5ValueE
0000000100e42e60 t __ZN12_GLOBAL__N_18Verifier21visitDIGlobalVariableERKN4llvm16DIGlobalVariableE
0000000100e58bf0 t __ZN12_GLOBAL__N_18Verifier22visitEHPadPredecessorsERN4llvm11InstructionE
0000000100e45300 t __ZN12_GLOBAL__N_18Verifier23visitDILexicalBlockBaseERKN4llvm18DILexicalBlockBaseE
0000000100e4e3e0 t __ZN12_GLOBAL__N_18Verifier28visitDereferenceableMetadataERN4llvm11InstructionEPNS1_6MDNodeE
0000000100e4de10 t __ZN12_GLOBAL__N_18Verifier29visitConstantExprsRecursivelyEPKN4llvm8ConstantE
0000000100e42b80 t __ZN12_GLOBAL__N_18Verifier31visitDIGlobalVariableExpressionERKN4llvm26DIGlobalVariableExpressionE
0000000100e35e70 t __ZN12_GLOBAL__N_18Verifier6verifyERKN4llvm8FunctionE
0000000100e392d0 t __ZN12_GLOBAL__N_18Verifier6verifyEv
0000000100e38ca0 t __ZN12_GLOBAL__N_18VerifierD1Ev
0000000100c0dd30 t __ZN12_GLOBAL__N_19AsmParser10getContextEv
0000000100c10750 t __ZN12_GLOBAL__N_19AsmParser10printErrorEN4llvm5SMLocERKNS1_5TwineENS1_7SMRangeE
0000000100c0d5d0 t __ZN12_GLOBAL__N_19AsmParser11DiagHandlerERKN4llvm12SMDiagnosticEPv
0000000100c20d80 t __ZN12_GLOBAL__N_19AsmParser11expandMacroERN4llvm19raw_svector_ostreamENS1_9StringRefENS1_8ArrayRefINS1_19MCAsmMacroParameterEEENS5_INSt3__16vectorINS1_8AsmTokenENS8_9allocatorISA_EEEEEEbNS1_5SMLocE
0000000100c0dd40 t __ZN12_GLOBAL__N_19AsmParser11getStreamerEv
0000000100c266f0 t __ZN12_GLOBAL__N_19AsmParser13parseBinOpRHSEjRPKN4llvm6MCExprERNS1_5SMLocE
0000000100c251a0 t __ZN12_GLOBAL__N_19AsmParser13parseCVFileIdERxN4llvm9StringRefE
0000000100c23990 t __ZN12_GLOBAL__N_19AsmParser14parseRealValueERKN4llvm12fltSemanticsERNS1_5APIntE
0000000100c12c10 t __ZN12_GLOBAL__N_19AsmParser14parseStatementERNS_18ParseStatementInfoEPN4llvm23MCAsmParserSemaCallbackE
0000000100c11120 t __ZN12_GLOBAL__N_19AsmParser15parseExpressionERPKN4llvm6MCExprERNS1_5SMLocE
0000000100c10ae0 t __ZN12_GLOBAL__N_19AsmParser15parseIdentifierERN4llvm9StringRefE
0000000100c0dd10 t __ZN12_GLOBAL__N_19AsmParser16getSourceManagerEv
0000000100c1fcb0 t __ZN12_GLOBAL__N_19AsmParser16parseDirectiveDSEN4llvm9StringRefEj
0000000100c0e520 t __ZN12_GLOBAL__N_19AsmParser16parseMSInlineAsmEPvRNSt3__112basic_stringIcNS2_11char_traitsIcEENS2_9allocatorIcEEEERjSA_RN4llvm15SmallVectorImplINS2_4pairIS1_bEEEERNSC_IS8_EESI_PKNSB_11MCInstrInfoEPKNSB_13MCInstPrinterERNSB_23MCAsmParserSemaCallbackE
0000000100c113e0 t __ZN12_GLOBAL__N_19AsmParser16parsePrimaryExprERPKN4llvm6MCExprERNS1_5SMLocE
0000000100c1f7e0 t __ZN12_GLOBAL__N_19AsmParser17parseDirectiveDCBEN4llvm9StringRefEj
0000000100c1e290 t __ZN12_GLOBAL__N_19AsmParser17parseDirectiveIfcEN4llvm5SMLocEb
0000000100c1ede0 t __ZN12_GLOBAL__N_19AsmParser17parseDirectiveSetEN4llvm9StringRefEb
0000000100c26a60 t __ZN12_GLOBAL__N_19AsmParser18getBinOpPrecedenceEN4llvm8AsmToken9TokenKindERNS1_12MCBinaryExpr6OpcodeE
0000000100c0e510 t __ZN12_GLOBAL__N_19AsmParser18isParsingInlineAsmEv
0000000100c1f2a0 t __ZN12_GLOBAL__N_19AsmParser18parseDirectiveCommEb
0000000100c10da0 t __ZN12_GLOBAL__N_19AsmParser18parseEscapedStringERNSt3__112basic_stringIcNS1_11char_traitsIcEENS1_9allocatorIcEEEE
0000000100c22410 t __ZN12_GLOBAL__N_19AsmParser18parseMacroArgumentERNSt3__16vectorIN4llvm8AsmTokenENS1_9allocatorIS4_EEEEb
0000000100c240d0 t __ZN12_GLOBAL__N_19AsmParser18parseMacroLikeBodyEN4llvm5SMLocE
0000000100c0dc90 t __ZN12_GLOBAL__N_19AsmParser19addDirectiveHandlerEN4llvm9StringRefENSt3__14pairIPNS1_20MCAsmParserExtensionEPFbS6_S2_NS1_5SMLocEEEE
0000000100c26840 t __ZN12_GLOBAL__N_19AsmParser19applyModifierToExprEPKN4llvm6MCExprENS1_15MCSymbolRefExpr11VariantKindE
0000000100c110b0 t __ZN12_GLOBAL__N_19AsmParser19eatToEndOfStatementEv
0000000100c0dd50 t __ZN12_GLOBAL__N_19AsmParser19getAssemblerDialectEv
0000000100c1ef00 t __ZN12_GLOBAL__N_19AsmParser19parseDirectiveAlignEbj
0000000100c1e970 t __ZN12_GLOBAL__N_19AsmParser19parseDirectiveIfdefEN4llvm5SMLocEb
0000000100c1e650 t __ZN12_GLOBAL__N_19AsmParser19parseDirectiveIfeqsEN4llvm5SMLocEb
0000000100c1fe80 t __ZN12_GLOBAL__N_19AsmParser19parseMacroArgumentsEPKN4llvm10MCAsmMacroERNSt3__16vectorINS6_INS1_8AsmTokenENS5_9allocatorIS7_EEEENS8_ISA_EEEE
0000000100c0dd70 t __ZN12_GLOBAL__N_19AsmParser19setAssemblerDialectEj
0000000100c0e4f0 t __ZN12_GLOBAL__N_19AsmParser19setParsingInlineAsmEb
0000000100c0dcc0 t __ZN12_GLOBAL__N_19AsmParser20addAliasForDirectiveEN4llvm9StringRefES2_
0000000100c125c0 t __ZN12_GLOBAL__N_19AsmParser20checkForValidSectionEv
0000000100c12440 t __ZN12_GLOBAL__N_19AsmParser20parseParenExpressionERPKN4llvm6MCExprERNS1_5SMLocE
0000000100c1fab0 t __ZN12_GLOBAL__N_19AsmParser21parseDirectiveRealDCBEN4llvm9StringRefERKNS1_12fltSemanticsE
0000000100c12660 t __ZN12_GLOBAL__N_19AsmParser21parseParenExprOfDepthEjRPKN4llvm6MCExprERNS1_5SMLocE
0000000100c12510 t __ZN12_GLOBAL__N_19AsmParser23parseAbsoluteExpressionERx
0000000100c24690 t __ZN12_GLOBAL__N_19AsmParser24instantiateMacroLikeBodyEPN4llvm10MCAsmMacroENS1_5SMLocERNS1_19raw_svector_ostreamE
0000000100c1ec70 t __ZN12_GLOBAL__N_19AsmParser26enabledGenDwarfForAssemblyEv
0000000100c10d00 t __ZN12_GLOBAL__N_19AsmParser27parseStringToEndOfStatementEv
0000000100c1f670 t __ZN12_GLOBAL__N_19AsmParser34parseDirectiveCFIPersonalityOrLsdaEb
0000000100c10840 t __ZN12_GLOBAL__N_19AsmParser3LexEv
0000000100c0dd80 t __ZN12_GLOBAL__N_19AsmParser3RunEbb
0000000100c10390 t __ZN12_GLOBAL__N_19AsmParser4NoteEN4llvm5SMLocERKNS1_5TwineENS1_7SMRangeE
0000000100c10490 t __ZN12_GLOBAL__N_19AsmParser7WarningEN4llvm5SMLocERKNS1_5TwineENS1_7SMRangeE
0000000100c0dd20 t __ZN12_GLOBAL__N_19AsmParser8getLexerEv
0000000100c0dc70 t __ZN12_GLOBAL__N_19AsmParserD0Ev
0000000100c0da70 t __ZN12_GLOBAL__N_19AsmParserD1Ev
0000000100c35ce0 t __ZN12_GLOBAL__N_19ELFWriter11writeObjectERN4llvm11MCAssemblerERKNS1_11MCAsmLayoutE
0000000100c3b090 t __ZN12_GLOBAL__N_19ELFWriter11writeSymbolERNS_17SymbolTableWriterEjRNS0_13ELFSymbolDataERKN4llvm11MCAsmLayoutE
0000000100c3a210 t __ZN12_GLOBAL__N_19ELFWriter17addToSectionTableEPKN4llvm12MCSectionELFE
00000001006fa3e0 t __ZN12_GLOBAL__N_19SSAIfConv18canSpeculateInstrsEPN4llvm17MachineBasicBlockE
000000010090c8e0 t __ZN12_GLOBAL__N_19SafeStack12IsAccessSafeEPN4llvm5ValueEyPKS2_y
000000010090bd10 t __ZN12_GLOBAL__N_19SafeStack17IsSafeStackAllocaEPKN4llvm5ValueEy
00000001009085b0 t __ZN12_GLOBAL__N_19SafeStack3runEv
000000010074a1f0 t __ZN12_GLOBAL__N_19UserValue13getLocationNoERKN4llvm14MachineOperandE
0000000100751a10 t __ZN12_GLOBAL__N_19UserValue16insertDebugValueEPN4llvm17MachineBasicBlockENS1_9SlotIndexES4_16DbgValueLocationbjRNS1_13LiveIntervalsERKNS1_15TargetInstrInfoERKNS1_18TargetRegisterInfoE
00000001007503f0 t __ZN12_GLOBAL__N_19UserValue5printERN4llvm11raw_ostreamEPKNS1_18TargetRegisterInfoE
0000000100749760 t __ZN12_GLOBAL__N_19UserValue6addDefEN4llvm9SlotIndexERKNS1_14MachineOperandEb
000000010074f080 t __ZN12_GLOBAL__N_19UserValue9extendDefEN4llvm9SlotIndexE16DbgValueLocationPNS1_9LiveRangeEPKNS1_6VNInfoEPNS1_15SmallVectorImplIS2_EERNS1_13LiveIntervalsE
00000001009fa740 t __ZN12_GLOBAL__N_19visitICmpEPKN4llvm8ICmpInstENS0_7CmpInst9PredicateERNS_14BaseIdentifierE
0000000100f0c300 t __ZN12panic_unwind3imp14find_eh_action28_$u7b$$u7b$closure$u7d$$u7d$17h24812c9b089f8b06E
0000000100f0c310 t __ZN12panic_unwind3imp14find_eh_action28_$u7b$$u7b$closure$u7d$$u7d$17h494c42d2e9eb7cdcE
0000000100f0bf80 t __ZN12panic_unwind3imp5panic17exception_cleanup17h5c8beb4870d4f93aE
0000000100f0bc80 t __ZN12panic_unwind5dwarf2eh20read_encoded_pointer17hf6285344bfb891b2E
0000000100f1dd60 T __ZN14rustc_demangle12try_demangle17hacc346cefa2e8bcbE
0000000100f1ac30 t __ZN14rustc_demangle2v06Parser10skip_const17h1d78be29cc56d2ceE
0000000100f19ce0 t __ZN14rustc_demangle2v06Parser11hex_nibbles17h49a66f51958b7de3E
0000000100f19da0 t __ZN14rustc_demangle2v06Parser5ident17h8f5869c4e51d9103E
0000000100f1a020 t __ZN14rustc_demangle2v06Parser9skip_path17h81d2a4f4c0606be0E
0000000100f1a5f0 t __ZN14rustc_demangle2v06Parser9skip_type17hf92202837d66f4a8E
0000000100f1ae30 t __ZN14rustc_demangle2v07Printer10print_path17h1749431f8b5e65deE
0000000100f1b800 t __ZN14rustc_demangle2v07Printer10print_type17h9e5610b35122434cE
0000000100f1c380 t __ZN14rustc_demangle2v07Printer10print_type28_$u7b$$u7b$closure$u7d$$u7d$17h7b2fc28df433e4bcE
0000000100f1caa0 t __ZN14rustc_demangle2v07Printer11print_const17h557657da798589caE
0000000100f1c900 t __ZN14rustc_demangle2v07Printer15print_dyn_trait17h93c3534ecc13d6beE
0000000100f1b6f0 t __ZN14rustc_demangle2v07Printer17print_generic_arg17h012b20a6a21c56afE
0000000100f1ad50 t __ZN14rustc_demangle2v07Printer25print_lifetime_from_index17h5e455828899b7232E
0000000100f1c6f0 t __ZN14rustc_demangle2v07Printer30print_path_maybe_open_generics17h9c8173abfedce1a7E
0000000100f1ddd0 T __ZN14rustc_demangle8Demangle6as_str17h5bcb278edf3fc93eE
0000000100f1cf00 T __ZN14rustc_demangle8demangle17h34c44c1a69c88c2cE
0000000100ca4bb0 t __ZN21CodeViewErrorCategoryD0Ev
0000000100ca4ba0 t __ZN21CodeViewErrorCategoryD1Ev
0000000100f051d0 T __ZN242_$LT$std..error..$LT$impl$u20$core..convert..From$LT$alloc..string..String$GT$$u20$for$u20$alloc..boxed..Box$LT$dyn$u20$std..error..Error$u2b$core..marker..Sync$u2b$core..marker..Send$GT$$GT$..from..StringError$u20$as$u20$core..fmt..Debug$GT$3fmt17h74c519ac8ffaded0E
0000000100f051a0 T __ZN243_$LT$std..error..$LT$impl$u20$core..convert..From$LT$alloc..string..String$GT$$u20$for$u20$alloc..boxed..Box$LT$dyn$u20$std..error..Error$u2b$core..marker..Sync$u2b$core..marker..Send$GT$$GT$..from..StringError$u20$as$u20$std..error..Error$GT$11description17h040db8e9450adb32E
0000000100f051b0 T __ZN244_$LT$std..error..$LT$impl$u20$core..convert..From$LT$alloc..string..String$GT$$u20$for$u20$alloc..boxed..Box$LT$dyn$u20$std..error..Error$u2b$core..marker..Sync$u2b$core..marker..Send$GT$$GT$..from..StringError$u20$as$u20$core..fmt..Display$GT$3fmt17h2083f152a7e1829bE
0000000100f02e00 t __ZN36_$LT$T$u20$as$u20$core..any..Any$GT$7type_id17h0d2ac270b1c5a2e7E
0000000100f02e10 t __ZN36_$LT$T$u20$as$u20$core..any..Any$GT$7type_id17h3001c2c607ae7b68E
0000000100eeffc0 T __ZN36_$LT$T$u20$as$u20$core..any..Any$GT$7type_id17h4d9e763add32f19bE
0000000100f02e20 t __ZN36_$LT$T$u20$as$u20$core..any..Any$GT$7type_id17h5112ec22d4bcc662E
0000000100f1e130 t __ZN36_$LT$T$u20$as$u20$core..any..Any$GT$7type_id17h99edd6a665b3c1dbE
0000000100f02e30 t __ZN36_$LT$T$u20$as$u20$core..any..Any$GT$7type_id17hc1418e30360c7aa8E
0000000100eeffe0 T __ZN36_$LT$T$u20$as$u20$core..any..Any$GT$7type_id17hc1bb58fdd0970b32E
00000001000016e0 t __ZN3jit11jit_example17hfa01f88c6e94e407E
0000000100001e50 t __ZN3jit15jit_compile_sum17h7a3ee31667ba17c1E
0000000100001660 t __ZN3jit4main17h88ad3fba0d6b6847E
00000001015875f0 d __ZN3std10sys_common11at_exit_imp4LOCK17h9e6c30a97f9b655fE
0000000100f08870 t __ZN3std10sys_common11at_exit_imp4push17ha6524d165e0403f8E
00000001015a94a0 b __ZN3std10sys_common11at_exit_imp5QUEUE17h99764f4a89e22675E
0000000100f09890 t __ZN3std10sys_common11thread_info10ThreadInfo4with28_$u7b$$u7b$closure$u7d$$u7d$17h1fe45b2ce63d506bE
00000001015877d8 s __ZN3std10sys_common11thread_info11THREAD_INFO7__getit5__KEY17h32c62a9b1ca0e807E
0000000101587838 s __ZN3std10sys_common11thread_info11THREAD_INFO7__getit5__KEY17h32c62a9b1ca0e807E$tlv$init
0000000100f09a40 T __ZN3std10sys_common11thread_info3set17h6a6c71de5a4200c4E
0000000100f09c60 t __ZN3std10sys_common4util10dumb_print17h23bcdf2e6ad91aa7E
0000000100f09d10 t __ZN3std10sys_common4util15report_overflow17h23675c2b6c6ee6a4E
0000000100f09cc0 t __ZN3std10sys_common4util5abort17hf877b3084e4b4f64E
00000001015a94b0 b __ZN3std10sys_common7cleanup7CLEANUP17ha7679516d0321643E
0000000100f09150 t __ZN3std10sys_common9backtrace10_print_fmt28_$u7b$$u7b$closure$u7d$$u7d$17h22636cb7c63afeecE
0000000100f08c30 t __ZN3std10sys_common9backtrace10_print_fmt28_$u7b$$u7b$closure$u7d$$u7d$17hf27a17efbde9cfb9E
0000000100f08c80 t __ZN3std10sys_common9backtrace10_print_fmt28_$u7b$$u7b$closure$u7d$$u7d$28_$u7b$$u7b$closure$u7d$$u7d$17h83a097afafa9a825E
00000001015a94a8 b __ZN3std10sys_common9backtrace11log_enabled7ENABLED17h962b386f9876a7e5E
0000000100f09270 t __ZN3std10sys_common9backtrace15output_filename17h2661ab7d78ab4868E
0000000100f09260 t __ZN3std10sys_common9backtrace28__rust_begin_short_backtrace17hf7bb5ba1db847aecE
0000000101587630 d __ZN3std10sys_common9backtrace4lock4LOCK17h3856ba6656be6e76E
0000000100f06da0 t __ZN3std2io5Write9write_all17hb747f69121a0b67fE
0000000100f06f80 t __ZN3std2io5Write9write_all17hd68080f55df4879aE
0000000100f07220 t __ZN3std2io5Write9write_fmt17h3236e023140ca9e5E
0000000100f06240 t __ZN3std2io5impls71_$LT$impl$u20$std..io..Write$u20$for$u20$alloc..boxed..Box$LT$W$GT$$GT$14write_vectored17h72a93ad7843fcfb3E
0000000100f06270 t __ZN3std2io5impls71_$LT$impl$u20$std..io..Write$u20$for$u20$alloc..boxed..Box$LT$W$GT$$GT$5flush17hadaf3010619b5893E
0000000100f06210 t __ZN3std2io5impls71_$LT$impl$u20$std..io..Write$u20$for$u20$alloc..boxed..Box$LT$W$GT$$GT$5write17hb6b0b3b23de4e97eE
0000000100f06290 t __ZN3std2io5impls71_$LT$impl$u20$std..io..Write$u20$for$u20$alloc..boxed..Box$LT$W$GT$$GT$9write_all17h47026aeb121f6e87E
0000000100f062c0 t __ZN3std2io5impls71_$LT$impl$u20$std..io..Write$u20$for$u20$alloc..boxed..Box$LT$W$GT$$GT$9write_fmt17h760a941156fa14acE
00000001015877c0 s __ZN3std2io5stdio12LOCAL_STDERR7__getit5__KEY17h51cd24d316bf949fE
0000000101587898 s __ZN3std2io5stdio12LOCAL_STDERR7__getit5__KEY17h51cd24d316bf949fE$tlv$init
00000001015877a8 s __ZN3std2io5stdio12LOCAL_STDOUT7__getit5__KEY17h5cf26c0b4e6b2e07E
0000000101587870 s __ZN3std2io5stdio12LOCAL_STDOUT7__getit5__KEY17h5cf26c0b4e6b2e07E$tlv$init
0000000100f06a30 T __ZN3std2io5stdio6_print17hab7a91f6437f4d29E
0000000100f06330 T __ZN3std2io5stdio6stdout17heb7002b169ddcb02E
00000001015875a8 d __ZN3std2io5stdio6stdout8INSTANCE17h80035fa956098620E
0000000100f068a0 T __ZN3std2io5stdio9set_panic17h232df0be187f6407E
0000000100f058b0 t __ZN3std2io8buffered18BufWriter$LT$W$GT$9flush_buf17hc57e47da512090d5E
0000000100002a40 t __ZN3std2rt10lang_start17h6c38e9d2b59dd411E
0000000100002a90 t __ZN3std2rt10lang_start28_$u7b$$u7b$closure$u7d$$u7d$17h5dab467d4003667dE
0000000100f0ae80 T __ZN3std2rt19lang_start_internal17h6fc19576913486feE
0000000100f04c50 T __ZN3std3env11current_dir17h787175d38fc36bb0E
0000000100f04ec0 T __ZN3std3env7_var_os17ha6f86301ddbcd09dE
0000000100f05760 T __ZN3std3ffi5c_str104_$LT$impl$u20$core..convert..From$LT$std..ffi..c_str..NulError$GT$$u20$for$u20$std..io..error..Error$GT$4from17h2b8c83ebdb4b0744E
0000000100008bb0 t __ZN3std3ffi5c_str4CStr29from_bytes_with_nul_unchecked17hbe4e6657625867feE
00000001000028d0 t __ZN3std3ffi5c_str4CStr29from_bytes_with_nul_unchecked17hcb20b8805fcdfe03E
00000001000028f0 t __ZN3std3ffi5c_str4CStr6as_ptr17h6c114da64a489322E
0000000100008bd0 t __ZN3std3ffi5c_str4CStr6as_ptr17had78b32ac99001aaE
0000000100f05880 T __ZN3std3ffi5c_str4CStr6to_str17h5dd41d407f2f5061E
0000000100f053e0 T __ZN3std3ffi5c_str7CString11into_string17h24916231b599c753E
0000000100008c00 t __ZN3std3ffi5c_str7CString17as_bytes_with_nul17ha98d9548968a429fE
0000000100002920 t __ZN3std3ffi5c_str7CString17as_bytes_with_nul17hba25c43ab70dceddE
0000000100f05280 T __ZN3std3ffi5c_str7CString18from_vec_unchecked17h7afeffe0e8e1c1ffE
0000000100eeb890 T __ZN3std3ffi5c_str7CString3new17hf03488f3cdcefbe8E
0000000100f051f0 T __ZN3std3ffi5c_str7CString4_new17h411690f259479830E
0000000100f053c0 T __ZN3std3ffi5c_str7CString8from_raw17hb04aa3ee239bdb31E
0000000100f0bba0 t __ZN3std3sys4unix14abort_internal17h0815f6784e052582E
00000001015a94d0 b __ZN3std3sys4unix14stack_overflow3imp13MAIN_ALTSTACK17hacd382afe4062564E
0000000100f0b730 t __ZN3std3sys4unix14stack_overflow3imp14signal_handler17h5bc7d9c260e2378eE
0000000100f0ba60 t __ZN3std3sys4unix17decode_error_kind17he7344babad5067e0E
0000000101587820 s __ZN3std3sys4unix17fast_thread_local13register_dtor10REGISTERED17h26b301db411f9a94E.0.0
00000001015878e0 s __ZN3std3sys4unix17fast_thread_local13register_dtor10REGISTERED17h26b301db411f9a94E.0.0$tlv$init
0000000100f0b340 T __ZN3std3sys4unix17fast_thread_local13register_dtor17hee5efb7c00c04fb5E
00000001015877f0 s __ZN3std3sys4unix17fast_thread_local13register_dtor5DTORS17h421622d0b430f1fbE
00000001015878c0 s __ZN3std3sys4unix17fast_thread_local13register_dtor5DTORS17h421622d0b430f1fbE$tlv$init
0000000100f0b490 t __ZN3std3sys4unix17fast_thread_local13register_dtor9run_dtors17h1422283196de1b34E
0000000100f0b5e0 t __ZN3std3sys4unix2os12error_string17hf5ecb92147dc1b36E
0000000101587750 d __ZN3std3sys4unix2os8env_lock8ENV_LOCK17hba1b7d38799a4cd7E
00000001015a94d8 b __ZN3std3sys4unix6thread5guard9PAGE_SIZE17h1cae66c9541d44dcE
00000001000029c0 t __ZN3std3sys4unix7process14process_common8ExitCode6as_i3217hd70c79f881fe78d4E
0000000100f07ab0 t __ZN3std4path10Components15include_cur_dir17h02ff1382f288f338E
0000000100f07bb0 t __ZN3std4path10Components20parse_next_component17h25ffcc122c2d6c0aE
0000000100f07d70 t __ZN3std4path10Components25parse_next_component_back17hacaa53d4506f9223E
0000000100f07840 T __ZN3std4path10Components7as_path17h3e0e151686f8a822E
0000000100f07500 t __ZN3std4path10iter_after17h2ba344bfe5cbf1faE
0000000100f23100 T __ZN3std4sync4once4Once10call_inner17h85d0b0d239be993cE
0000000100f084a0 t __ZN3std4sync4once4Once9call_once28_$u7b$$u7b$closure$u7d$$u7d$17h7769efa897750ac7E
0000000100f09eb0 t __ZN3std5alloc24default_alloc_error_hook17h61fc346ddaa48b1dE
00000001015a94b8 b __ZN3std5alloc4HOOK17h1247f62de841cd3eE
0000000100f05170 t __ZN3std5error5Error5cause17h0c117795defffc5bE
0000000100f05180 t __ZN3std5error5Error7type_id17hfcdced736a675225E
0000000100f05190 t __ZN3std5error5Error9backtrace17h6b34816be8a74faaE
0000000100f044a0 T __ZN3std6thread4park17hbd2c81d03132b281E
0000000100f22ea0 t __ZN3std6thread5local4fast12Key$LT$T$GT$14try_initialize17h1b3499636770fd52E
0000000100f22f80 t __ZN3std6thread5local4fast12Key$LT$T$GT$14try_initialize17hc7a998dc4e7bfcc1E
0000000100f23020 t __ZN3std6thread5local4fast12Key$LT$T$GT$14try_initialize17hfabd521226fa3babE
0000000100f043b0 t __ZN3std6thread5local4fast13destroy_value17hd11184bd7d528796E
0000000100f04430 t __ZN3std6thread5local4fast13destroy_value17hf180533ed4f43df4E
0000000100f04820 T __ZN3std6thread6Thread3new17h9beb5c85dd3856b1E
0000000100f04b50 T __ZN3std6thread6Thread6unpark17h21e739b87e365a6eE
0000000101587560 d __ZN3std6thread8ThreadId3new5GUARD17hf9033b378eda9e0aE
00000001015875a0 d __ZN3std6thread8ThreadId3new7COUNTER17hcd2ccb820590fb6aE
0000000100f22df0 T __ZN3std9panicking11begin_panic17hd1d15ff3bd52be9aE
0000000100f23340 t __ZN3std9panicking11begin_panic17hfe3430429ff8a19cE
0000000100ef0480 T __ZN3std9panicking11begin_panic21PanicPayload$LT$A$GT$3new17h1416711b341e155aE
0000000100f0a150 t __ZN3std9panicking12default_hook17hd940c417edf5953eE
0000000101587748 d __ZN3std9panicking12default_hook28_$u7b$$u7b$closure$u7d$$u7d$11FIRST_PANIC17h453f385f55825d3cE
0000000100f0a530 t __ZN3std9panicking12default_hook28_$u7b$$u7b$closure$u7d$$u7d$17h6b39e7bec1c0e07fE
0000000100f232e0 T __ZN3std9panicking15begin_panic_fmt17hf84ec34c30992fe3E
0000000100f0a7d0 t __ZN3std9panicking18continue_panic_fmt17hfee7d7df13a8f380E
0000000101587808 s __ZN3std9panicking18update_panic_count11PANIC_COUNT7__getit5__KEY17h9a2a85653d8b7b6eE
00000001015878c8 s __ZN3std9panicking18update_panic_count11PANIC_COUNT7__getit5__KEY17h9a2a85653d8b7b6eE$tlv$init
0000000100f0ab90 T __ZN3std9panicking20rust_panic_with_hook17hb5f0fb06584b7c80E
0000000100f0a790 t __ZN3std9panicking3try7do_call17h11650dfff941f715E
00000001015a94c0 b __ZN3std9panicking4HOOK17h9195da9c85beb5aeE
0000000101587670 d __ZN3std9panicking9HOOK_LOCK17ha65c138d5da46c28E
0000000100f21210 T __ZN40_$LT$str$u20$as$u20$core..fmt..Debug$GT$3fmt17h47cb540f90a69b22E
0000000100f21780 T __ZN41_$LT$char$u20$as$u20$core..fmt..Debug$GT$3fmt17hce16a31adce5e994E
0000000100eeb930 T __ZN42_$LT$$RF$T$u20$as$u20$core..fmt..Debug$GT$3fmt17h095c28428dfe3ad8E
0000000100002f60 T __ZN42_$LT$$RF$T$u20$as$u20$core..fmt..Debug$GT$3fmt17h159d62d4e835f02dE
00000001000065d0 T __ZN42_$LT$$RF$T$u20$as$u20$core..fmt..Debug$GT$3fmt17h17fdb6beb029096fE
0000000100ef1950 T __ZN42_$LT$$RF$T$u20$as$u20$core..fmt..Debug$GT$3fmt17h1fa04567172b09a6E
0000000100f22990 t __ZN42_$LT$$RF$T$u20$as$u20$core..fmt..Debug$GT$3fmt17h1fd85e4348f8c734E
0000000100003ed0 T __ZN42_$LT$$RF$T$u20$as$u20$core..fmt..Debug$GT$3fmt17h20cb67c419060872E
0000000100f02e40 t __ZN42_$LT$$RF$T$u20$as$u20$core..fmt..Debug$GT$3fmt17h3117f4edbbdaa49eE
0000000100f229a0 t __ZN42_$LT$$RF$T$u20$as$u20$core..fmt..Debug$GT$3fmt17h32621bdc96797215E
0000000100f02ec0 t __ZN42_$LT$$RF$T$u20$as$u20$core..fmt..Debug$GT$3fmt17h37611fcdffa7aab1E
0000000100f22a60 t __ZN42_$LT$$RF$T$u20$as$u20$core..fmt..Debug$GT$3fmt17h37ea4996ae806199E
0000000100f02ee0 t __ZN42_$LT$$RF$T$u20$as$u20$core..fmt..Debug$GT$3fmt17h3927447a4bafdda3E
000000010000a930 T __ZN42_$LT$$RF$T$u20$as$u20$core..fmt..Debug$GT$3fmt17h4a3b13d80d8ce13aE
0000000100ef1990 T __ZN42_$LT$$RF$T$u20$as$u20$core..fmt..Debug$GT$3fmt17h4ae3a1f49b4b782cE
0000000100f22b50 t __ZN42_$LT$$RF$T$u20$as$u20$core..fmt..Debug$GT$3fmt17h4f7da0700b8df9c8E
0000000100003f10 T __ZN42_$LT$$RF$T$u20$as$u20$core..fmt..Debug$GT$3fmt17h5b9807020bd5cba0E
0000000100003f50 T __ZN42_$LT$$RF$T$u20$as$u20$core..fmt..Debug$GT$3fmt17h5c1265b6e275a3afE
0000000100009750 T __ZN42_$LT$$RF$T$u20$as$u20$core..fmt..Debug$GT$3fmt17h5fbcb7c6e627cc94E
0000000100ef0920 T __ZN42_$LT$$RF$T$u20$as$u20$core..fmt..Debug$GT$3fmt17h64e526e5686bc489E
0000000100003f90 T __ZN42_$LT$$RF$T$u20$as$u20$core..fmt..Debug$GT$3fmt17h6d8758bea1f901f4E
0000000100f22ca0 t __ZN42_$LT$$RF$T$u20$as$u20$core..fmt..Debug$GT$3fmt17h77307f35b82b3fc1E
0000000100eec840 T __ZN42_$LT$$RF$T$u20$as$u20$core..fmt..Debug$GT$3fmt17h7b7e4102b4cb1967E
000000010000b330 T __ZN42_$LT$$RF$T$u20$as$u20$core..fmt..Debug$GT$3fmt17h80e601284b64bcadE
0000000100ef19d0 T __ZN42_$LT$$RF$T$u20$as$u20$core..fmt..Debug$GT$3fmt17h8aa77d6db64a36b9E
000000010000b060 T __ZN42_$LT$$RF$T$u20$as$u20$core..fmt..Debug$GT$3fmt17h96c03e9e2c615f3cE
0000000100f02f30 t __ZN42_$LT$$RF$T$u20$as$u20$core..fmt..Debug$GT$3fmt17h9ba4a4f7e8e0c818E
0000000100f02f80 t __ZN42_$LT$$RF$T$u20$as$u20$core..fmt..Debug$GT$3fmt17had45984aabf30f57E
0000000100008e40 T __ZN42_$LT$$RF$T$u20$as$u20$core..fmt..Debug$GT$3fmt17hb315667f86edcea8E
0000000100f22cc0 t __ZN42_$LT$$RF$T$u20$as$u20$core..fmt..Debug$GT$3fmt17hb58de5fe0e7986e0E
00000001000030b0 T __ZN42_$LT$$RF$T$u20$as$u20$core..fmt..Debug$GT$3fmt17hb9e2ef9865550bd8E
0000000100008e80 T __ZN42_$LT$$RF$T$u20$as$u20$core..fmt..Debug$GT$3fmt17hbc335576bae56f90E
0000000100f02f90 t __ZN42_$LT$$RF$T$u20$as$u20$core..fmt..Debug$GT$3fmt17hced81761c251afebE
0000000100f21760 T __ZN42_$LT$str$u20$as$u20$core..fmt..Display$GT$3fmt17h535263617dbce862E
0000000100f21ab0 T __ZN43_$LT$char$u20$as$u20$core..fmt..Display$GT$3fmt17h66c77da3829b624aE
0000000100f02fe0 t __ZN44_$LT$$RF$T$u20$as$u20$core..fmt..Display$GT$3fmt17h8b450c28815c9f72E
0000000100f22ce0 t __ZN44_$LT$$RF$T$u20$as$u20$core..fmt..Display$GT$3fmt17h955ffcef1cf3829fE
0000000100ef1a10 T __ZN44_$LT$$RF$T$u20$as$u20$core..fmt..Display$GT$3fmt17h9dd073c4c39c06f3E
0000000100f03000 t __ZN44_$LT$$RF$T$u20$as$u20$core..fmt..Display$GT$3fmt17hd2f779062aa6e311E
0000000100f0c320 t __ZN44_$LT$$RF$T$u20$as$u20$core..fmt..Display$GT$3fmt17hf385e4a244484d6aE
0000000100f03010 t __ZN45_$LT$$RF$T$u20$as$u20$core..fmt..UpperHex$GT$3fmt17h9f5ece44a4efbce7E
0000000100eef970 T __ZN4core10intrinsics19copy_nonoverlapping17h830787f8b6a78e42E
0000000100ef1520 T __ZN4core10intrinsics19copy_nonoverlapping17ha3767855cc5cfed1E
0000000100ef15e0 T __ZN4core10intrinsics19copy_nonoverlapping17hb327f8dc1d555358E
0000000100eef170 T __ZN4core10intrinsics19copy_nonoverlapping17hc6c9a89de0c49449E
0000000100eefa30 T __ZN4core10intrinsics19copy_nonoverlapping17hc7838ef8575dfe74E
0000000100eefaf0 T __ZN4core10intrinsics23is_aligned_and_not_null17h33003de20102dc90E
0000000100ef16a0 T __ZN4core10intrinsics23is_aligned_and_not_null17h5e51ece110a989c5E
0000000100ef1730 T __ZN4core10intrinsics23is_aligned_and_not_null17h76b1eb470fcf0f96E
0000000100eef230 T __ZN4core10intrinsics23is_aligned_and_not_null17h81af6d893f850133E
0000000100eefb80 T __ZN4core10intrinsics23is_aligned_and_not_null17he20b3e52f2945631E
0000000100005a80 T __ZN4core10intrinsics23is_aligned_and_not_null17hf084c3878b87baafE
0000000100ef17c0 T __ZN4core10intrinsics8overlaps17h017a275f97dc523cE
0000000100eefc10 T __ZN4core10intrinsics8overlaps17h59634962e153c944E
0000000100ef1850 T __ZN4core10intrinsics8overlaps17h9c2eef11c6a5eda5E
0000000100eef2c0 T __ZN4core10intrinsics8overlaps17haaa1d2f268f74c8bE
0000000100eefca0 T __ZN4core10intrinsics8overlaps17hdc4f52cf324de730E
0000000100ef0000 T __ZN4core3any6TypeId2of17he2c803a1a4543df5E
0000000100ef0030 T __ZN4core3any6TypeId2of17hf576487b6691d8a5E
0000000100eecf40 T __ZN4core3cmp3Ord3max17h8e46b91808ef3ddaE
0000000100eecf70 T __ZN4core3cmp3max17hba1349196cd05523E
0000000100eebd70 t __ZN4core3cmp5impls50_$LT$impl$u20$core..cmp..Ord$u20$for$u20$usize$GT$3cmp17hd92d1b2785951905E
0000000100eecfa0 T __ZN4core3cmp6max_by17hdcadc956485845d4E
0000000100f20410 T __ZN4core3fmt10ArgumentV110from_usize17h06e30191c14b22b0E
0000000100f20400 t __ZN4core3fmt10ArgumentV110show_usize17h25fd4caef5254b25E
000000010000b290 T __ZN4core3fmt10ArgumentV13new17h135a7acbb9ec577cE
0000000100eec880 T __ZN4core3fmt10ArgumentV13new17h1cf0fdba77e88617E
0000000100ef1a50 T __ZN4core3fmt10ArgumentV13new17h1fa45308d16441b7E
0000000100ef1aa0 T __ZN4core3fmt10ArgumentV13new17h4f92441e2b6db126E
0000000100001590 t __ZN4core3fmt10ArgumentV13new17h5c53b17cfe2f6160E
0000000100eec8d0 T __ZN4core3fmt10ArgumentV13new17h5dd4695fb0e34720E
000000010000b2e0 T __ZN4core3fmt10ArgumentV13new17hbff542129f4a6d7eE
0000000100ef1af0 T __ZN4core3fmt10ArgumentV13new17hc18438aa8badcaafE
0000000100eec920 T __ZN4core3fmt10ArgumentV13new17hc8696334d7d56ffaE
0000000100f22560 T __ZN4core3fmt3num3imp51_$LT$impl$u20$core..fmt..Display$u20$for$u20$u8$GT$3fmt17h6093101266af7386E
0000000100f225f0 T __ZN4core3fmt3num3imp52_$LT$impl$u20$core..fmt..Display$u20$for$u20$i32$GT$3fmt17h6c0afc275a20a3cbE
0000000100f22730 T __ZN4core3fmt3num3imp52_$LT$impl$u20$core..fmt..Display$u20$for$u20$u32$GT$3fmt17he9436aa45a6cc24dE
0000000100f22860 T __ZN4core3fmt3num3imp52_$LT$impl$u20$core..fmt..Display$u20$for$u20$u64$GT$3fmt17hf46ae521437b08d7E
0000000100f22860 T __ZN4core3fmt3num3imp54_$LT$impl$u20$core..fmt..Display$u20$for$u20$usize$GT$3fmt17h2232f452b498eb71E
0000000100ef03f0 t __ZN4core3fmt3num50_$LT$impl$u20$core..fmt..Debug$u20$for$u20$u32$GT$3fmt17hba5cbe8117dbe6e7E
0000000100eed060 t __ZN4core3fmt3num52_$LT$impl$u20$core..fmt..Debug$u20$for$u20$usize$GT$3fmt17h580ccfe788045750E
00000001000086e0 t __ZN4core3fmt3num52_$LT$impl$u20$core..fmt..Debug$u20$for$u20$usize$GT$3fmt17h8edaa16b682bd1aeE
0000000100f22120 t __ZN4core3fmt3num52_$LT$impl$u20$core..fmt..Debug$u20$for$u20$usize$GT$3fmt17hc57f3dd7e532e798E
0000000100f22200 T __ZN4core3fmt3num52_$LT$impl$u20$core..fmt..LowerHex$u20$for$u20$i8$GT$3fmt17h3452db46fc117009E
0000000100f22200 T __ZN4core3fmt3num52_$LT$impl$u20$core..fmt..LowerHex$u20$for$u20$u8$GT$3fmt17h6f74899636953c5dE
0000000100f22290 T __ZN4core3fmt3num52_$LT$impl$u20$core..fmt..UpperHex$u20$for$u20$i8$GT$3fmt17h01bf42ba416b733eE
0000000100f22290 T __ZN4core3fmt3num52_$LT$impl$u20$core..fmt..UpperHex$u20$for$u20$u8$GT$3fmt17h74b5c04d8898b3adE
0000000100f22320 T __ZN4core3fmt3num53_$LT$impl$u20$core..fmt..LowerHex$u20$for$u20$i32$GT$3fmt17hd5a614b9a00b2ca6E
0000000100f22440 T __ZN4core3fmt3num53_$LT$impl$u20$core..fmt..LowerHex$u20$for$u20$i64$GT$3fmt17h56cde9c085d89b69E
0000000100f22320 T __ZN4core3fmt3num53_$LT$impl$u20$core..fmt..LowerHex$u20$for$u20$u32$GT$3fmt17hbc88be990c414d95E
0000000100f22440 T __ZN4core3fmt3num53_$LT$impl$u20$core..fmt..LowerHex$u20$for$u20$u64$GT$3fmt17h1b762646b0cc17d1E
0000000100f223b0 T __ZN4core3fmt3num53_$LT$impl$u20$core..fmt..UpperHex$u20$for$u20$i32$GT$3fmt17h2ae1fbf41670ad4eE
0000000100f224d0 T __ZN4core3fmt3num53_$LT$impl$u20$core..fmt..UpperHex$u20$for$u20$i64$GT$3fmt17h2e6025b256855481E
0000000100f223b0 T __ZN4core3fmt3num53_$LT$impl$u20$core..fmt..UpperHex$u20$for$u20$u32$GT$3fmt17h8576e04dd7d7ea8cE
0000000100f224d0 T __ZN4core3fmt3num53_$LT$impl$u20$core..fmt..UpperHex$u20$for$u20$u64$GT$3fmt17h546d030094bdfd7bE
0000000100f22440 T __ZN4core3fmt3num55_$LT$impl$u20$core..fmt..LowerHex$u20$for$u20$isize$GT$3fmt17hccac71eae2b1733cE
0000000100f22440 T __ZN4core3fmt3num55_$LT$impl$u20$core..fmt..LowerHex$u20$for$u20$usize$GT$3fmt17hd6694ab0e8848278E
0000000100f224d0 T __ZN4core3fmt3num55_$LT$impl$u20$core..fmt..UpperHex$u20$for$u20$isize$GT$3fmt17hcf2438ac7a659b02E
0000000100f224d0 T __ZN4core3fmt3num55_$LT$impl$u20$core..fmt..UpperHex$u20$for$u20$usize$GT$3fmt17hce780928ebc12156E
0000000100f03020 t __ZN4core3fmt5Write10write_char17h19a67eaff0451c28E
0000000100f03140 t __ZN4core3fmt5Write10write_char17h9375748d557e3295E
0000000100f201b0 t __ZN4core3fmt5Write10write_char17hb02285bdff55c768E
0000000100f03260 t __ZN4core3fmt5Write9write_fmt17hb9e55575726ca0a0E
0000000100f20270 t __ZN4core3fmt5Write9write_fmt17hcf934e0d16acac60E
0000000100f032c0 t __ZN4core3fmt5Write9write_fmt17hfed87fa1533e64b6E
0000000100f20480 T __ZN4core3fmt5write17h9204dad1f05752a2E
0000000100f1ffd0 t __ZN4core3fmt8builders10DebugInner5entry17h7acaefcf91d37721E
0000000100f1fdb0 T __ZN4core3fmt8builders10DebugTuple5field17hdef033e69b0ea07dE
0000000100f1ff50 T __ZN4core3fmt8builders10DebugTuple6finish17he62cfe10a8101f4fE
0000000100f1fb20 T __ZN4core3fmt8builders11DebugStruct5field17h2998def2e7a9afb2E
0000000100f1fd50 T __ZN4core3fmt8builders11DebugStruct6finish17h7d95236a11d80c6eE
0000000100f20160 T __ZN4core3fmt8builders8DebugSet5entry17h231d69297b857b9cE
0000000100f20160 T __ZN4core3fmt8builders9DebugList5entry17h758eb46b500c91aeE
0000000100f20180 T __ZN4core3fmt8builders9DebugList6finish17h2f04441c48d34402E
00000001000029e0 t __ZN4core3fmt9Arguments6new_v117ha51ad2b2d29304a6E
0000000100006ed0 t __ZN4core3fmt9Arguments6new_v117hb527d87fc002dd81E
0000000100eec970 t __ZN4core3fmt9Arguments6new_v117hb9dd4b530aeb6138E
0000000100f211b0 T __ZN4core3fmt9Formatter10debug_list17h0cb97213caa4188dE
0000000100f21160 T __ZN4core3fmt9Formatter11debug_tuple17h24a02d4470035898E
0000000100f21130 T __ZN4core3fmt9Formatter12debug_struct17h37c7a66c9420ce76E
0000000100f20c10 t __ZN4core3fmt9Formatter12pad_integral12write_prefix17hfc51fba77eb67673E
0000000100f20890 T __ZN4core3fmt9Formatter12pad_integral17h3adc336ba70710bbE
0000000100f21110 T __ZN4core3fmt9Formatter15debug_lower_hex17he014722654d063aeE
0000000100f21120 T __ZN4core3fmt9Formatter15debug_upper_hex17hf73ca1320931abe6E
0000000100f20c70 T __ZN4core3fmt9Formatter3pad17h83b8f18183ba3635E
0000000100f21100 T __ZN4core3fmt9Formatter9alternate17h2e0f41d8dca544e9E
0000000100f210a0 T __ZN4core3fmt9Formatter9write_fmt17h1e829edccab82b9bE
0000000100f21080 T __ZN4core3fmt9Formatter9write_str17h09d8630c82c5ea05E
000000010000ac80 T __ZN4core3mem11size_of_val17h18f488337234988bE
000000010000acb0 T __ZN4core3mem12align_of_val17h52e540714c662d77E
0000000100001530 t __ZN4core3mem14transmute_copy17h437a06cdb10850f7E
0000000100eed0f0 T __ZN4core3mem4drop17h3c0ac3ddb86a2f7bE
000000010000ace0 T __ZN4core3mem4drop17hfd71fb009532cd52E
0000000100eed100 T __ZN4core3mem4swap17h0a6c681ebe680b47E
0000000100eef350 T __ZN4core3mem4swap17h7c5a68b590758b79E
0000000100ef0960 T __ZN4core3mem4swap17hd79b83bd65506086E
0000000100ef0990 T __ZN4core3mem4take17h81a734db8dc7a24cE
000000010000acf0 T __ZN4core3mem6forget17he662c0a55f080b92E
0000000100ef09e0 T __ZN4core3mem6forget17he983c1cd4b2b6d1dE
000000010000ad20 T __ZN4core3mem6zeroed17hc86e7f532d8aa4ceE
000000010000ad50 T __ZN4core3mem6zeroed17he25ffbcd660d478eE
000000010000ad80 T __ZN4core3mem7replace17h08e190516c313630E
000000010000adc0 T __ZN4core3mem7replace17h0b8dbf5d7974247dE
0000000100ef0a20 T __ZN4core3mem7replace17h5279ab3b77002278E
0000000100eef380 T __ZN4core3mem7size_of17h05e2c14e3daf1703E
0000000100ef0a70 T __ZN4core3mem7size_of17h11bbabdaf218253bE
000000010000ae00 T __ZN4core3mem7size_of17h14db903c30ec6bbdE
000000010000ae30 T __ZN4core3mem7size_of17h6dede1e64208b3a2E
0000000100eef3b0 T __ZN4core3mem7size_of17h8214371365ce78a7E
0000000100ef0aa0 T __ZN4core3mem7size_of17h828c2d5dc827a3ddE
0000000100eef3e0 T __ZN4core3mem7size_of17h8d69e2005922aff2E
0000000100001560 t __ZN4core3mem7size_of17h9616da86360ceb31E
0000000100ef0ad0 T __ZN4core3mem7size_of17ha9dea8570377edb9E
0000000100eed130 T __ZN4core3mem7size_of17hb4864ba5c3a73dd9E
0000000100eed160 T __ZN4core3mem8align_of17h0339ec8090b8c7f5E
0000000100ef0b00 T __ZN4core3mem8align_of17h3b4aaa998d49d9c3E
000000010000ae60 T __ZN4core3mem8align_of17h6d37ed3e8f39b5ddE
0000000100ef0b30 T __ZN4core3mem8align_of17h77c35bc9822a80b7E
0000000100eef410 T __ZN4core3mem8align_of17hdcfba8d2adc52a6eE
0000000100eef440 T __ZN4core3mem8align_of17hfd48cc473588dafcE
0000000100eed190 t __ZN4core3num12NonZeroUsize13new_unchecked17h55dc387f743242ceE
000000010000b370 t __ZN4core3num12NonZeroUsize13new_unchecked17hbe26d8cbb831b180E
0000000100ef0060 t __ZN4core3num12NonZeroUsize13new_unchecked17hd4d4c3ed3006fd0dE
0000000100ef0080 t __ZN4core3num12NonZeroUsize3get17h0856de416eb84b75E
000000010000b390 t __ZN4core3num12NonZeroUsize3get17h113a27e7b8416a7cE
0000000100eed1b0 t __ZN4core3num12NonZeroUsize3get17h3d53902dffcc8404E
0000000100f1df90 t __ZN4core3num14from_str_radix17ha9177abedf9bf203E
0000000100f21f10 T __ZN4core3num21_$LT$impl$u20$u32$GT$14from_str_radix17hf6979d0f1aa01671E
000000010000b3b0 t __ZN4core3num23_$LT$impl$u20$usize$GT$11checked_add17hc38e9e9b9e87cb16E
0000000100eed1d0 t __ZN4core3num23_$LT$impl$u20$usize$GT$11checked_add17hcd1b75b8a8bca9deE
000000010000b420 t __ZN4core3num23_$LT$impl$u20$usize$GT$11checked_mul17h010a57bb0d5ff455E
0000000100ef00a0 t __ZN4core3num23_$LT$impl$u20$usize$GT$11checked_mul17h35b79a84bbeb4532E
0000000100eed240 t __ZN4core3num23_$LT$impl$u20$usize$GT$11checked_mul17h8b1fddb28a3a713bE
0000000100eefd30 t __ZN4core3num23_$LT$impl$u20$usize$GT$11checked_mul17hfe5bc5c595e6448fE
000000010000b490 t __ZN4core3num23_$LT$impl$u20$usize$GT$12wrapping_add17h12aad1e36a68ced3E
0000000100eed2b0 t __ZN4core3num23_$LT$impl$u20$usize$GT$12wrapping_add17h4932a306f7511fe2E
0000000100eed2e0 t __ZN4core3num23_$LT$impl$u20$usize$GT$12wrapping_sub17h2fa51bbe8edd4ca2E
000000010000b4c0 t __ZN4core3num23_$LT$impl$u20$usize$GT$12wrapping_sub17h7eb7c2f8665d94a0E
000000010000b4f0 t __ZN4core3num23_$LT$impl$u20$usize$GT$14saturating_add17he197c5b08054f22cE
000000010000b530 t __ZN4core3num23_$LT$impl$u20$usize$GT$14saturating_mul17h11895ebdef413536E
0000000100ef0110 t __ZN4core3num23_$LT$impl$u20$usize$GT$14saturating_mul17h6661a51d78c81610E
0000000100eed310 t __ZN4core3num23_$LT$impl$u20$usize$GT$14saturating_mul17hb0a008947364fea3E
000000010000b580 t __ZN4core3num23_$LT$impl$u20$usize$GT$15is_power_of_two17h0f6de1a9e2c115e5E
0000000100eed360 t __ZN4core3num23_$LT$impl$u20$usize$GT$15is_power_of_two17hbddb8beaf6a3500aE
0000000100eed3c0 t __ZN4core3num23_$LT$impl$u20$usize$GT$15overflowing_add17h07e95c52c734fd49E
000000010000b5e0 t __ZN4core3num23_$LT$impl$u20$usize$GT$15overflowing_add17hf6a3788604450433E
000000010000b640 t __ZN4core3num23_$LT$impl$u20$usize$GT$15overflowing_mul17h291c3ee76e7abd00E
0000000100ef0160 t __ZN4core3num23_$LT$impl$u20$usize$GT$15overflowing_mul17h423da2f3c5700082E
0000000100eed420 t __ZN4core3num23_$LT$impl$u20$usize$GT$15overflowing_mul17h5cbbfea1785c9389E
0000000100eefda0 t __ZN4core3num23_$LT$impl$u20$usize$GT$15overflowing_mul17h83c3ee849d131ff4E
0000000100eed480 t __ZN4core3num23_$LT$impl$u20$usize$GT$9max_value17h4883316fe0f91814E
0000000100ef01c0 t __ZN4core3num23_$LT$impl$u20$usize$GT$9max_value17h58875609d45d790eE
000000010000b6a0 t __ZN4core3num23_$LT$impl$u20$usize$GT$9max_value17hfe6f487ed227eafdE
0000000100f21f20 T __ZN4core3num52_$LT$impl$u20$core..str..FromStr$u20$for$u20$u64$GT$8from_str17h21c12925ace467fbE
0000000100f21f20 T __ZN4core3num54_$LT$impl$u20$core..str..FromStr$u20$for$u20$usize$GT$8from_str17h6e21235891a19382E
000000010000b8b0 T __ZN4core3ops8function5impls80_$LT$impl$u20$core..ops..function..FnOnce$LT$A$GT$$u20$for$u20$$RF$mut$u20$F$GT$9call_once17hec6cfecb98f3a995E
0000000100f0c340 t __ZN4core3ops8function6FnOnce40call_once$u7b$$u7b$vtable.shim$u7d$$u7d$17h0d2a8ec4c20f55b5E
0000000100f03320 t __ZN4core3ops8function6FnOnce40call_once$u7b$$u7b$vtable.shim$u7d$$u7d$17h2f4a01b8b35b0b09E
0000000100f03340 t __ZN4core3ops8function6FnOnce40call_once$u7b$$u7b$vtable.shim$u7d$$u7d$17h67c1cd654f484268E
0000000100f033b0 t __ZN4core3ops8function6FnOnce40call_once$u7b$$u7b$vtable.shim$u7d$$u7d$17h742a9b84532d5a78E
0000000100f033c0 t __ZN4core3ops8function6FnOnce40call_once$u7b$$u7b$vtable.shim$u7d$$u7d$17h8c56213c4329432eE
0000000100f0bbb0 t __ZN4core3ops8function6FnOnce40call_once$u7b$$u7b$vtable.shim$u7d$$u7d$17hc1002df6fc9773ebE
0000000100002ac0 t __ZN4core3ops8function6FnOnce40call_once$u7b$$u7b$vtable.shim$u7d$$u7d$17hd14dc809b1f495ddE
0000000100f0bbc0 t __ZN4core3ops8function6FnOnce40call_once$u7b$$u7b$vtable.shim$u7d$$u7d$17hd650711f98ae8827E
0000000100f03440 t __ZN4core3ops8function6FnOnce40call_once$u7b$$u7b$vtable.shim$u7d$$u7d$17hff6306faad31b564E
0000000100002af0 t __ZN4core3ops8function6FnOnce9call_once17h06e499e50534d384E
0000000100eebdc0 t __ZN4core3ops8function6FnOnce9call_once17hc9b109f1d52a8da4E
00000001000015e0 t __ZN4core3ptr14read_unaligned17h7172108fd0b8f2dfE
00000001000054e0 t __ZN4core3ptr18real_drop_in_place17h000216e63e41e543E
0000000100f03450 t __ZN4core3ptr18real_drop_in_place17h01a394bd5c3a042bE
0000000100f1df70 t __ZN4core3ptr18real_drop_in_place17h01cb22bccbd1b997E
0000000100005520 t __ZN4core3ptr18real_drop_in_place17h033737809ce7f003E
0000000100f03460 t __ZN4core3ptr18real_drop_in_place17h050cd8e66d8bb6a9E
0000000100f034c0 t __ZN4core3ptr18real_drop_in_place17h05102b83ec60bf61E
0000000100005550 t __ZN4core3ptr18real_drop_in_place17h074126fc47e6ef3aE
0000000100005560 t __ZN4core3ptr18real_drop_in_place17h07ec228393835b11E
0000000100f034d0 t __ZN4core3ptr18real_drop_in_place17h083260c5f20db491E
0000000100ef01d0 t __ZN4core3ptr18real_drop_in_place17h09536b3911dbaecbE
0000000100f034e0 t __ZN4core3ptr18real_drop_in_place17h09a15041598a19d4E
0000000100f03590 t __ZN4core3ptr18real_drop_in_place17h1012787b383a0534E
00000001000055d0 t __ZN4core3ptr18real_drop_in_place17h1014632aeb5613a7E
00000001000055e0 t __ZN4core3ptr18real_drop_in_place17h10fc9be029474f49E
0000000100f035f0 t __ZN4core3ptr18real_drop_in_place17h112166772a6305c1E
00000001000055f0 t __ZN4core3ptr18real_drop_in_place17h1179dba171f079d5E
0000000100eebdf0 t __ZN4core3ptr18real_drop_in_place17h12d6405b42f10536E
0000000100f03610 t __ZN4core3ptr18real_drop_in_place17h1315c46255f10ddbE
0000000100005600 t __ZN4core3ptr18real_drop_in_place17h140258f2dac9b8a4E
0000000100eebe00 t __ZN4core3ptr18real_drop_in_place17h144f83080097891fE
0000000100eebe10 t __ZN4core3ptr18real_drop_in_place17h15e3fdb5b6fee31fE
0000000100002b30 t __ZN4core3ptr18real_drop_in_place17h1618ebc136a2287fE
0000000100005610 t __ZN4core3ptr18real_drop_in_place17h18e8d59b06f29e2cE
0000000100f03630 t __ZN4core3ptr18real_drop_in_place17h1a0c16263d0c9c24E
0000000100f03650 t __ZN4core3ptr18real_drop_in_place17h1b5842bc510a9a8aE
0000000100f036b0 t __ZN4core3ptr18real_drop_in_place17h1da345948f4bbb5eE
0000000100005630 t __ZN4core3ptr18real_drop_in_place17h29340c921716593bE
0000000100005650 t __ZN4core3ptr18real_drop_in_place17h294a9affea73789eE
0000000100005680 t __ZN4core3ptr18real_drop_in_place17h2d83fb85fa0e43edE
0000000100f036e0 t __ZN4core3ptr18real_drop_in_place17h3a6752cbc94c020cE
0000000100002ba0 t __ZN4core3ptr18real_drop_in_place17h3d32dfa787c293b6E
00000001000056c0 t __ZN4core3ptr18real_drop_in_place17h3d652a3b3bd2881cE
0000000100f03710 t __ZN4core3ptr18real_drop_in_place17h3dd50e88de776c24E
0000000100f03770 t __ZN4core3ptr18real_drop_in_place17h3f61c0f403d70674E
00000001000056e0 t __ZN4core3ptr18real_drop_in_place17h3f99433cdc6b1afbE
00000001000056f0 t __ZN4core3ptr18real_drop_in_place17h41b80988c49d788fE
0000000100f0bbd0 t __ZN4core3ptr18real_drop_in_place17h43f128d151852f17E
0000000100f0bbe0 t __ZN4core3ptr18real_drop_in_place17h4474b61cf4adb71fE
0000000100005710 t __ZN4core3ptr18real_drop_in_place17h4579c4ea8c941dc6E
0000000100f03780 t __ZN4core3ptr18real_drop_in_place17h4a79883dbd8174c1E
0000000100f037d0 t __ZN4core3ptr18real_drop_in_place17h4a9142ec8b516359E
0000000100005760 t __ZN4core3ptr18real_drop_in_place17h4b7b5f9af366bf1dE
0000000100f1df80 t __ZN4core3ptr18real_drop_in_place17h53e49658759cba42E
0000000100005770 t __ZN4core3ptr18real_drop_in_place17h55b370fe099015c8E
0000000100f186d0 t __ZN4core3ptr18real_drop_in_place17h56f9f3fea5f4c6b0E
0000000100005780 t __ZN4core3ptr18real_drop_in_place17h60a34aa46fc6df8bE
0000000100005790 t __ZN4core3ptr18real_drop_in_place17h682eea1008457b14E
0000000100ef0230 t __ZN4core3ptr18real_drop_in_place17h68c093557ab0efdeE
0000000100f03800 t __ZN4core3ptr18real_drop_in_place17h6b647c3d304dfc3fE
0000000100f03810 t __ZN4core3ptr18real_drop_in_place17h6f4d924a37653d2bE
00000001000057e0 t __ZN4core3ptr18real_drop_in_place17h726867cb68bf18ddE
0000000100f03830 t __ZN4core3ptr18real_drop_in_place17h7a4d290396647ee0E
0000000100005800 t __ZN4core3ptr18real_drop_in_place17h7d912129b18fef8bE
0000000100005810 t __ZN4core3ptr18real_drop_in_place17h804fcfdb7cf9a74dE
0000000100f03850 t __ZN4core3ptr18real_drop_in_place17h811b042a09283489E
0000000100ef0240 t __ZN4core3ptr18real_drop_in_place17h8307bdb9ae290d5fE
0000000100005860 t __ZN4core3ptr18real_drop_in_place17h838d71845ebd19aaE
0000000100002bf0 t __ZN4core3ptr18real_drop_in_place17h8ba2a448b265b5b2E
0000000100f0c360 t __ZN4core3ptr18real_drop_in_place17h8fbe7de645309230E
0000000100005870 t __ZN4core3ptr18real_drop_in_place17h98f014979b7f752fE
0000000100002c10 t __ZN4core3ptr18real_drop_in_place17h9c77da9c769731ebE
0000000100002c70 t __ZN4core3ptr18real_drop_in_place17ha43c44bc12f84e5fE
0000000100005880 t __ZN4core3ptr18real_drop_in_place17ha4de8d46ff43bd2bE
0000000100002c90 t __ZN4core3ptr18real_drop_in_place17ha5b97b7c3ba830a6E
00000001000058a0 t __ZN4core3ptr18real_drop_in_place17ha5d7fc387e2021e2E
0000000100f03870 t __ZN4core3ptr18real_drop_in_place17ha8beb9c508b55afbE
00000001000058c0 t __ZN4core3ptr18real_drop_in_place17ha95619bfb1cc764aE
00000001000058e0 t __ZN4core3ptr18real_drop_in_place17hab6b02b2e421e404E
0000000100002cb0 t __ZN4core3ptr18real_drop_in_place17hac1ff006c0695732E
0000000100eebe20 t __ZN4core3ptr18real_drop_in_place17hb073f941e1e0e3cbE
0000000100f03890 t __ZN4core3ptr18real_drop_in_place17hb1d46eea0489e29aE
0000000100005900 t __ZN4core3ptr18real_drop_in_place17hb1fb99b658c70fc6E
0000000100f038a0 t __ZN4core3ptr18real_drop_in_place17hb22d6edd48108d65E
0000000100005950 t __ZN4core3ptr18real_drop_in_place17hb3a81f6519cc928fE
0000000100f038b0 t __ZN4core3ptr18real_drop_in_place17hb4d05cd0cabe07a5E
0000000100f038d0 t __ZN4core3ptr18real_drop_in_place17hb73261695451f5d6E
0000000100005960 t __ZN4core3ptr18real_drop_in_place17hb9a2e8e099f4812dE
0000000100f0c370 t __ZN4core3ptr18real_drop_in_place17hb9a39506ff47e1f7E
0000000100002cd0 t __ZN4core3ptr18real_drop_in_place17hb9faf3fe8c5c522eE
0000000100f038f0 t __ZN4core3ptr18real_drop_in_place17hc0e5e6f1868417efE
00000001000059b0 t __ZN4core3ptr18real_drop_in_place17hc1e74ef85358327dE
0000000100f03910 t __ZN4core3ptr18real_drop_in_place17hc7bb84d0360f584bE
0000000100002d20 t __ZN4core3ptr18real_drop_in_place17hce5cd3d120816846E
0000000100f03930 t __ZN4core3ptr18real_drop_in_place17hcf934dfc38b80b24E
0000000100002d30 t __ZN4core3ptr18real_drop_in_place17hd16b724cb4d26e31E
0000000100f03960 t __ZN4core3ptr18real_drop_in_place17hd28f5b2f16b37efaE
00000001000059c0 t __ZN4core3ptr18real_drop_in_place17hd3e2895207b59c6dE
0000000100f039b0 t __ZN4core3ptr18real_drop_in_place17hd5a9f71c54d86025E
00000001000059f0 t __ZN4core3ptr18real_drop_in_place17hd66e7bf9220dd095E
0000000100ef0250 t __ZN4core3ptr18real_drop_in_place17hd84bb73ae008ad3cE
0000000100005a00 t __ZN4core3ptr18real_drop_in_place17hd861700078920bb4E
0000000100002d90 t __ZN4core3ptr18real_drop_in_place17hd8c2ac6dd4d87faaE
0000000100002de0 t __ZN4core3ptr18real_drop_in_place17hd942a1a9e2d8a99eE
0000000100f03a40 t __ZN4core3ptr18real_drop_in_place17hdb37453a3858d0aaE
0000000100f03a90 t __ZN4core3ptr18real_drop_in_place17hdb42858de129c85eE
0000000100002e20 t __ZN4core3ptr18real_drop_in_place17he01bbf1f2c7cae8eE
0000000100f03af0 t __ZN4core3ptr18real_drop_in_place17he4ea62373618bd33E
0000000100005a20 t __ZN4core3ptr18real_drop_in_place17he5018ffa85464e7eE
0000000100f03b60 t __ZN4core3ptr18real_drop_in_place17he6fd2c07bc655ccdE
0000000100002e40 t __ZN4core3ptr18real_drop_in_place17he8b4816923ab4108E
0000000100f03b90 t __ZN4core3ptr18real_drop_in_place17headac5b2beb11467E
0000000100f03bb0 t __ZN4core3ptr18real_drop_in_place17hef671462e2cd626aE
0000000100005a50 t __ZN4core3ptr18real_drop_in_place17hf1ad491b9e8a982cE
0000000100eebe70 t __ZN4core3ptr18real_drop_in_place17hf33a78f658bc5727E
0000000100f03bc0 t __ZN4core3ptr18real_drop_in_place17hf56357fef08483e3E
0000000100002e70 t __ZN4core3ptr18real_drop_in_place17hf59a6788c88e5e0eE
0000000100f03c90 t __ZN4core3ptr18real_drop_in_place17hf648963f803f2713E
0000000100005a60 t __ZN4core3ptr18real_drop_in_place17hfca6f749c8f04347E
0000000100f03cb0 t __ZN4core3ptr18real_drop_in_place17hfdb92fb1c899a6beE
0000000100005a70 t __ZN4core3ptr18real_drop_in_place17hff550f8ec966c244E
0000000100ef0f50 T __ZN4core3ptr19swap_nonoverlapping17h0b7ff2d85add4b53E
0000000100eef4e0 T __ZN4core3ptr19swap_nonoverlapping17h4b2533f3a0e0560cE
0000000100eecaf0 T __ZN4core3ptr19swap_nonoverlapping17he3386f4c810b481dE
0000000100ef0fb0 T __ZN4core3ptr20slice_from_raw_parts17h9d9e3baca7921018E
0000000100ef0ff0 T __ZN4core3ptr23swap_nonoverlapping_one17h2f0f63be288fe228E
0000000100eecb50 T __ZN4core3ptr23swap_nonoverlapping_one17h67c6ed858dcf0b08E
0000000100eef540 T __ZN4core3ptr23swap_nonoverlapping_one17hfdefb0255cb9d3c1E
0000000100004020 T __ZN4core3ptr24slice_from_raw_parts_mut17h339330af359404d9E
0000000100eecc00 T __ZN4core3ptr24slice_from_raw_parts_mut17h4145f26806f69adbE
0000000100eecc40 t __ZN4core3ptr25swap_nonoverlapping_bytes17h4e40381c26f57533E
0000000100eef5f0 t __ZN4core3ptr25swap_nonoverlapping_bytes17hc55cadc8844e595cE
0000000100ef10a0 t __ZN4core3ptr25swap_nonoverlapping_bytes17hfad8e6daf80e74f0E
0000000100eef7e0 T __ZN4core3ptr31_$LT$impl$u20$$BP$mut$u20$T$GT$3add17h97b334e0ee3d0341E
0000000100ef1290 T __ZN4core3ptr31_$LT$impl$u20$$BP$mut$u20$T$GT$3add17ha85dad0673918678E
0000000100008ec0 T __ZN4core3ptr31_$LT$impl$u20$$BP$mut$u20$T$GT$3add17hdfb339538cbf58ceE
0000000100ef12c0 T __ZN4core3ptr31_$LT$impl$u20$$BP$mut$u20$T$GT$6offset17h1090218fe80a5d8aE
0000000100008ef0 T __ZN4core3ptr31_$LT$impl$u20$$BP$mut$u20$T$GT$6offset17h1277b70ea5e17ea5E
0000000100eef810 T __ZN4core3ptr31_$LT$impl$u20$$BP$mut$u20$T$GT$6offset17had6ffd5f321491c8E
0000000100008f30 T __ZN4core3ptr31_$LT$impl$u20$$BP$mut$u20$T$GT$7is_null17h20a59159ceab17dbE
0000000100008f70 T __ZN4core3ptr31_$LT$impl$u20$$BP$mut$u20$T$GT$7is_null17h24060b9f0c72b2cbE
0000000100ef12f0 T __ZN4core3ptr31_$LT$impl$u20$$BP$mut$u20$T$GT$7is_null17h26c52c9dfbe007c9E
0000000100008fb0 T __ZN4core3ptr31_$LT$impl$u20$$BP$mut$u20$T$GT$7is_null17h2b9aaa9285d86be5E
0000000100008ff0 T __ZN4core3ptr31_$LT$impl$u20$$BP$mut$u20$T$GT$7is_null17h341324fcc99e63ecE
0000000100006e90 T __ZN4core3ptr31_$LT$impl$u20$$BP$mut$u20$T$GT$7is_null17h396289cc39841793E
0000000100009030 T __ZN4core3ptr31_$LT$impl$u20$$BP$mut$u20$T$GT$7is_null17h76d434f2b6266f3eE
0000000100009070 T __ZN4core3ptr31_$LT$impl$u20$$BP$mut$u20$T$GT$7is_null17hbb5ca28c4c950d3fE
00000001000090b0 T __ZN4core3ptr31_$LT$impl$u20$$BP$mut$u20$T$GT$7is_null17he77726bd0a80aaccE
0000000100ef1330 T __ZN4core3ptr33_$LT$impl$u20$$BP$const$u20$T$GT$12wrapping_add17ha1ecf5bb4a7af016E
0000000100ef1360 T __ZN4core3ptr33_$LT$impl$u20$$BP$const$u20$T$GT$15wrapping_offset17h51182ffe15e25eb4E
0000000100006630 T __ZN4core3ptr33_$LT$impl$u20$$BP$const$u20$T$GT$3add17h8439d30d8ac250c8E
0000000100ef1390 T __ZN4core3ptr33_$LT$impl$u20$$BP$const$u20$T$GT$3add17hb04d5b47bbf20dccE
0000000100ef13c0 T __ZN4core3ptr33_$LT$impl$u20$$BP$const$u20$T$GT$6offset17h3da522e9e702bebbE
0000000100006660 T __ZN4core3ptr33_$LT$impl$u20$$BP$const$u20$T$GT$6offset17heb39c86b272fa396E
0000000100eece30 T __ZN4core3ptr33_$LT$impl$u20$$BP$const$u20$T$GT$7is_null17h417c9043dd40837eE
00000001000066a0 T __ZN4core3ptr33_$LT$impl$u20$$BP$const$u20$T$GT$7is_null17h4966fac6ffcae712E
0000000100eefe00 T __ZN4core3ptr33_$LT$impl$u20$$BP$const$u20$T$GT$7is_null17h7229e3bfcf3084a5E
0000000100eef840 T __ZN4core3ptr33_$LT$impl$u20$$BP$const$u20$T$GT$7is_null17ha05125f43b6e5e52E
0000000100eef880 T __ZN4core3ptr33_$LT$impl$u20$$BP$const$u20$T$GT$7is_null17ha39bb6c4d41d6aadE
00000001000090f0 T __ZN4core3ptr33_$LT$impl$u20$$BP$const$u20$T$GT$7is_null17ha9df5e2f34015bb8E
0000000100ef13f0 T __ZN4core3ptr33_$LT$impl$u20$$BP$const$u20$T$GT$7is_null17hf3452f4f0d810e39E
0000000100eef8c0 T __ZN4core3ptr4null17h4fcb1f489f20cf04E
0000000100ef1430 T __ZN4core3ptr4null17h579ee459883d126dE
0000000100ef1440 T __ZN4core3ptr4read17h347298fab03f1092E
0000000100eece70 T __ZN4core3ptr4read17h3f170c9b7ed6076fE
0000000100eef8d0 T __ZN4core3ptr4read17h51e07c61ebe06bfeE
0000000100004060 T __ZN4core3ptr5write17h432f14c780f8043cE
0000000100eef940 T __ZN4core3ptr5write17h7b8e66fc2169977bE
0000000100eecee0 T __ZN4core3ptr5write17h9d3804d972e67786E
0000000100ef14e0 T __ZN4core3ptr5write17hdd7e31f07ccda35eE
0000000100eed490 T __ZN4core3ptr6unique15Unique$LT$T$GT$13new_unchecked17h1d9130d712d94611E
0000000100002fd0 T __ZN4core3ptr6unique15Unique$LT$T$GT$13new_unchecked17h3b333079965bc799E
0000000100002ff0 T __ZN4core3ptr6unique15Unique$LT$T$GT$13new_unchecked17haec7aa4d123b56c2E
0000000100ef0260 T __ZN4core3ptr6unique15Unique$LT$T$GT$13new_unchecked17hc07e46660071754fE
0000000100ef0290 T __ZN4core3ptr6unique15Unique$LT$T$GT$6as_mut17h06b2aa8bcb8af81aE
0000000100003010 T __ZN4core3ptr6unique15Unique$LT$T$GT$6as_mut17h8613b3efda765965E
0000000100eed4b0 T __ZN4core3ptr6unique15Unique$LT$T$GT$6as_ptr17h34edbb8e81bd0f6bE
0000000100003040 T __ZN4core3ptr6unique15Unique$LT$T$GT$6as_ptr17h64585580461891a3E
0000000100ef02d0 T __ZN4core3ptr6unique15Unique$LT$T$GT$6as_ptr17h742482f0c40c669eE
0000000100ef02f0 T __ZN4core3ptr6unique15Unique$LT$T$GT$6as_ptr17h88ecaef00d9607bdE
0000000100003060 T __ZN4core3ptr6unique15Unique$LT$T$GT$6as_ptr17h9ff465a8c117cdbdE
0000000100ef0b60 T __ZN4core3ptr8non_null16NonNull$LT$T$GT$13new_unchecked17h0a07638e7451ea27E
0000000100003be0 T __ZN4core3ptr8non_null16NonNull$LT$T$GT$13new_unchecked17h331ece3593304262E
0000000100eec9d0 T __ZN4core3ptr8non_null16NonNull$LT$T$GT$13new_unchecked17hb5f3e1511ef6cc75E
0000000100003c00 T __ZN4core3ptr8non_null16NonNull$LT$T$GT$13new_unchecked17he9acb76511d1cd55E
0000000100eec9f0 T __ZN4core3ptr8non_null16NonNull$LT$T$GT$3new17ha057bb207893efa6E
0000000100eeca40 T __ZN4core3ptr8non_null16NonNull$LT$T$GT$4cast17h06d29a9504464e1dE
0000000100003c20 T __ZN4core3ptr8non_null16NonNull$LT$T$GT$4cast17h7c250f553b3c8ba0E
0000000100003c60 T __ZN4core3ptr8non_null16NonNull$LT$T$GT$4cast17h8ef4ee8a09092092E
0000000100003ca0 T __ZN4core3ptr8non_null16NonNull$LT$T$GT$4cast17ha49001daae827537E
0000000100003ce0 T __ZN4core3ptr8non_null16NonNull$LT$T$GT$6as_mut17hdc681aa848795597E
0000000100eeca70 T __ZN4core3ptr8non_null16NonNull$LT$T$GT$6as_ptr17h407e2b7f2b701f41E
0000000100ef0b90 T __ZN4core3ptr8non_null16NonNull$LT$T$GT$6as_ptr17h96faa6ba87c29b66E
0000000100003d10 T __ZN4core3ptr8non_null16NonNull$LT$T$GT$6as_ptr17he31f04a1f2ecc516E
0000000100003d30 T __ZN4core3ptr8non_null16NonNull$LT$T$GT$6as_ptr17hff93a1259b7eeef5E
0000000100003d50 T __ZN4core3ptr8non_null16NonNull$LT$T$GT$6as_ref17ha5b79406603f9eeaE
0000000100eeca90 T __ZN4core3ptr8non_null16NonNull$LT$T$GT$8dangling17he5e041a1c625b392E
0000000100ef1510 T __ZN4core3ptr8null_mut17h35d2e66cad40c62dE
00000001012cfefe S __ZN4core3str15UTF8_CHAR_WIDTH17hff6c373717ec453eE
0000000100f23660 T __ZN4core3str16slice_error_fail17h478143fa682d0c28E
0000000100ef0bb0 t __ZN4core3str19from_utf8_unchecked17h90e1d5424c869438E
0000000100f1f6b0 t __ZN4core3str19run_utf8_validation17hfce294a8b211702eE
0000000100f1f1a0 T __ZN4core3str5lossy9Utf8Lossy10from_bytes17h8ec53cef2095f3f9E
0000000100f1f1b0 T __ZN4core3str5lossy9Utf8Lossy6chunks17h0cc389bdd5ab18a2E
0000000100f186e0 t __ZN4core3str6traits101_$LT$impl$u20$core..slice..SliceIndex$LT$str$GT$$u20$for$u20$core..ops..range..Range$LT$usize$GT$$GT$5index28_$u7b$$u7b$closure$u7d$$u7d$17h42f93008c0e249e8E
0000000100f1f8f0 t __ZN4core3str6traits101_$LT$impl$u20$core..slice..SliceIndex$LT$str$GT$$u20$for$u20$core..ops..range..Range$LT$usize$GT$$GT$5index28_$u7b$$u7b$closure$u7d$$u7d$17h5c6c10940cf4f444E
0000000100f18710 t __ZN4core3str6traits103_$LT$impl$u20$core..slice..SliceIndex$LT$str$GT$$u20$for$u20$core..ops..range..RangeTo$LT$usize$GT$$GT$5index28_$u7b$$u7b$closure$u7d$$u7d$17he50fabac6fe76ce9E
0000000100f03cd0 t __ZN4core3str6traits105_$LT$impl$u20$core..slice..SliceIndex$LT$str$GT$$u20$for$u20$core..ops..range..RangeFrom$LT$usize$GT$$GT$5index28_$u7b$$u7b$closure$u7d$$u7d$17h97c90b30b7460c3bE
0000000100f1e920 T __ZN4core3str7pattern11StrSearcher3new17h6c866d2fad5eb860E
0000000100f1f620 T __ZN4core3str9Utf8Error11valid_up_to17h06a043a035d32a54E
0000000100f1f630 T __ZN4core3str9Utf8Error9error_len17h81a2ea44e9667883E
0000000100f1f640 T __ZN4core3str9from_utf817he2d886ef13e1cf9fE
000000010000b7c0 t __ZN4core4cell12BorrowRefMut3new17hc4bc8787b017f4daE
0000000100006f30 T __ZN4core4cell13Cell$LT$T$GT$3get17h1b3b04759cc28d56E
0000000100006f60 T __ZN4core4cell13Cell$LT$T$GT$3get17h9f72f34fbac55bd9E
0000000100006f90 T __ZN4core4cell13Cell$LT$T$GT$3new17h88de01be9c11f1f6E
0000000100006fc0 T __ZN4core4cell13Cell$LT$T$GT$3new17h89376e270064e8cbE
0000000100006ff0 T __ZN4core4cell13Cell$LT$T$GT$3set17h9d7e7f3f3aaba3d3E
0000000100007020 T __ZN4core4cell13Cell$LT$T$GT$3set17hca19115397c374daE
0000000100007050 T __ZN4core4cell13Cell$LT$T$GT$7replace17h4dcd68c8d0971bfbE
00000001000070c0 T __ZN4core4cell13Cell$LT$T$GT$7replace17hb7ceb45d7bec94e1E
0000000100007130 T __ZN4core4cell16RefCell$LT$T$GT$10borrow_mut17h0cbdadcac46b58fdE
0000000100007180 T __ZN4core4cell16RefCell$LT$T$GT$14try_borrow_mut17h20bb40969861b334E
00000001000072b0 T __ZN4core4cell16RefCell$LT$T$GT$3new17h4c35d45915c055aeE
0000000100007320 T __ZN4core4cell19UnsafeCell$LT$T$GT$3get17h24c5bb3683905b3eE
0000000100007340 T __ZN4core4cell19UnsafeCell$LT$T$GT$3get17h25b161d4695bcaeeE
0000000100007360 T __ZN4core4cell19UnsafeCell$LT$T$GT$3get17hec82d94e8fc5b61fE
0000000100007380 T __ZN4core4cell19UnsafeCell$LT$T$GT$3new17h9cc5b4ccd963c3bfE
00000001000073a0 T __ZN4core4cell19UnsafeCell$LT$T$GT$3new17ha7282b52f85606feE
00000001000073c0 T __ZN4core4cell19UnsafeCell$LT$T$GT$3new17hfa95c18a0fe7698aE
0000000100005da0 T __ZN4core4iter6traits8iterator8Iterator3map17h05f4bbb169c2038fE
000000010000a970 T __ZN4core4iter6traits8iterator8Iterator7collect17h38628f76d90099ffE
000000010000a9a0 T __ZN4core4iter6traits8iterator8Iterator8for_each17h841e067c7173e57dE
0000000100009330 T __ZN4core4iter6traits8iterator8Iterator8for_each4call17h506d598c4aec2f87E
0000000100009350 T __ZN4core4iter6traits8iterator8Iterator8for_each4call28_$u7b$$u7b$closure$u7d$$u7d$17h35a4da677296a6f3E
000000010000aa40 T __ZN4core4iter8adapters16Map$LT$I$C$F$GT$3new17hcc6c20e42fd0eee2E
000000010000aa70 T __ZN4core4iter8adapters8map_fold17h53396f923c96b7f2E
000000010000aaa0 T __ZN4core4iter8adapters8map_fold28_$u7b$$u7b$closure$u7d$$u7d$17h452298b5ccd5f3acE
0000000100eebe90 T __ZN4core5alloc10size_align17h345b31f2e7f06116E
0000000100007430 T __ZN4core5alloc10size_align17hba280b7fd9b0e8c0E
0000000100008030 t __ZN4core5alloc6Layout15from_size_align17h8678dbf88b43a76aE
0000000100eebed0 t __ZN4core5alloc6Layout15from_size_align17h8bfe7888ac9db887E
0000000100eebf60 t __ZN4core5alloc6Layout18padding_needed_for17h6fa03a12ad748030E
00000001000080c0 t __ZN4core5alloc6Layout18padding_needed_for17h93214ca08e7b0316E
0000000100008150 t __ZN4core5alloc6Layout25from_size_align_unchecked17h2f36f632ed25315dE
0000000100eebff0 t __ZN4core5alloc6Layout25from_size_align_unchecked17h733105e41027c4e5E
0000000100ef0310 t __ZN4core5alloc6Layout25from_size_align_unchecked17ha5980cd493ce43b5E
0000000100eec040 T __ZN4core5alloc6Layout3new17h507c6a7b3584334aE
0000000100007470 T __ZN4core5alloc6Layout3new17h92d5cbbd579c8870E
0000000100eec0d0 t __ZN4core5alloc6Layout4size17h43913166fe019869E
0000000100ef0360 t __ZN4core5alloc6Layout4size17hbcefc8180dfb83f7E
00000001000081a0 t __ZN4core5alloc6Layout4size17hc70aa7b3e6dd17a2E
0000000100eec0f0 t __ZN4core5alloc6Layout5align17h02680ca70ab0e3b6E
00000001000081c0 t __ZN4core5alloc6Layout5align17h0690c607fea195b8E
0000000100ef0380 t __ZN4core5alloc6Layout5align17h6845bb0152e2ed9aE
0000000100eec120 T __ZN4core5alloc6Layout5array17h122097431c9a8862E
0000000100007500 T __ZN4core5alloc6Layout5array17h4f026272abb28abfE
0000000100eec170 T __ZN4core5alloc6Layout5array28_$u7b$$u7b$closure$u7d$$u7d$17hbd7c242877dc31d1E
0000000100007550 T __ZN4core5alloc6Layout5array28_$u7b$$u7b$closure$u7d$$u7d$17hdf91a48e20ed5cc4E
0000000100eec1e0 t __ZN4core5alloc6Layout6repeat17h98cd122ddc329a01E
00000001000081f0 t __ZN4core5alloc6Layout6repeat17hc81218849c1b5cc2E
00000001000075c0 T __ZN4core5alloc6Layout9for_value17ha6afcf7e50fc48f9E
0000000100f1e140 T __ZN4core5ascii14escape_default17h0344839d838dae79E
0000000100f1e400 T __ZN4core5panic8Location20internal_constructor17h08a381f488bd3738E
0000000100f1e420 T __ZN4core5panic8Location4file17hc6383028eda5a491E
0000000100f1e430 T __ZN4core5panic8Location4line17h9f2e35d7de4567eaE
0000000100f1e440 T __ZN4core5panic8Location6column17h61ef736c7b1373ebE
0000000100f1e3e0 T __ZN4core5panic9PanicInfo7message17h86c01295b5c58030E
0000000100f1e3d0 T __ZN4core5panic9PanicInfo7payload17h6cf84db4ec98f9aaE
0000000100f1e3f0 T __ZN4core5panic9PanicInfo8location17h3f31a20159ccc63cE
0000000100eed530 T __ZN4core5slice13Iter$LT$T$GT$8as_slice17h040355d3ebc365ffE
0000000100ef0d80 T __ZN4core5slice14from_raw_parts17h3ddea1e7071f8046E
0000000100005de0 T __ZN4core5slice18from_raw_parts_mut17h03aa5bda093b552bE
0000000100eed5d0 T __ZN4core5slice18from_raw_parts_mut17hbd3a687311e4f86eE
0000000100f23570 T __ZN4core5slice20slice_index_len_fail17h1940ccad6d5c4691E
0000000100f235e0 T __ZN4core5slice22slice_index_order_fail17h2a0bf5df9e5f2b85E
0000000100f23650 T __ZN4core5slice25slice_index_overflow_fail17h316a96b1f1fcad8dE
0000000100eed680 T __ZN4core5slice29_$LT$impl$u20$$u5b$T$u5d$$GT$10as_mut_ptr17h0904a26fe1d88477E
0000000100009130 T __ZN4core5slice29_$LT$impl$u20$$u5b$T$u5d$$GT$10as_mut_ptr17h7fa66c44e8dad5eaE
0000000100eed6a0 T __ZN4core5slice29_$LT$impl$u20$$u5b$T$u5d$$GT$15copy_from_slice17hedbedd27488ee6d9E
0000000100eed920 T __ZN4core5slice29_$LT$impl$u20$$u5b$T$u5d$$GT$17get_unchecked_mut17h55276868f45627f0E
0000000100009150 T __ZN4core5slice29_$LT$impl$u20$$u5b$T$u5d$$GT$17get_unchecked_mut17h68d436ed05cf5964E
0000000100eed960 T __ZN4core5slice29_$LT$impl$u20$$u5b$T$u5d$$GT$17get_unchecked_mut17h6c7c64f4954ba057E
00000001000066e0 T __ZN4core5slice29_$LT$impl$u20$$u5b$T$u5d$$GT$3len17h077fca81e09caafbE
0000000100ef0e30 T __ZN4core5slice29_$LT$impl$u20$$u5b$T$u5d$$GT$3len17h0a38f77f0a09b9eeE
0000000100ef0e60 T __ZN4core5slice29_$LT$impl$u20$$u5b$T$u5d$$GT$4iter17h50d99c7a1c2d6e4eE
0000000100006710 T __ZN4core5slice29_$LT$impl$u20$$u5b$T$u5d$$GT$4iter17hebd9806d4165cd53E
0000000100eeb910 T __ZN4core5slice29_$LT$impl$u20$$u5b$T$u5d$$GT$6as_ptr17h3ad8e661e0c36947E
0000000100ef0f30 T __ZN4core5slice29_$LT$impl$u20$$u5b$T$u5d$$GT$6as_ptr17h97dac9fec4239e77E
00000001000067d0 T __ZN4core5slice29_$LT$impl$u20$$u5b$T$u5d$$GT$6as_ptr17hed72f575f94e386bE
0000000100f1e4e0 T __ZN4core5slice6memchr6memchr17ha4ee5484c852136cE
0000000100f1e730 T __ZN4core5slice6memchr7memrchr17h9c34afea2999b37cE
0000000100eed9a0 T __ZN4core5slice77_$LT$impl$u20$core..ops..index..IndexMut$LT$I$GT$$u20$for$u20$$u5b$T$u5d$$GT$9index_mut17h646ee00b9bc3e778E
0000000100009190 T __ZN4core5slice77_$LT$impl$u20$core..ops..index..IndexMut$LT$I$GT$$u20$for$u20$$u5b$T$u5d$$GT$9index_mut17hc0c3cb671e166140E
0000000100f23490 T __ZN4core6option13expect_failed17h3b727e81633900ebE
0000000100eeb970 T __ZN4core6option15Option$LT$T$GT$14unwrap_or_else17hd6d62fa2a6350137E
0000000100004260 T __ZN4core6option15Option$LT$T$GT$3map17h2bc6bb59c41d5816E
0000000100004370 T __ZN4core6option15Option$LT$T$GT$3map17h828ccd9f90eb9b83E
0000000100eefe40 T __ZN4core6option15Option$LT$T$GT$4take17h1b0d9a42e938d782E
0000000100eeba30 T __ZN4core6option15Option$LT$T$GT$5ok_or17hc23d50c57af75b41E
0000000100eebad0 T __ZN4core6option15Option$LT$T$GT$5ok_or17hea4f51a07bc38c07E
0000000100eebb80 T __ZN4core6option15Option$LT$T$GT$5ok_or17hf8d6617eeab9e259E
0000000100eef470 T __ZN4core6option15Option$LT$T$GT$6unwrap17h15367c55e178413aE
0000000100eefe70 T __ZN4core6option15Option$LT$T$GT$6unwrap17ha89416061f2dcb1bE
0000000100eefee0 T __ZN4core6option15Option$LT$T$GT$9unwrap_or17h28c575b6ccab6ecaE
0000000100004460 T __ZN4core6option19Option$LT$$RF$T$GT$6cloned17h2d1fd443e123482dE
0000000100004490 T __ZN4core6option19Option$LT$$RF$T$GT$6cloned28_$u7b$$u7b$closure$u7d$$u7d$17hd2724b2e9f31fec7E
0000000100f234f0 T __ZN4core6result13unwrap_failed17h67811bfd56dc1112E
0000000100eeeb10 T __ZN4core6result19Result$LT$T$C$E$GT$14unwrap_or_else17h5ee630aae5fdb2a6E
0000000100004650 T __ZN4core6result19Result$LT$T$C$E$GT$3map17h365bd515ac830de1E
0000000100eeec00 T __ZN4core6result19Result$LT$T$C$E$GT$3map17h76bcdd11c47e78d0E
0000000100eeed80 T __ZN4core6result19Result$LT$T$C$E$GT$5is_ok17hb6d4c32cbcb7202aE
00000001000047d0 T __ZN4core6result19Result$LT$T$C$E$GT$6expect17h071740085b1aa5f3E
00000001000048e0 T __ZN4core6result19Result$LT$T$C$E$GT$6expect17h8b86dec1ad2bfb71E
00000001000049c0 T __ZN4core6result19Result$LT$T$C$E$GT$6expect17ha0c1fcd71e64f41dE
0000000100004ac0 T __ZN4core6result19Result$LT$T$C$E$GT$6expect17hece9c1b6bae52bc8E
0000000100001090 t __ZN4core6result19Result$LT$T$C$E$GT$6unwrap17h4b999e5cd9ad0fa4E
0000000100eeedc0 T __ZN4core6result19Result$LT$T$C$E$GT$6unwrap17hf43106bb4440d2e7E
0000000100004b80 T __ZN4core6result19Result$LT$T$C$E$GT$7map_err17h053dfbd215115241E
0000000100eeee90 T __ZN4core6result19Result$LT$T$C$E$GT$7map_err17ha0acb42b0fbb75caE
0000000100f21ef0 T __ZN4core7unicode6tables16derived_property15Grapheme_Extend17h746a048f01f7eba4E
0000000100f21ea0 T __ZN4core7unicode6tables16general_category2Cc17h4506f46b70c11524E
0000000100f21ba0 t __ZN4core7unicode9bool_trie8BoolTrie6lookup17hac00605c06b4832dE
0000000100f21dc0 T __ZN4core7unicode9printable12is_printable17hd81c3d008f746e9bE
0000000100f21cb0 t __ZN4core7unicode9printable5check17h6151902fdf1f6456E
0000000100f233e0 T __ZN4core9panicking18panic_bounds_check17h59ade8bf1e842b56E
0000000100f23370 T __ZN4core9panicking5panic17hff60532261199821E
0000000100f23450 T __ZN4core9panicking9panic_fmt17h4a49db9a6742376bE
00000001005c2b10 t __ZN4llvm10AccelTableINS_20DWARF5AccelTableDataEE7addNameIJRKNS_3DIEEEEEvNS_23DwarfStringPoolEntryRefEDpOT_
00000001005c2e90 t __ZN4llvm10AccelTableINS_23AppleAccelTableTypeDataEE7addNameIJRKNS_3DIEEEEEvNS_23DwarfStringPoolEntryRefEDpOT_
00000001005c2a20 t __ZN4llvm10AccelTableINS_25AppleAccelTableOffsetDataEE7addNameIJRKNS_3DIEEEEEvNS_23DwarfStringPoolEntryRefEDpOT_
0000000100dd1780 T __ZN4llvm10AllocaInst12setAlignmentEj
0000000100dd1640 T __ZN4llvm10AllocaInstC1EPNS_4TypeEjPNS_5ValueERKNS_5TwineEPNS_11InstructionE
0000000100dd1770 T __ZN4llvm10AllocaInstC1EPNS_4TypeEjPNS_5ValueEjRKNS_5TwineEPNS_11InstructionE
0000000100dd1660 T __ZN4llvm10AllocaInstC2EPNS_4TypeEjPNS_5ValueEjRKNS_5TwineEPNS_11InstructionE
0000000100584000 T __ZN4llvm10AsmPrinter10recordSledEPNS_8MCSymbolERKNS_12MachineInstrENS0_8SledKindEh
00000001005839b0 T __ZN4llvm10AsmPrinter13emitStackMapsERNS_9StackMapsE
0000000100583bb0 T __ZN4llvm10AsmPrinter13emitXRayTableEv
0000000100580bf0 T __ZN4llvm10AsmPrinter13lowerConstantEPKNS_8ConstantE
00000001005791e0 T __ZN4llvm10AsmPrinter13needsSEHMovesEv
0000000100068900 t __ZN4llvm10AsmPrinter14EmitXXStructorERKNS_10DataLayoutEPKNS_8ConstantE
000000010057ceb0 T __ZN4llvm10AsmPrinter14doFinalizationERNS_6ModuleE
0000000100579450 T __ZN4llvm10AsmPrinter14emitFrameAllocERKNS_12MachineInstrE
0000000100068910 t __ZN4llvm10AsmPrinter14getISAEncodingEv
0000000100584210 t __ZN4llvm10AsmPrinter15EmitInstructionEPKNS_12MachineInstrE
000000010058dde0 T __ZN4llvm10AsmPrinter15PrintAsmOperandEPKNS_12MachineInstrEjjPKcRNS_11raw_ostreamE
000000010057ec60 T __ZN4llvm10AsmPrinter16EmitConstantPoolEv
0000000100584200 t __ZN4llvm10AsmPrinter16EmitEndOfAsmFileERNS_6ModuleE
0000000100579720 T __ZN4llvm10AsmPrinter16EmitFunctionBodyEv
0000000100580020 T __ZN4llvm10AsmPrinter16EmitLLVMUsedListEPKNS_13ConstantArrayE
000000010057e640 T __ZN4llvm10AsmPrinter16EmitModuleIdentsERNS_6ModuleE
0000000100576570 T __ZN4llvm10AsmPrinter16doInitializationERNS_6ModuleE
00000001005836f0 T __ZN4llvm10AsmPrinter17EmitBasicBlockEndERKNS_17MachineBasicBlockE
000000010057f5b0 T __ZN4llvm10AsmPrinter17EmitJumpTableInfoEv
0000000100578640 T __ZN4llvm10AsmPrinter18EmitFunctionHeaderEv
0000000100578490 T __ZN4llvm10AsmPrinter18EmitGlobalConstantERKNS_10DataLayoutEPKNS_8ConstantE
0000000100577430 T __ZN4llvm10AsmPrinter18EmitGlobalVariableEPKNS_14GlobalVariableE
000000010001dee0 t __ZN4llvm10AsmPrinter18EmitStartOfAsmFileERNS_6ModuleE
0000000100580190 T __ZN4llvm10AsmPrinter18EmitXXStructorListERKNS_10DataLayoutEPKNS_8ConstantEb
0000000100579260 T __ZN4llvm10AsmPrinter18emitCFIInstructionERKNS_12MachineInstrE
000000010057ea00 T __ZN4llvm10AsmPrinter18getCurExceptionSymEv
0000000100012cb0 t __ZN4llvm10AsmPrinter19EmitFunctionBodyEndEv
000000010057c900 T __ZN4llvm10AsmPrinter19emitGlobalGOTEquivsEv
0000000100576fb0 T __ZN4llvm10AsmPrinter20GetOrCreateGCPrinterERNS_10GCStrategyE
000000010057ea50 T __ZN4llvm10AsmPrinter20SetupMachineFunctionERNS_15MachineFunctionE
0000000100579510 T __ZN4llvm10AsmPrinter20emitStackSizeSectionERKNS_15MachineFunctionE
00000001005841e0 t __ZN4llvm10AsmPrinter20runOnMachineFunctionERNS_15MachineFunctionE
000000010001def0 t __ZN4llvm10AsmPrinter21EmitFunctionBodyStartEv
0000000100578100 T __ZN4llvm10AsmPrinter21EmitSpecialLLVMGlobalEPKNS_14GlobalVariableE
000000010058ded0 T __ZN4llvm10AsmPrinter21PrintAsmMemoryOperandEPKNS_12MachineInstrEjjPKcRNS_11raw_ostreamE
0000000100578dd0 T __ZN4llvm10AsmPrinter22EmitFunctionEntryLabelEv
000000010057e750 T __ZN4llvm10AsmPrinter22EmitModuleCommandLinesERNS_6ModuleE
000000010057c510 T __ZN4llvm10AsmPrinter22computeGlobalGOTEquivsERNS_6ModuleE
000000010057cb20 T __ZN4llvm10AsmPrinter24emitGlobalIndirectSymbolERNS_6ModuleERKNS_20GlobalIndirectSymbolE
0000000100582a90 T __ZN4llvm10AsmPrinter28EmitMachineConstantPoolValueEPNS_24MachineConstantPoolValueE
00000001015ab789 S __ZN4llvm10AsmPrinter2IDE
0000000100575fe0 T __ZN4llvm10AsmPrinterC2ERNS_13TargetMachineENSt3__110unique_ptrINS_10MCStreamerENS3_14default_deleteIS5_EEEE
0000000100576440 T __ZN4llvm10AsmPrinterD0Ev
0000000100576430 T __ZN4llvm10AsmPrinterD1Ev
00000001005761b0 T __ZN4llvm10AsmPrinterD2Ev
0000000100d4a480 T __ZN4llvm10BasicBlock10insertIntoEPNS_8FunctionEPS0_
0000000100d4b340 T __ZN4llvm10BasicBlock10moveBeforeEPS0_
0000000100d4b2f0 T __ZN4llvm10BasicBlock15eraseFromParentEv
0000000100d4c6e0 T __ZN4llvm10BasicBlock15splitBasicBlockENS_14ilist_iteratorINS_12ilist_detail12node_optionsINS_11InstructionELb1ELb0EvEELb0ELb0EEERKNS_5TwineE
0000000100d4b2c0 T __ZN4llvm10BasicBlock16removeFromParentEv
0000000100d4a8a0 T __ZN4llvm10BasicBlock17dropAllReferencesEv
0000000100d4be90 T __ZN4llvm10BasicBlock17removePredecessorEPS0_b
0000000100d4aee0 T __ZN4llvm10BasicBlock24instructionsWithoutDebugEv
0000000100d4cbe0 T __ZN4llvm10BasicBlock28replaceSuccessorsPhiUsesWithEPS0_
0000000100d4be30 T __ZN4llvm10BasicBlock4phisEv
0000000100d4b3e0 T __ZN4llvm10BasicBlock9moveAfterEPS0_
0000000100d4a9a0 T __ZN4llvm10BasicBlock9setParentEPNS_8FunctionE
0000000100d4a500 T __ZN4llvm10BasicBlockC1ERNS_11LLVMContextERKNS_5TwineEPNS_8FunctionEPS0_
0000000100d4a390 T __ZN4llvm10BasicBlockC2ERNS_11LLVMContextERKNS_5TwineEPNS_8FunctionEPS0_
0000000100d4a990 T __ZN4llvm10BasicBlockD1Ev
0000000100d4a5e0 T __ZN4llvm10BasicBlockD2Ev
0000000100a43170 t __ZN4llvm10BranchInst12setConditionEPNS_5ValueE
0000000100a43410 t __ZN4llvm10BranchInst12setSuccessorEjPNS_10BasicBlockE
0000000100dd15f0 T __ZN4llvm10BranchInst14swapSuccessorsEv
0000000100dd1030 T __ZN4llvm10BranchInstC1EPNS_10BasicBlockEPNS_11InstructionE
0000000100dd13a0 T __ZN4llvm10BranchInstC1EPNS_10BasicBlockES2_
0000000100dd1280 T __ZN4llvm10BranchInstC1EPNS_10BasicBlockES2_PNS_5ValueEPNS_11InstructionE
0000000100dd0f20 T __ZN4llvm10BranchInstC2EPNS_10BasicBlockEPNS_11InstructionE
0000000100dd1290 T __ZN4llvm10BranchInstC2EPNS_10BasicBlockES2_
0000000100dd1040 T __ZN4llvm10BranchInstC2EPNS_10BasicBlockES2_PNS_5ValueEPNS_11InstructionE
0000000100dd13b0 T __ZN4llvm10BranchInstC2ERKS0_
0000000100657800 t __ZN4llvm10CallbackVH19allUsesReplacedWithEPNS_5ValueE
0000000100e34080 T __ZN4llvm10CallbackVH6anchorEv
0000000100d64270 T __ZN4llvm10ConstantFP11getInfinityEPNS_4TypeEb
0000000100d64160 T __ZN4llvm10ConstantFP15getNegativeZeroEPNS_4TypeE
0000000100d62e10 T __ZN4llvm10ConstantFP19destroyConstantImplEv
0000000100d64240 T __ZN4llvm10ConstantFP23getZeroValueForNegationEPNS_4TypeE
0000000100d63ea0 T __ZN4llvm10ConstantFP3getEPNS_4TypeEd
0000000100d61160 T __ZN4llvm10ConstantFP3getERNS_11LLVMContextERKNS_7APFloatE
0000000100d63ff0 T __ZN4llvm10ConstantFP6getNaNEPNS_4TypeEby
0000000100d64360 T __ZN4llvm10ConstantFPC2EPNS_4TypeERKNS_7APFloatE
0000000100d84f70 T __ZN4llvm10DILocation17getMergedLocationEPKS0_S2_
0000000100d85e70 T __ZN4llvm10DILocation19decodeDiscriminatorEjRjS1_S1_
0000000100d85bb0 T __ZN4llvm10DILocation19encodeDiscriminatorEjjj
0000000100d84d20 T __ZN4llvm10DILocation7getImplERNS_11LLVMContextEjjPNS_8MetadataES4_bNS3_11StorageTypeEb
0000000100e09050 t __ZN4llvm10DILocationD2Ev
0000000100d876c0 T __ZN4llvm10DISubrange7getImplERNS_11LLVMContextEPNS_8MetadataExNS3_11StorageTypeEb
0000000100d87620 T __ZN4llvm10DISubrange7getImplERNS_11LLVMContextExxNS_8Metadata11StorageTypeEb
0000000100d7f510 T __ZN4llvm10DataLayout12setAlignmentENS_13AlignTypeEnumEjjj
0000000100d7f6d0 T __ZN4llvm10DataLayout14parseSpecifierENS_9StringRefE
0000000100d7f120 T __ZN4llvm10DataLayout20getManglingComponentERKNS_6TripleE
0000000100d7f3a0 T __ZN4llvm10DataLayout5clearEv
0000000100d7f160 T __ZN4llvm10DataLayout5resetENS_9StringRefE
0000000100d80d90 T __ZN4llvm10DataLayoutD1Ev
0000000100d80d10 T __ZN4llvm10DataLayoutD2Ev
00000001005a7460 T __ZN4llvm10DwarfDebug11beginModuleEv
00000001005a5c50 T __ZN4llvm10DwarfDebug12addAccelNameERKNS_13DICompileUnitENS_9StringRefERKNS_3DIEE
00000001005b1e90 T __ZN4llvm10DwarfDebug12addAccelTypeERKNS_13DICompileUnitENS_9StringRefERKNS_3DIEEc
00000001005a94e0 T __ZN4llvm10DwarfDebug12emitDebugLocEv
00000001005a9220 T __ZN4llvm10DwarfDebug12emitDebugStrEv
00000001005b1000 T __ZN4llvm10DwarfDebug13emitMacroFileERNS_11DIMacroFileERNS_16DwarfCompileUnitE
00000001005b2000 t __ZN4llvm10DwarfDebug13setSymbolSizeEPKNS_8MCSymbolEy
00000001005b1fb0 T __ZN4llvm10DwarfDebug15addSectionLabelEPKNS_8MCSymbolE
00000001005a92e0 T __ZN4llvm10DwarfDebug15emitDebugLocDWOEv
00000001005aaa90 T __ZN4llvm10DwarfDebug15emitDebugRangesEv
00000001005aadc0 T __ZN4llvm10DwarfDebug15emitDebugStrDWOEv
00000001005aea10 T __ZN4llvm10DwarfDebug15endFunctionImplEPKNS_15MachineFunctionE
00000001005b11d0 T __ZN4llvm10DwarfDebug15getDwoLineTableERKNS_16DwarfCompileUnitE
00000001005b1eb0 t __ZN4llvm10DwarfDebug16addAccelNameImplINS_23AppleAccelTableTypeDataEEEvRKNS_13DICompileUnitERNS_10AccelTableIT_EENS_9StringRefERKNS_3DIEE
00000001005b1d70 t __ZN4llvm10DwarfDebug16addAccelNameImplINS_25AppleAccelTableOffsetDataEEEvRKNS_13DICompileUnitERNS_10AccelTableIT_EENS_9StringRefERKNS_3DIEE
00000001005ae140 T __ZN4llvm10DwarfDebug16beginInstructionEPKNS_12MachineInstrE
00000001005a9a50 T __ZN4llvm10DwarfDebug16emitDebugARangesEv
00000001005aabd0 T __ZN4llvm10DwarfDebug16emitDebugMacinfoEv
00000001005b0dd0 T __ZN4llvm10DwarfDebug16handleMacroNodesENS_24MDTupleTypedArrayWrapperINS_11DIMacroNodeEEERNS_16DwarfCompileUnitE
00000001005b1120 T __ZN4llvm10DwarfDebug16initSkeletonUnitERKNS_9DwarfUnitERNS_3DIEENSt3__110unique_ptrINS_16DwarfCompileUnitENS6_14default_deleteIS8_EEEE
00000001005ae580 T __ZN4llvm10DwarfDebug16recordSourceLineEjjPKNS_6MDNodeEj
00000001005b1e70 T __ZN4llvm10DwarfDebug17addAccelNamespaceERKNS_13DICompileUnitENS_9StringRefERKNS_3DIEE
00000001005ae720 T __ZN4llvm10DwarfDebug17beginFunctionImplEPKNS_15MachineFunctionE
00000001005abe10 T __ZN4llvm10DwarfDebug17buildLocationListERNS_15SmallVectorImplINS_13DebugLocEntryEEERKNS_11SmallVectorINSt3__14pairIPKNS_12MachineInstrESA_EELj4EEE
00000001005ace30 T __ZN4llvm10DwarfDebug17collectEntityInfoERNS_16DwarfCompileUnitEPKNS_12DISubprogramERNS_8DenseSetINSt3__14pairIPKNS_6DINodeEPKNS_10DILocationEEENS_12DenseMapInfoISF_EEEE
00000001005afb70 T __ZN4llvm10DwarfDebug17emitDebugLocEntryERNS_12ByteStreamerERKNS_14DebugLocStream5EntryE
00000001005a55c0 T __ZN4llvm10DwarfDebug18addSubprogramNamesERKNS_13DICompileUnitEPKNS_12DISubprogramERNS_3DIEE
00000001005aaea0 T __ZN4llvm10DwarfDebug18emitDebugRangesDWOEv
00000001005a8690 T __ZN4llvm10DwarfDebug18finalizeModuleInfoEv
00000001005a70d0 T __ZN4llvm10DwarfDebug19constructSkeletonCUERKNS_16DwarfCompileUnitE
00000001005af2b0 T __ZN4llvm10DwarfDebug19emitDebugPubSectionEbNS_9StringRefEPNS_16DwarfCompileUnitERKNS_9StringMapIPKNS_3DIEENS_15MallocAllocatorEEE
00000001005b1650 T __ZN4llvm10DwarfDebug20addDwarfTypeUnitTypeERNS_16DwarfCompileUnitENS_9StringRefERNS_3DIEEPKNS_15DICompositeTypeE
00000001005acb00 T __ZN4llvm10DwarfDebug20createConcreteEntityERNS_16DwarfCompileUnitERNS_12LexicalScopeEPKNS_6DINodeEPKNS_10DILocationEPKNS_8MCSymbolE
00000001005ab000 T __ZN4llvm10DwarfDebug20emitDebugPubSectionsEv
00000001005a68c0 T __ZN4llvm10DwarfDebug20finishUnitAttributesEPKNS_13DICompileUnitERNS_16DwarfCompileUnitE
00000001005a5c70 T __ZN4llvm10DwarfDebug21isLexicalScopeDIENullEPNS_12LexicalScopeE
00000001005a8420 T __ZN4llvm10DwarfDebug23finishEntityDefinitionsEv
00000001005ae9f0 T __ZN4llvm10DwarfDebug23skippedNonDebugFunctionEv
00000001005a6340 T __ZN4llvm10DwarfDebug26constructCallSiteEntryDIEsERKNS_12DISubprogramERNS_16DwarfCompileUnitERNS_3DIEERKNS_15MachineFunctionE
00000001005a8570 T __ZN4llvm10DwarfDebug27finishSubprogramDefinitionsEv
00000001005a5e80 T __ZN4llvm10DwarfDebug27getOrCreateDwarfCompileUnitEPKNS_13DICompileUnitE
00000001005ab130 T __ZN4llvm10DwarfDebug30collectVariableInfoFromMFTableERNS_16DwarfCompileUnitERNS_8DenseSetINSt3__14pairIPKNS_6DINodeEPKNS_10DILocationEEENS_12DenseMapInfoISC_EEEE
00000001005a72a0 T __ZN4llvm10DwarfDebug32constructAndAddImportedEntityDIEERNS_16DwarfCompileUnitEPKNS_16DIImportedEntityE
00000001005a5cc0 T __ZN4llvm10DwarfDebug35constructAbstractSubprogramScopeDIEERNS_16DwarfCompileUnitEPNS_12LexicalScopeE
00000001005b0eb0 T __ZN4llvm10DwarfDebug9emitMacroERNS_7DIMacroE
00000001005a8de0 T __ZN4llvm10DwarfDebug9endModuleEv
00000001005a5100 T __ZN4llvm10DwarfDebugC1EPNS_10AsmPrinterEPNS_6ModuleE
00000001005a4620 T __ZN4llvm10DwarfDebugC2EPNS_10AsmPrinterEPNS_6ModuleE
00000001005a55a0 T __ZN4llvm10DwarfDebugD0Ev
00000001005a5590 T __ZN4llvm10DwarfDebugD1Ev
00000001005a5110 T __ZN4llvm10DwarfDebugD2Ev
00000001005d46c0 t __ZN4llvm10EHStreamer13computePadMapERKNS_15SmallVectorImplIPKNS_14LandingPadInfoEEERNS_8DenseMapIPNS_8MCSymbolENS0_8PadRangeENS_12DenseMapInfoISA_EENS_6detail12DenseMapPairISA_SB_EEEE
00000001005d5e30 t __ZN4llvm10EHStreamer13emitTypeInfosEjPNS_8MCSymbolE
00000001005d60f0 t __ZN4llvm10EHStreamer13setSymbolSizeEPKNS_8MCSymbolEy
00000001005d6110 t __ZN4llvm10EHStreamer14endInstructionEv
00000001005d6100 t __ZN4llvm10EHStreamer16beginInstructionEPKNS_12MachineInstrE
00000001005d5160 t __ZN4llvm10EHStreamer18emitExceptionTableEv
00000001005d4080 t __ZN4llvm10EHStreamer19computeActionsTableERKNS_15SmallVectorImplIPKNS_14LandingPadInfoEEERNS1_INS0_11ActionEntryEEERNS1_IjEE
00000001005d48e0 t __ZN4llvm10EHStreamer20computeCallSiteTableERNS_15SmallVectorImplINS0_13CallSiteEntryEEERKNS1_IPKNS_14LandingPadInfoEEERKNS1_IjEE
00000001005d45b0 t __ZN4llvm10EHStreamer22callToNoUnwindFunctionEPKNS_12MachineInstrE
00000001005d4030 t __ZN4llvm10EHStreamerC2EPNS_10AsmPrinterE
00000001005d4070 t __ZN4llvm10EHStreamerD0Ev
00000001005d4060 t __ZN4llvm10EHStreamerD1Ev
00000001005d4050 t __ZN4llvm10EHStreamerD2Ev
0000000100bd1bb0 t __ZN4llvm10GCOVBuffer10readStringERNS_9StringRefE
0000000100bd1dd0 t __ZN4llvm10GCOVBuffer14readGCDAFormatEv
0000000100bd1f60 t __ZN4llvm10GCOVBuffer15readGCOVVersionERNS_4GCOV11GCOVVersionE
0000000100bd1ab0 t __ZN4llvm10GCOVBuffer7readIntERj
0000000100dcec20 T __ZN4llvm10InvokeInst4initEPNS_12FunctionTypeEPNS_5ValueEPNS_10BasicBlockES6_NS_8ArrayRefIS4_EENS7_INS_17OperandBundleDefTIS4_EEEERKNS_5TwineE
0000000100dcf480 t __ZN4llvm10InvokeInst6CreateEPNS_5ValueEPNS_10BasicBlockES4_NS_8ArrayRefIS2_EENS5_INS_17OperandBundleDefTIS2_EEEERKNS_5TwineEPNS_11InstructionE
0000000100a301e0 t __ZN4llvm10InvokeInst6CreateEPNS_5ValueEPNS_10BasicBlockES4_NS_8ArrayRefIS2_EENS5_INS_17OperandBundleDefTIS2_EEEERKNS_5TwineES4_
0000000100dcf0f0 T __ZN4llvm10InvokeInst6CreateEPS0_NS_8ArrayRefINS_17OperandBundleDefTIPNS_5ValueEEEEEPNS_11InstructionE
0000000100dcefa0 T __ZN4llvm10InvokeInstC2ERKS0_
00000001008f1780 t __ZN4llvm10LiveRegSet5eraseENS_16RegisterMaskPairE
000000010096ba50 t __ZN4llvm10LiveStacks11getIntervalEi
0000000100777e20 T __ZN4llvm10LiveStacks13releaseMemoryEv
0000000100778020 T __ZN4llvm10LiveStacks19getOrCreateIntervalEiPKNS_19TargetRegisterClassE
0000000100778000 T __ZN4llvm10LiveStacks20runOnMachineFunctionERNS_15MachineFunctionE
00000001015aeac1 S __ZN4llvm10LiveStacks2IDE
0000000100778850 t __ZN4llvm10LiveStacksD0Ev
0000000100778840 t __ZN4llvm10LiveStacksD1Ev
00000001007789b0 t __ZN4llvm10LiveStacksD2Ev
00000001005112c0 t __ZN4llvm10LoadSDNodeC2EjRKNS_8DebugLocENS_8SDVTListENS_3ISD14MemIndexedModeENS5_11LoadExtTypeENS_3EVTEPNS_17MachineMemOperandE
00000001000591a0 t __ZN4llvm10MCAsmLexer3LexEv
0000000100c31810 T __ZN4llvm10MCAsmLexerC2Ev
0000000100c31970 T __ZN4llvm10MCAsmLexerD0Ev
0000000100c31960 T __ZN4llvm10MCAsmLexerD1Ev
0000000100c318d0 T __ZN4llvm10MCAsmLexerD2Ev
0000000100c67970 T __ZN4llvm10MCFragment7destroyEv
0000000100c67ab0 T __ZN4llvm10MCFragmentC2ENS0_12FragmentTypeEbPNS_9MCSectionE
0000000100c67aa0 T __ZN4llvm10MCFragmentD2Ev
0000000100c7fd80 t __ZN4llvm10MCStreamer10AddCommentERKNS_5TwineEb
0000000100c7fa60 T __ZN4llvm10MCStreamer10FinishImplEv
0000000100c7fbb0 T __ZN4llvm10MCStreamer10endSectionEPNS_9MCSectionE
0000000100c7fe70 t __ZN4llvm10MCStreamer11EmitAddrsigEv
0000000100c7cdd0 T __ZN4llvm10MCStreamer11EmitCFILsdaEPKNS_8MCSymbolEj
0000000100c7a180 T __ZN4llvm10MCStreamer11EmitRawTextERKNS_5TwineE
0000000100c7f930 T __ZN4llvm10MCStreamer11emitELFSizeEPNS_8MCSymbolEPKNS_6MCExprE
0000000100c7fd90 t __ZN4llvm10MCStreamer12AddBlankLineEv
0000000100c7c4c0 T __ZN4llvm10MCStreamer12EmitCFILabelEv
0000000100c7aba0 T __ZN4llvm10MCStreamer12EmitIntValueEyj
0000000100c7aae0 T __ZN4llvm10MCStreamer12GetCommentOSEv
0000000100c7bf50 T __ZN4llvm10MCStreamer12InitSectionsEb
0000000100c7f970 T __ZN4llvm10MCStreamer13ChangeSectionEPNS_9MCSectionEPKNS_6MCExprE
0000000100c7c4d0 T __ZN4llvm10MCStreamer13EmitCFIDefCfaExx
0000000100c7d3e0 T __ZN4llvm10MCStreamer13EmitCFIEscapeENS_9StringRefE
0000000100c7caa0 T __ZN4llvm10MCStreamer13EmitCFIOffsetExx
0000000100c7fe50 t __ZN4llvm10MCStreamer13EmitCVFPODataEPKNS_8MCSymbolENS_5SMLocE
0000000100c7f880 T __ZN4llvm10MCStreamer13EmitThumbFuncEPNS_8MCSymbolE
0000000100c7f9c0 T __ZN4llvm10MCStreamer13EmitValueImplEPKNS_6MCExprEjNS_5SMLocE
0000000100c7fa80 T __ZN4llvm10MCStreamer13SwitchSectionEPNS_9MCSectionEPKNS_6MCExprE
0000000100c7f590 T __ZN4llvm10MCStreamer13visitUsedExprERKNS_6MCExprE
0000000100c7bf70 T __ZN4llvm10MCStreamer14AssignFragmentEPNS_8MCSymbolEPNS_10MCFragmentE
0000000100c7fe80 t __ZN4llvm10MCStreamer14EmitAddrsigSymEPKNS_8MCSymbolE
0000000100c7f530 T __ZN4llvm10MCStreamer14EmitAssignmentEPNS_8MCSymbolEPKNS_6MCExprE
0000000100c7f9a0 T __ZN4llvm10MCStreamer14EmitBinaryDataENS_9StringRefE
0000000100c7fa50 T __ZN4llvm10MCStreamer14EmitBundleLockEb
0000000100c7c460 T __ZN4llvm10MCStreamer14EmitCFIEndProcEv
0000000100c7d270 T __ZN4llvm10MCStreamer14EmitCFIRestoreEx
0000000100c7fdb0 t __ZN4llvm10MCStreamer14EmitDataRegionENS_16MCDataRegionTypeE
0000000100c7f890 T __ZN4llvm10MCStreamer14EmitSymbolDescEPNS_8MCSymbolEj
0000000100c7f960 T __ZN4llvm10MCStreamer14EmitTBSSSymbolEPNS_9MCSectionEPNS_8MCSymbolEyj
0000000100c7fdc0 t __ZN4llvm10MCStreamer14EmitVersionMinENS_16MCVersionMinTypeEjjjNS_12VersionTupleE
0000000100c7aaf0 T __ZN4llvm10MCStreamer14emitRawCommentERKNS_5TwineEb
0000000100c7d8c0 T __ZN4llvm10MCStreamer15EmitCFIRegisterExx
0000000100c7c280 T __ZN4llvm10MCStreamer15EmitCFISectionsEbb
0000000100c7f430 T __ZN4llvm10MCStreamer15EmitCOFFSafeSEHEPKNS_8MCSymbolE
0000000100c7f680 T __ZN4llvm10MCStreamer15EmitInstructionERKNS_6MCInstERKNS_15MCSubtargetInfoEb
0000000100c7f480 T __ZN4llvm10MCStreamer15EmitRawTextImplENS_9StringRefE
0000000100c7b810 T __ZN4llvm10MCStreamer15EmitSymbolValueEPKNS_8MCSymbolEjb
0000000100c7fd40 t __ZN4llvm10MCStreamer15getAssemblerPtrEv
0000000100c7f670 T __ZN4llvm10MCStreamer15visitUsedSymbolERKNS_8MCSymbolE
0000000100c7fdd0 t __ZN4llvm10MCStreamer16EmitBuildVersionEjjjjNS_12VersionTupleE
0000000100c7fa70 T __ZN4llvm10MCStreamer16EmitBundleUnlockEv
0000000100c7bb60 T __ZN4llvm10MCStreamer16EmitCFIBKeyFrameEv
0000000100c7cc10 T __ZN4llvm10MCStreamer16EmitCFIRelOffsetExx
0000000100c7d100 T __ZN4llvm10MCStreamer16EmitCFISameValueEx
0000000100c7c2b0 T __ZN4llvm10MCStreamer16EmitCFIStartProcEbNS_5SMLocE
0000000100c7d750 T __ZN4llvm10MCStreamer16EmitCFIUndefinedEx
0000000100c7f470 T __ZN4llvm10MCStreamer16EmitCOFFImgRel32EPKNS_8MCSymbolEx
0000000100c7f460 T __ZN4llvm10MCStreamer16EmitCOFFSecRel32EPKNS_8MCSymbolEy
0000000100c7b930 T __ZN4llvm10MCStreamer16EmitGPRel32ValueEPKNS_6MCExprE
0000000100c7b910 T __ZN4llvm10MCStreamer16EmitGPRel64ValueEPKNS_6MCExprE
0000000100c7fde0 t __ZN4llvm10MCStreamer16EmitLOHDirectiveENS_9MCLOHTypeERKNS_15SmallVectorImplIPNS_8MCSymbolEEE
0000000100c7f9e0 T __ZN4llvm10MCStreamer16EmitSLEB128ValueEPKNS_6MCExprE
0000000100c7b8f0 T __ZN4llvm10MCStreamer16EmitTPRel32ValueEPKNS_6MCExprE
0000000100c7b8d0 T __ZN4llvm10MCStreamer16EmitTPRel64ValueEPKNS_6MCExprE
0000000100c7f9d0 T __ZN4llvm10MCStreamer16EmitULEB128ValueEPKNS_6MCExprE
0000000100c7e360 T __ZN4llvm10MCStreamer16EmitWinEHHandlerEPKNS_8MCSymbolEbbNS_5SMLocE
0000000100c7f8c0 T __ZN4llvm10MCStreamer16EndCOFFSymbolDefEv
0000000100c7f870 T __ZN4llvm10MCStreamer17EmitAssemblerFlagENS_15MCAssemblerFlagE
0000000100c7da30 T __ZN4llvm10MCStreamer17EmitCFIWindowSaveEv
0000000100c7fa20 T __ZN4llvm10MCStreamer17EmitCodeAlignmentEjj
0000000100c7b8b0 T __ZN4llvm10MCStreamer17EmitDTPRel32ValueEPKNS_6MCExprE
0000000100c7b890 T __ZN4llvm10MCStreamer17EmitDTPRel64ValueEPKNS_6MCExprE
0000000100c7f8e0 T __ZN4llvm10MCStreamer17EmitFileDirectiveENS_9StringRefE
0000000100c7fda0 t __ZN4llvm10MCStreamer17EmitLinkerOptionsENS_8ArrayRefINSt3__112basic_stringIcNS2_11char_traitsIcEENS2_9allocatorIcEEEEEE
0000000100c7f980 T __ZN4llvm10MCStreamer17EmitWeakReferenceEPNS_8MCSymbolEPKS1_
0000000100c7dfe0 T __ZN4llvm10MCStreamer17EmitWinCFIEndProcENS_5SMLocE
0000000100c7e760 T __ZN4llvm10MCStreamer17EmitWinCFIPushRegEjNS_5SMLocE
0000000100c7ed90 T __ZN4llvm10MCStreamer17EmitWinCFISaveRegEjjNS_5SMLocE
0000000100c7efa0 T __ZN4llvm10MCStreamer17EmitWinCFISaveXMMEjjNS_5SMLocE
0000000100c7be70 T __ZN4llvm10MCStreamer17checkCVLocSectionEjjNS_5SMLocE
0000000100c7fa30 T __ZN4llvm10MCStreamer17emitValueToOffsetEPKNS_6MCExprEhNS_5SMLocE
0000000100c7f8a0 T __ZN4llvm10MCStreamer18BeginCOFFSymbolDefEPKNS_8MCSymbolE
0000000100c7c4b0 T __ZN4llvm10MCStreamer18EmitCFIEndProcImplERNS_16MCDwarfFrameInfoE
0000000100c7d590 T __ZN4llvm10MCStreamer18EmitCFIGnuArgsSizeEx
0000000100c7cd80 T __ZN4llvm10MCStreamer18EmitCFIPersonalityEPKNS_8MCSymbolEj
0000000100c7d700 T __ZN4llvm10MCStreamer18EmitCFISignalFrameEv
0000000100c7f910 T __ZN4llvm10MCStreamer18EmitCOFFSymbolTypeEi
0000000100c7be60 T __ZN4llvm10MCStreamer18EmitCVLocDirectiveEjjjjbbNS_9StringRefENS_5SMLocE
0000000100c7fe60 t __ZN4llvm10MCStreamer18EmitRelocDirectiveERKNS_6MCExprENS_9StringRefEPS2_NS_5SMLocERKNS_15MCSubtargetInfoE
0000000100c7e950 T __ZN4llvm10MCStreamer18EmitWinCFISetFrameEjjNS_5SMLocE
0000000100c7ab00 T __ZN4llvm10MCStreamer18addExplicitCommentERKNS_5TwineE
0000000100c7e4b0 T __ZN4llvm10MCStreamer18emitCGProfileEntryEPKNS_15MCSymbolRefExprES3_y
0000000100c7fa40 T __ZN4llvm10MCStreamer19EmitBundleAlignModeEj
0000000100c7c650 T __ZN4llvm10MCStreamer19EmitCFIDefCfaOffsetEx
0000000100c7cf90 T __ZN4llvm10MCStreamer19EmitCFIRestoreStateEv
0000000100c7dd10 T __ZN4llvm10MCStreamer19EmitCFIReturnColumnEx
0000000100c7f440 T __ZN4llvm10MCStreamer19EmitCOFFSymbolIndexEPKNS_8MCSymbolE
0000000100c7bd20 T __ZN4llvm10MCStreamer19EmitCVFileDirectiveEjNS_9StringRefENS_8ArrayRefIhEEj
0000000100c7bf40 T __ZN4llvm10MCStreamer19EmitEHSymAttributesEPKNS_8MCSymbolEPS1_
0000000100c7b6b0 T __ZN4llvm10MCStreamer19EmitSLEB128IntValueEx
0000000100c7e750 T __ZN4llvm10MCStreamer19EmitSyntaxDirectiveEv
0000000100c7b590 T __ZN4llvm10MCStreamer19EmitULEB128IntValueEy
0000000100c7f3b0 T __ZN4llvm10MCStreamer19EmitWinCFIEndPrologENS_5SMLocE
0000000100c7f1b0 T __ZN4llvm10MCStreamer19EmitWinCFIPushFrameEbNS_5SMLocE
0000000100c7dd60 T __ZN4llvm10MCStreamer19EmitWinCFIStartProcEPKNS_8MCSymbolENS_5SMLocE
0000000100c7dba0 T __ZN4llvm10MCStreamer20EmitCFINegateRAStateEv
0000000100c7ce20 T __ZN4llvm10MCStreamer20EmitCFIRememberStateEv
0000000100c7c450 T __ZN4llvm10MCStreamer20EmitCFIStartProcImplERNS_16MCDwarfFrameInfoE
0000000100c7f450 T __ZN4llvm10MCStreamer20EmitCOFFSectionIndexEPKNS_8MCSymbolE
0000000100c7fa10 T __ZN4llvm10MCStreamer20EmitValueToAlignmentEjxjj
0000000100c7fc10 T __ZN4llvm10MCStreamer20EmitVersionForTargetERKNS_6TripleERKNS_12VersionTupleE
0000000100c7eb70 T __ZN4llvm10MCStreamer20EmitWinCFIAllocStackEjNS_5SMLocE
0000000100c7e2c0 T __ZN4llvm10MCStreamer20EmitWinCFIEndChainedENS_5SMLocE
0000000100c7e430 T __ZN4llvm10MCStreamer20EmitWinEHHandlerDataENS_5SMLocE
0000000100c7ab10 T __ZN4llvm10MCStreamer20emitExplicitCommentsEv
0000000100c7c930 T __ZN4llvm10MCStreamer21EmitCFIDefCfaRegisterEx
0000000100c7bd90 T __ZN4llvm10MCStreamer21EmitCVFuncIdDirectiveEj
0000000100c7bbb0 T __ZN4llvm10MCStreamer21EmitDwarfLocDirectiveEjjjjjjNS_9StringRefE
0000000100c7f950 T __ZN4llvm10MCStreamer21EmitLocalCommonSymbolEPNS_8MCSymbolEyj
0000000100c7c7c0 T __ZN4llvm10MCStreamer22EmitCFIAdjustCfaOffsetEx
0000000100c7e120 T __ZN4llvm10MCStreamer22EmitWinCFIStartChainedENS_5SMLocE
0000000100c7f700 T __ZN4llvm10MCStreamer22emitAbsoluteSymbolDiffEPKNS_8MCSymbolES3_j
0000000100c7f940 T __ZN4llvm10MCStreamer22emitELFSymverDirectiveENS_9StringRefEPKNS_8MCSymbolE
0000000100c7bf30 T __ZN4llvm10MCStreamer23EmitCVDefRangeDirectiveENS_8ArrayRefINSt3__14pairIPKNS_8MCSymbolES6_EEEENS_9StringRefE
0000000100c7f4a0 T __ZN4llvm10MCStreamer23EmitWindowsUnwindTablesEv
0000000100c7ba70 T __ZN4llvm10MCStreamer23emitDwarfFile0DirectiveENS_9StringRefES1_PNS_3MD59MD5ResultENS_8OptionalIS1_EEj
0000000100c7bc70 T __ZN4llvm10MCStreamer23getDwarfLineTableSymbolEj
0000000100c7bf10 T __ZN4llvm10MCStreamer24EmitCVLinetableDirectiveEjPKNS_8MCSymbolES3_
0000000100c7e4c0 T __ZN4llvm10MCStreamer25getAssociatedPDataSectionEPKNS_9MCSectionE
0000000100c7e720 T __ZN4llvm10MCStreamer25getAssociatedXDataSectionEPKNS_9MCSectionE
0000000100c7b9d0 T __ZN4llvm10MCStreamer25tryEmitDwarfFileDirectiveEjNS_9StringRefES1_PNS_3MD59MD5ResultENS_8OptionalIS1_EEj
0000000100c7f8f0 T __ZN4llvm10MCStreamer26EmitCOFFSymbolStorageClassEi
0000000100c7fe20 t __ZN4llvm10MCStreamer26EmitCVStringTableDirectiveEv
0000000100c7e080 T __ZN4llvm10MCStreamer26EmitWinCFIFuncletOrFuncEndENS_5SMLocE
0000000100c7bdc0 T __ZN4llvm10MCStreamer27EmitCVInlineSiteIdDirectiveEjjjjjNS_5SMLocE
0000000100c7fe30 t __ZN4llvm10MCStreamer28EmitCVFileChecksumsDirectiveEv
0000000100c7fe00 t __ZN4llvm10MCStreamer28EmitCodePaddingBasicBlockEndERKNS_20MCCodePaddingContextE
0000000100c7bf20 T __ZN4llvm10MCStreamer30EmitCVInlineLinetableDirectiveEjjjPKNS_8MCSymbolES3_
0000000100c7fdf0 t __ZN4llvm10MCStreamer30EmitCodePaddingBasicBlockStartERKNS_20MCCodePaddingContextE
0000000100c7ab20 T __ZN4llvm10MCStreamer30generateCompactUnwindEncodingsEPNS_12MCAsmBackendE
0000000100c7f800 T __ZN4llvm10MCStreamer31emitAbsoluteSymbolDiffAsULEB128EPKNS_8MCSymbolES3_
0000000100c7fe40 t __ZN4llvm10MCStreamer33EmitCVFileChecksumOffsetDirectiveEj
0000000100c7a890 T __ZN4llvm10MCStreamer5resetEv
0000000100c7f4b0 T __ZN4llvm10MCStreamer6FinishEv
0000000100c7fa00 T __ZN4llvm10MCStreamer8emitFillERKNS_6MCExprExxNS_5SMLocE
0000000100c7f9f0 T __ZN4llvm10MCStreamer8emitFillERKNS_6MCExprEyNS_5SMLocE
0000000100c7b950 T __ZN4llvm10MCStreamer8emitFillEyh
0000000100c7f990 T __ZN4llvm10MCStreamer9EmitBytesENS_9StringRefE
0000000100c7fe10 t __ZN4llvm10MCStreamer9EmitIdentENS_9StringRefE
0000000100c7c0f0 T __ZN4llvm10MCStreamer9EmitLabelEPNS_8MCSymbolENS_5SMLocE
0000000100c7b7f0 T __ZN4llvm10MCStreamer9EmitValueEPKNS_6MCExprEjNS_5SMLocE
0000000100c7b990 T __ZN4llvm10MCStreamer9EmitZerosEy
0000000100c7a650 T __ZN4llvm10MCStreamerC2ERNS_9MCContextE
0000000100c7a880 T __ZN4llvm10MCStreamerD0Ev
0000000100c7a870 T __ZN4llvm10MCStreamerD1Ev
0000000100c7a730 T __ZN4llvm10MCStreamerD2Ev
0000000100e0c5b0 t __ZN4llvm10MDNodeInfoINS_10DILocationEE12getHashValueERKNS_13MDNodeKeyImplIS1_EE
0000000100e0f770 t __ZN4llvm10MDNodeInfoINS_11DIBasicTypeEE12getHashValueEPKS1_
0000000100e0f4f0 t __ZN4llvm10MDNodeInfoINS_11DIBasicTypeEE12getHashValueERKNS_13MDNodeKeyImplIS1_EE
0000000100e1a360 t __ZN4llvm10MDNodeInfoINS_11DIMacroFileEE12getHashValueEPKS1_
0000000100e1a0f0 t __ZN4llvm10MDNodeInfoINS_11DIMacroFileEE12getHashValueERKNS_13MDNodeKeyImplIS1_EE
0000000100e14240 t __ZN4llvm10MDNodeInfoINS_11DINamespaceEE12getHashValueEPKS1_
0000000100e14080 t __ZN4llvm10MDNodeInfoINS_11DINamespaceEE7isEqualERKNS_13MDNodeKeyImplIS1_EEPKS1_
0000000100e0ee70 t __ZN4llvm10MDNodeInfoINS_12DIEnumeratorEE12getHashValueEPKS1_
0000000100e0fd90 t __ZN4llvm10MDNodeInfoINS_13DIDerivedTypeEE7isEqualEPKS1_S4_
0000000100e0deb0 t __ZN4llvm10MDNodeInfoINS_13GenericDINodeEE12getHashValueEPKS1_
0000000100e131c0 t __ZN4llvm10MDNodeInfoINS_14DILexicalBlockEE12getHashValueERKNS_13MDNodeKeyImplIS1_EE
0000000100e16900 t __ZN4llvm10MDNodeInfoINS_16DIGlobalVariableEE12getHashValueEPKS1_
0000000100e16520 t __ZN4llvm10MDNodeInfoINS_16DIGlobalVariableEE12getHashValueERKNS_13MDNodeKeyImplIS1_EE
0000000100e19070 t __ZN4llvm10MDNodeInfoINS_16DIImportedEntityEE12getHashValueEPKS1_
0000000100e13870 t __ZN4llvm10MDNodeInfoINS_18DILexicalBlockFileEE12getHashValueERKNS_13MDNodeKeyImplIS1_EE
0000000100e15520 t __ZN4llvm10MDNodeInfoINS_23DITemplateTypeParameterEE12getHashValueEPKS1_
0000000100e15da0 t __ZN4llvm10MDNodeInfoINS_24DITemplateValueParameterEE12getHashValueEPKS1_
0000000100e15b30 t __ZN4llvm10MDNodeInfoINS_24DITemplateValueParameterEE12getHashValueERKNS_13MDNodeKeyImplIS1_EE
0000000100e11ea0 t __ZN4llvm10MDNodeInfoINS_6DIFileEE12getHashValueEPKS1_
0000000100e17bc0 t __ZN4llvm10MDNodeInfoINS_7DILabelEE12getHashValueEPKS1_
0000000100e17950 t __ZN4llvm10MDNodeInfoINS_7DILabelEE12getHashValueERKNS_13MDNodeKeyImplIS1_EE
0000000100e19a40 t __ZN4llvm10MDNodeInfoINS_7DIMacroEE12getHashValueEPKS1_
0000000100e19720 t __ZN4llvm10MDNodeInfoINS_7DIMacroEE12getHashValueERKNS_13MDNodeKeyImplIS1_EE
0000000100e14cd0 t __ZN4llvm10MDNodeInfoINS_8DIModuleEE12getHashValueEPKS1_
0000000100876d60 T __ZN4llvm10MIRPrinter19convertStackObjectsERNS_4yaml15MachineFunctionERKNS_15MachineFunctionERNS_17ModuleSlotTrackerE
0000000100875bd0 T __ZN4llvm10MIRPrinter5printERKNS_15MachineFunctionE
0000000100876ba0 T __ZN4llvm10MIRPrinter7convertERNS_17ModuleSlotTrackerERNS_4yaml16MachineFrameInfoERKNS_16MachineFrameInfoE
0000000100878600 T __ZN4llvm10MIRPrinter7convertERNS_17ModuleSlotTrackerERNS_4yaml16MachineJumpTableERKNS_20MachineJumpTableInfoE
0000000100878250 T __ZN4llvm10MIRPrinter7convertERNS_4yaml15MachineFunctionERKNS_19MachineConstantPoolE
0000000100876150 T __ZN4llvm10MIRPrinter7convertERNS_4yaml15MachineFunctionERKNS_19MachineRegisterInfoEPKNS_18TargetRegisterInfoE
0000000100def870 T __ZN4llvm10ModulePass17assignPassManagerERNS_7PMStackENS_15PassManagerTypeE
0000000100e22880 T __ZN4llvm10ModulePassD2Ev
000000010083d690 t __ZN4llvm10ReadyQueue4pushEPNS_5SUnitE
000000010082c370 T __ZN4llvm10RegionBaseINS_12RegionTraitsINS_15MachineFunctionEEEE12addSubRegionEPNS_13MachineRegionEb
00000001008317d0 t __ZN4llvm10RegionBaseINS_12RegionTraitsINS_15MachineFunctionEEEE22block_iterator_wrapperILb1EEC2EPKNS_17MachineBasicBlockES9_
000000010082cc00 T __ZN4llvm10RegionBaseINS_12RegionTraitsINS_15MachineFunctionEEEE8elementsEv
0000000100dcfbd0 T __ZN4llvm10ResumeInstC1EPNS_5ValueEPNS_10BasicBlockE
0000000100dcfad0 T __ZN4llvm10ResumeInstC1EPNS_5ValueEPNS_11InstructionE
0000000100dcfae0 T __ZN4llvm10ResumeInstC2EPNS_5ValueEPNS_10BasicBlockE
0000000100dcf9e0 T __ZN4llvm10ResumeInstC2EPNS_5ValueEPNS_11InstructionE
0000000100dcf900 T __ZN4llvm10ResumeInstC2ERKS0_
0000000100dcf8f0 T __ZN4llvm10ReturnInstC1ERNS_11LLVMContextEPNS_5ValueEPNS_11InstructionE
0000000100dcf6b0 T __ZN4llvm10ReturnInstC2ERKS0_
0000000100dcf7e0 T __ZN4llvm10ReturnInstC2ERNS_11LLVMContextEPNS_5ValueEPNS_11InstructionE
00000001008096f0 T __ZN4llvm10SMSchedule12computeStartEPNS_5SUnitEPiS3_S3_S3_iPNS_17SwingSchedulerDAGE
0000000100812c80 T __ZN4llvm10SMSchedule13isLoopCarriedEPNS_17SwingSchedulerDAGERNS_12MachineInstrE
00000001008122f0 t __ZN4llvm10SMSchedule15getStagesForRegEij
000000010080a480 T __ZN4llvm10SMSchedule15isValidScheduleEPNS_17SwingSchedulerDAGE
0000000100814950 T __ZN4llvm10SMSchedule15orderDependenceEPNS_17SwingSchedulerDAGEPNS_5SUnitERNSt3__15dequeIS4_NS5_9allocatorIS4_EEEE
000000010080a6d0 T __ZN4llvm10SMSchedule16finalizeScheduleEPNS_17SwingSchedulerDAGE
00000001008145e0 T __ZN4llvm10SMSchedule18latestCycleInChainERKNS_4SDepE
0000000100814270 T __ZN4llvm10SMSchedule20earliestCycleInChainERKNS_4SDepE
00000001008157a0 T __ZN4llvm10SMSchedule21isLoopCarriedDefOfUseEPNS_17SwingSchedulerDAGEPNS_12MachineInstrERNS_14MachineOperandE
0000000100809dd0 T __ZN4llvm10SMSchedule6insertEPNS_5SUnitEiii
0000000100a3beb0 T __ZN4llvm10SSAUpdater10InitializeEPNS_4TypeENS_9StringRefE
0000000100a3d300 T __ZN4llvm10SSAUpdater10RewriteUseERNS_3UseE
0000000100a3c200 T __ZN4llvm10SSAUpdater17AddAvailableValueEPNS_10BasicBlockEPNS_5ValueE
0000000100a3c590 T __ZN4llvm10SSAUpdater23GetValueInMiddleOfBlockEPNS_10BasicBlockE
0000000100a3d490 T __ZN4llvm10SSAUpdater25RewriteUseAfterInsertionsERNS_3UseE
0000000100a3c340 T __ZN4llvm10SSAUpdater28GetValueAtEndOfBlockInternalEPNS_10BasicBlockE
0000000100a3be30 T __ZN4llvm10SSAUpdaterC1EPNS_15SmallVectorImplIPNS_7PHINodeEEE
0000000100a3be70 T __ZN4llvm10SSAUpdaterD1Ev
0000000100dccf20 T __ZN4llvm10SelectInst18areInvalidOperandsEPNS_5ValueES2_S2_
0000000100d7c200 t __ZN4llvm10SelectInst4initEPNS_5ValueES2_S2_
0000000100a04900 T __ZN4llvm10SplitBlockEPNS_10BasicBlockEPNS_11InstructionEPNS_13DominatorTreeEPNS_8LoopInfoEPNS_16MemorySSAUpdaterE
0000000100e2a6f0 T __ZN4llvm10StructType18isValidElementTypeEPNS_4TypeE
0000000100e29900 T __ZN4llvm10StructType3getERNS_11LLVMContextENS_8ArrayRefIPNS_4TypeEEEb
0000000100e2a3e0 T __ZN4llvm10StructType6createENS_8ArrayRefIPNS_4TypeEEE
0000000100e2a390 T __ZN4llvm10StructType6createENS_8ArrayRefIPNS_4TypeEEENS_9StringRefEb
0000000100e2a340 T __ZN4llvm10StructType6createERNS_11LLVMContextE
0000000100e2a110 T __ZN4llvm10StructType6createERNS_11LLVMContextENS_8ArrayRefIPNS_4TypeEEENS_9StringRefEb
0000000100e2a0a0 T __ZN4llvm10StructType6createERNS_11LLVMContextENS_9StringRefE
0000000100e29b70 T __ZN4llvm10StructType7setBodyENS_8ArrayRefIPNS_4TypeEEEb
0000000100e29d30 T __ZN4llvm10StructType7setNameENS_9StringRefE
0000000100dd79f0 T __ZN4llvm10SwitchInst10removeCaseENS0_16CaseIteratorImplINS0_10CaseHandleEEE
0000000100a5d120 t __ZN4llvm10SwitchInst10setOperandEjPNS_5ValueE
0000000100b5ed40 t __ZN4llvm10SwitchInst12findCaseDestEPNS_10BasicBlockE
0000000100dd70b0 T __ZN4llvm10SwitchInst4initEPNS_5ValueEPNS_10BasicBlockEj
0000000100dd76b0 T __ZN4llvm10SwitchInst7addCaseEPNS_11ConstantIntEPNS_10BasicBlockE
0000000100dd72b0 T __ZN4llvm10SwitchInstC1EPNS_5ValueEPNS_10BasicBlockEjPNS_11InstructionE
0000000100dd7320 T __ZN4llvm10SwitchInstC1EPNS_5ValueEPNS_10BasicBlockEjS4_
0000000100dd7390 T __ZN4llvm10SwitchInstC2ERKS0_
0000000100ebac20 T __ZN4llvm10TimerGroup11removeTimerERNS_5TimerE
0000000100ebc6b0 T __ZN4llvm10TimerGroup14printJSONValueERNS_11raw_ostreamERKNS0_11PrintRecordEPKcd
0000000100ebc930 T __ZN4llvm10TimerGroup15printJSONValuesERNS_11raw_ostreamEPKc
0000000100ebbdb0 T __ZN4llvm10TimerGroup17PrintQueuedTimersERNS_11raw_ostreamE
0000000100ebc490 T __ZN4llvm10TimerGroup18prepareToPrintListEv
0000000100ebcde0 T __ZN4llvm10TimerGroup18printAllJSONValuesERNS_11raw_ostreamEPKc
0000000100ebcf50 T __ZN4llvm10TimerGroup19ConstructTimerListsEv
0000000100ebaae0 T __ZN4llvm10TimerGroup8addTimerERNS_5TimerE
0000000100ebbbb0 T __ZN4llvm10TimerGroupC1ENS_9StringRefES1_
0000000100ebb6b0 T __ZN4llvm10TimerGroupC2ENS_9StringRefES1_
0000000100ebbda0 T __ZN4llvm10TimerGroupD1Ev
0000000100ebbbc0 T __ZN4llvm10TimerGroupD2Ev
0000000100e2dd00 T __ZN4llvm10TypeFinder15incorporateTypeEPNS_4TypeE
0000000100e2e0f0 T __ZN4llvm10TypeFinder16incorporateValueEPKNS_5ValueE
0000000100e2e310 T __ZN4llvm10TypeFinder17incorporateMDNodeEPKNS_6MDNodeE
0000000100e2d800 T __ZN4llvm10TypeFinder3runERKNS_6ModuleEb
0000000100d64490 T __ZN4llvm10UndefValue3getEPNS_4TypeE
0000000100e2ab30 T __ZN4llvm10VectorType3getEPNS_4TypeEj
00000001009a7410 T __ZN4llvm10VirtRegMap15assignVirt2PhysEjt
00000001009a7590 T __ZN4llvm10VirtRegMap16hasPreferredPhysEj
00000001009a76a0 T __ZN4llvm10VirtRegMap18hasKnownPreferenceEj
00000001009a77a0 T __ZN4llvm10VirtRegMap20assignVirt2StackSlotEj
00000001009a7970 T __ZN4llvm10VirtRegMap20assignVirt2StackSlotEji
00000001009a6e20 T __ZN4llvm10VirtRegMap20runOnMachineFunctionERNS_15MachineFunctionE
00000001015af380 S __ZN4llvm10VirtRegMap2IDE
00000001009a6e90 T __ZN4llvm10VirtRegMap4growEv
00000001009a8370 t __ZN4llvm10VirtRegMapD0Ev
00000001009a82d0 t __ZN4llvm10VirtRegMapD1Ev
00000001005d77a0 t __ZN4llvm10WinCFGuard11endFunctionEPKNS_15MachineFunctionE
00000001005d7790 t __ZN4llvm10WinCFGuard13beginFunctionEPKNS_15MachineFunctionE
00000001005d7780 t __ZN4llvm10WinCFGuard13setSymbolSizeEPKNS_8MCSymbolEy
00000001005d77c0 t __ZN4llvm10WinCFGuard14endInstructionEv
00000001005d77b0 t __ZN4llvm10WinCFGuard16beginInstructionEPKNS_12MachineInstrE
00000001005d7520 t __ZN4llvm10WinCFGuard9endModuleEv
00000001005d74d0 t __ZN4llvm10WinCFGuardC1EPNS_10AsmPrinterE
00000001005d7500 t __ZN4llvm10WinCFGuardD0Ev
00000001005d74f0 t __ZN4llvm10WinCFGuardD1Ev
00000001006fc700 t __ZN4llvm10WriteGraphINS_11EdgeBundlesEEENSt3__112basic_stringIcNS2_11char_traitsIcEENS2_9allocatorIcEEEERKT_RKNS_5TwineEbSE_S8_
00000001006fbbe0 T __ZN4llvm10WriteGraphINS_11EdgeBundlesEEERNS_11raw_ostreamES3_RKT_bRKNS_5TwineE
000000010092af90 t __ZN4llvm10WriteGraphIPNS_11ScheduleDAGEEENSt3__112basic_stringIcNS3_11char_traitsIcEENS3_9allocatorIcEEEERKT_RKNS_5TwineEbSF_S9_
00000001005359d0 t __ZN4llvm10WriteGraphIPNS_12SelectionDAGEEENSt3__112basic_stringIcNS3_11char_traitsIcEENS3_9allocatorIcEEEERKT_RKNS_5TwineEbSF_S9_
000000010084b100 t __ZN4llvm10WriteGraphIPNS_13ScheduleDAGMIEEENSt3__112basic_stringIcNS3_11char_traitsIcEENS3_9allocatorIcEEEERKT_RKNS_5TwineEbSF_S9_
0000000100a8e650 t __ZN4llvm10WriteGraphIPNS_18BlockFrequencyInfoEEENSt3__112basic_stringIcNS3_11char_traitsIcEENS3_9allocatorIcEEEERKT_RKNS_5TwineEbSF_S9_
0000000100794f20 t __ZN4llvm10WriteGraphIPNS_25MachineBlockFrequencyInfoEEENSt3__112basic_stringIcNS3_11char_traitsIcEENS3_9allocatorIcEEEERKT_RKNS_5TwineEbSF_S9_
00000001000547d0 t __ZN4llvm10X86Operand10getSymNameEv
00000001000547e0 t __ZN4llvm10X86Operand9getOpDeclEv
0000000100054790 t __ZN4llvm10X86OperandD0Ev
0000000100054760 t __ZN4llvm10X86OperandD1Ev
0000000101222410 S __ZN4llvm10X86RegDescE
00000001002b5330 T __ZN4llvm10X86TTIImpl11getUserCostEPKNS_4UserENS_8ArrayRefIPKNS_5ValueEEE
00000001002b5c40 T __ZN4llvm10X86TTIImpl11hasDivRemOpEPNS_4TypeEb
00000001002b5260 T __ZN4llvm10X86TTIImpl13getIntImmCostENS_9Intrinsic2IDEjRKNS_5APIntEPNS_4TypeE
00000001002b4da0 T __ZN4llvm10X86TTIImpl13getIntImmCostERKNS_5APIntEPNS_4TypeE
00000001002b5040 T __ZN4llvm10X86TTIImpl13getIntImmCostEjjRKNS_5APIntEPNS_4TypeE
00000001002b5ba0 T __ZN4llvm10X86TTIImpl13isLSRCostLessERNS_19TargetTransformInfo7LSRCostES3_
00000001002ab280 T __ZN4llvm10X86TTIImpl14getShuffleCostENS_19TargetTransformInfo11ShuffleKindEPNS_4TypeEiS4_
00000001002b5c30 T __ZN4llvm10X86TTIImpl15canMacroFuseCmpEv
00000001002b5740 T __ZN4llvm10X86TTIImpl15getGSScalarCostEjPNS_4TypeEbjj
00000001002b5420 T __ZN4llvm10X86TTIImpl15getGSVectorCostEjPNS_4TypeEPNS_5ValueEjj
00000001002b3180 T __ZN4llvm10X86TTIImpl15getMemoryOpCostEjPNS_4TypeEjjPKNS_11InstructionE
00000001002accc0 T __ZN4llvm10X86TTIImpl16getCastInstrCostEjPNS_4TypeES2_PKNS_11InstructionE
00000001002a7720 T __ZN4llvm10X86TTIImpl16getPopcntSupportEj
00000001002b38c0 T __ZN4llvm10X86TTIImpl17isLegalMaskedLoadEPNS_4TypeE
00000001002ae440 T __ZN4llvm10X86TTIImpl18getCmpSelInstrCostEjPNS_4TypeES2_PKNS_11InstructionE
00000001002b30a0 T __ZN4llvm10X86TTIImpl18getVectorInstrCostEjPNS_4TypeEj
00000001002b3980 T __ZN4llvm10X86TTIImpl18isLegalMaskedStoreEPNS_4TypeE
00000001002b5ac0 T __ZN4llvm10X86TTIImpl19isLegalMaskedGatherEPNS_4TypeE
00000001002a77d0 T __ZN4llvm10X86TTIImpl20getNumberOfRegistersEb
00000001002b5b80 T __ZN4llvm10X86TTIImpl20isLegalMaskedScatterEPNS_4TypeE
00000001002b2470 T __ZN4llvm10X86TTIImpl21getIntrinsicInstrCostENS_9Intrinsic2IDEPNS_4TypeENS_8ArrayRefIPNS_5ValueEEENS_13FastMathFlagsEj
00000001002aed40 T __ZN4llvm10X86TTIImpl21getIntrinsicInstrCostENS_9Intrinsic2IDEPNS_4TypeENS_8ArrayRefIS4_EENS_13FastMathFlagsEj
00000001002b3560 T __ZN4llvm10X86TTIImpl21getMaskedMemoryOpCostEjPNS_4TypeEjj
00000001002a7910 T __ZN4llvm10X86TTIImpl22getArithmeticInstrCostEjPNS_4TypeENS_19TargetTransformInfo16OperandValueKindES4_NS3_22OperandValuePropertiesES5_NS_8ArrayRefIPKNS_5ValueEEE
00000001002b5930 T __ZN4llvm10X86TTIImpl22getGatherScatterOpCostEjPNS_4TypeEPNS_5ValueEbj
00000001002a78e0 T __ZN4llvm10X86TTIImpl22getMaxInterleaveFactorEj
00000001002b3fb0 T __ZN4llvm10X86TTIImpl22getMinMaxReductionCostEPNS_4TypeES2_bb
00000001002b3990 T __ZN4llvm10X86TTIImpl25getAddressComputationCostEPNS_4TypeEPNS_15ScalarEvolutionEPKNS_4SCEVE
00000001002b3a00 T __ZN4llvm10X86TTIImpl26getArithmeticReductionCostEjPNS_4TypeEb
00000001002b6df0 T __ZN4llvm10X86TTIImpl26getInterleavedMemoryOpCostEjPNS_4TypeEjNS_8ArrayRefIjEEjjbb
00000001002b5ce0 T __ZN4llvm10X86TTIImpl28isFCmpOrdCheaperThanFCmpZeroEPNS_4TypeE
00000001002b60b0 T __ZN4llvm10X86TTIImpl30getInterleavedMemoryOpCostAVX2EjPNS_4TypeEjNS_8ArrayRefIjEEjjbb
00000001002b6ae0 T __ZN4llvm10X86TTIImpl32getInterleavedMemoryOpCostAVX512EjPNS_4TypeEjNS_8ArrayRefIjEEjjbb
00000001002b6090 T __ZN4llvm10X86TTIImpl36enableInterleavedAccessVectorizationEv
000000010076a090 T __ZN4llvm10addLiveInsERNS_17MachineBasicBlockERKNS_12LivePhysRegsE
0000000100790590 t __ZN4llvm10bfi_detail12getBlockNameINS_17MachineBasicBlockEEENSt3__112basic_stringIcNS3_11char_traitsIcEENS3_9allocatorIcEEEEPKT_
0000000100a8d960 t __ZN4llvm10bfi_detail15BlockEdgesAdderINS_10BasicBlockEEclERNS0_16IrreducibleGraphERNS4_7IrrNodeEPKNS_26BlockFrequencyInfoImplBase8LoopDataE
0000000100794ac0 t __ZN4llvm10bfi_detail15BlockEdgesAdderINS_17MachineBasicBlockEEclERNS0_16IrreducibleGraphERNS4_7IrrNodeEPKNS_26BlockFrequencyInfoImplBase8LoopDataE
0000000100a94c70 T __ZN4llvm10bfi_detail16IrreducibleGraph10indexNodesEv
0000000100a8d580 t __ZN4llvm10bfi_detail16IrreducibleGraph10initializeINS0_15BlockEdgesAdderINS_10BasicBlockEEEEEvPKNS_26BlockFrequencyInfoImplBase8LoopDataET_
00000001007946e0 t __ZN4llvm10bfi_detail16IrreducibleGraph10initializeINS0_15BlockEdgesAdderINS_17MachineBasicBlockEEEEEvPKNS_26BlockFrequencyInfoImplBase8LoopDataET_
0000000100a948d0 T __ZN4llvm10bfi_detail16IrreducibleGraph14addNodesInLoopERKNS_26BlockFrequencyInfoImplBase8LoopDataE
0000000100a94d90 T __ZN4llvm10bfi_detail16IrreducibleGraph18addNodesInFunctionEv
0000000100a94e90 T __ZN4llvm10bfi_detail16IrreducibleGraph7addEdgeERNS1_7IrrNodeERKNS_26BlockFrequencyInfoImplBase9BlockNodeEPKNS4_8LoopDataE
0000000100a94b10 t __ZN4llvm10bfi_detail16IrreducibleGraph7addNodeERKNS_26BlockFrequencyInfoImplBase9BlockNodeE
0000000100a8d750 t __ZN4llvm10bfi_detail16IrreducibleGraph8addEdgesINS0_15BlockEdgesAdderINS_10BasicBlockEEEEEvRKNS_26BlockFrequencyInfoImplBase9BlockNodeEPKNS6_8LoopDataET_
00000001007948b0 t __ZN4llvm10bfi_detail16IrreducibleGraph8addEdgesINS0_15BlockEdgesAdderINS_17MachineBasicBlockEEEEEvRKNS_26BlockFrequencyInfoImplBase9BlockNodeEPKNS6_8LoopDataET_
0000000100a0d2e0 T __ZN4llvm10castToCStrEPNS_5ValueERNS_9IRBuilderINS_14ConstantFolderENS_24IRBuilderDefaultInserterEEE
0000000100a0de20 T __ZN4llvm10emitMemCmpEPNS_5ValueES1_S1_RNS_9IRBuilderINS_14ConstantFolderENS_24IRBuilderDefaultInserterEEERKNS_10DataLayoutEPKNS_17TargetLibraryInfoE
0000000100a0d6b0 T __ZN4llvm10emitStrCpyEPNS_5ValueES1_RNS_9IRBuilderINS_14ConstantFolderENS_24IRBuilderDefaultInserterEEEPKNS_17TargetLibraryInfoENS_9StringRefE
0000000100a0d3d0 T __ZN4llvm10emitStrLenEPNS_5ValueERNS_9IRBuilderINS_14ConstantFolderENS_24IRBuilderDefaultInserterEEERKNS_10DataLayoutEPKNS_17TargetLibraryInfoE
0000000100eb9f10 T __ZN4llvm10hash_valueENS_9StringRefE
00000001007e8370 T __ZN4llvm10hash_valueERKNS_14MachineOperandE
0000000100e74f20 T __ZN4llvm10hash_valueERKNS_5APIntE
0000000100e71800 T __ZN4llvm10hash_valueERKNS_7APFloatE
0000000100b09f40 T __ZN4llvm10isFreeCallEPKNS_5ValueEPKNS_17TargetLibraryInfoE
000000010082d9f0 t __ZN4llvm10make_rangeINS_11df_iteratorIPKNS_17MachineRegionNodeENS_23df_iterator_default_setIS4_Lj8EEELb0ENS_11GraphTraitsIS4_EEEEEENS_14iterator_rangeIT_EESB_SB_
00000001006baf60 t __ZN4llvm10make_rangeINS_11df_iteratorIPKNS_4LoopENS_23df_iterator_default_setIS4_Lj8EEELb0ENS_11GraphTraitsIS4_EEEEEENS_14iterator_rangeIT_EESB_SB_
000000010082d9f0 t __ZN4llvm10make_rangeINS_11df_iteratorIPNS_10BasicBlockENS_23df_iterator_default_setIS3_Lj8EEELb0ENS_11GraphTraitsIS3_EEEEEENS_14iterator_rangeIT_EESA_SA_
00000001006baf60 t __ZN4llvm10make_rangeINS_11df_iteratorIPNS_15DomTreeNodeBaseINS_10BasicBlockEEENS_23df_iterator_default_setIS5_Lj8EEELb0ENS_11GraphTraitsIS5_EEEEEENS_14iterator_rangeIT_EESC_SC_
00000001006baf60 t __ZN4llvm10make_rangeINS_11df_iteratorIPNS_15MachineFunctionENS_23df_iterator_default_setIPNS_17MachineBasicBlockELj8EEELb0ENS_11GraphTraitsIS3_EEEEEENS_14iterator_rangeIT_EESC_SC_
000000010082d9f0 t __ZN4llvm10make_rangeINS_11df_iteratorIPNS_17MachineRegionNodeENS_23df_iterator_default_setIS3_Lj8EEELb0ENS_11GraphTraitsIS3_EEEEEENS_14iterator_rangeIT_EESA_SA_
000000010082d9f0 t __ZN4llvm10make_rangeINS_11df_iteratorIPNS_8FunctionENS_23df_iterator_default_setIPNS_10BasicBlockELj8EEELb0ENS_11GraphTraitsIS3_EEEEEENS_14iterator_rangeIT_EESC_SC_
00000001002dbae0 t __ZN4llvm10make_rangeINS_11po_iteratorIPKNS_10BasicBlockENS_11SmallPtrSetIS4_Lj8EEELb0ENS_11GraphTraitsIS4_EEEEEENS_14iterator_rangeIT_EESB_SB_
00000001002dbae0 t __ZN4llvm10make_rangeINS_11po_iteratorIPKNS_15DomTreeNodeBaseINS_10BasicBlockEEENS_11SmallPtrSetIS6_Lj8EEELb0ENS_11GraphTraitsIS6_EEEEEENS_14iterator_rangeIT_EESD_SD_
00000001002dbae0 t __ZN4llvm10make_rangeINS_11po_iteratorIPKNS_15DomTreeNodeBaseINS_17MachineBasicBlockEEENS_11SmallPtrSetIS6_Lj8EEELb0ENS_11GraphTraitsIS6_EEEEEENS_14iterator_rangeIT_EESD_SD_
00000001002dbae0 t __ZN4llvm10make_rangeINS_11po_iteratorIPNS_10BasicBlockENS_11SmallPtrSetIS3_Lj8EEELb0ENS_11GraphTraitsIS3_EEEEEENS_14iterator_rangeIT_EESA_SA_
00000001002dbae0 t __ZN4llvm10make_rangeINS_11po_iteratorIPNS_15DomTreeNodeBaseINS_17MachineBasicBlockEEENS_11SmallPtrSetIS5_Lj8EEELb0ENS_11GraphTraitsIS5_EEEEEENS_14iterator_rangeIT_EESC_SC_
00000001002dbae0 t __ZN4llvm10make_rangeINS_11po_iteratorIPNS_15MachineFunctionENS_11SmallPtrSetIPNS_17MachineBasicBlockELj8EEELb0ENS_11GraphTraitsIS3_EEEEEENS_14iterator_rangeIT_EESC_SC_
00000001002dbae0 t __ZN4llvm10make_rangeINS_11po_iteratorIPNS_17MachineBasicBlockENS_11SmallPtrSetIS3_Lj8EEELb0ENS_11GraphTraitsIS3_EEEEEENS_14iterator_rangeIT_EESA_SA_
00000001002dbae0 t __ZN4llvm10make_rangeINS_11po_iteratorIPNS_20MachineDominatorTreeENS_11SmallPtrSetIPNS_15DomTreeNodeBaseINS_17MachineBasicBlockEEELj8EEELb0ENS_11GraphTraitsIS3_EEEEEENS_14iterator_rangeIT_EESE_SE_
00000001002dbae0 t __ZN4llvm10make_rangeINS_11po_iteratorIPNS_4TypeENS_11SmallPtrSetIS3_Lj8EEELb0ENS_11GraphTraitsIS3_EEEEEENS_14iterator_rangeIT_EESA_SA_
0000000100d4d420 t __ZN4llvm10make_rangeINS_20filter_iterator_implINS_14ilist_iteratorINS_12ilist_detail12node_optionsINS_11InstructionELb1ELb0EvEELb0ELb0EEENSt3__18functionIFbRS5_EEENS8_26bidirectional_iterator_tagEEEEENS_14iterator_rangeIT_EESG_SG_
0000000100d4d420 t __ZN4llvm10make_rangeINS_20filter_iterator_implINS_14ilist_iteratorINS_12ilist_detail12node_optionsINS_11InstructionELb1ELb0EvEELb0ELb1EEENSt3__18functionIFbRKS5_EEENS8_26bidirectional_iterator_tagEEEEENS_14iterator_rangeIT_EESH_SH_
0000000100a5dd70 t __ZN4llvm10make_rangeINSt3__116reverse_iteratorINS_20filter_iterator_implINS_14ilist_iteratorINS_12ilist_detail12node_optionsINS_11InstructionELb1ELb0EvEELb0ELb0EEENS1_8functionIFbRS7_EEENS1_26bidirectional_iterator_tagEEEEEEENS_14iterator_rangeIT_EESI_SI_
0000000100aa15d0 t __ZN4llvm10post_orderIPKNS_10BasicBlockEEENS_14iterator_rangeINS_11po_iteratorIT_NS_11SmallPtrSetINS_11GraphTraitsIS6_E7NodeRefELj8EEELb0ES9_EEEERKS6_
0000000100b02020 t __ZN4llvm10post_orderIPKNS_15DomTreeNodeBaseINS_10BasicBlockEEEEENS_14iterator_rangeINS_11po_iteratorIT_NS_11SmallPtrSetINS_11GraphTraitsIS8_E7NodeRefELj8EEELb0ESB_EEEERKS8_
00000001007dff40 t __ZN4llvm10post_orderIPKNS_15DomTreeNodeBaseINS_17MachineBasicBlockEEEEENS_14iterator_rangeINS_11po_iteratorIT_NS_11SmallPtrSetINS_11GraphTraitsIS8_E7NodeRefELj8EEELb0ESB_EEEERKS8_
0000000100b06e90 t __ZN4llvm10post_orderIPNS_10BasicBlockEEENS_14iterator_rangeINS_11po_iteratorIT_NS_11SmallPtrSetINS_11GraphTraitsIS5_E7NodeRefELj8EEELb0ES8_EEEERKS5_
000000010082f3b0 t __ZN4llvm10post_orderIPNS_15DomTreeNodeBaseINS_17MachineBasicBlockEEEEENS_14iterator_rangeINS_11po_iteratorIT_NS_11SmallPtrSetINS_11GraphTraitsIS7_E7NodeRefELj8EEELb0ESA_EEEERKS7_
00000001002db150 t __ZN4llvm10post_orderIPNS_15MachineFunctionEEENS_14iterator_rangeINS_11po_iteratorIT_NS_11SmallPtrSetINS_11GraphTraitsIS5_E7NodeRefELj8EEELb0ES8_EEEERKS5_
00000001007e1920 t __ZN4llvm10post_orderIPNS_17MachineBasicBlockEEENS_14iterator_rangeINS_11po_iteratorIT_NS_11SmallPtrSetINS_11GraphTraitsIS5_E7NodeRefELj8EEELb0ES8_EEEERKS5_
00000001006f5e60 t __ZN4llvm10post_orderIPNS_20MachineDominatorTreeEEENS_14iterator_rangeINS_11po_iteratorIT_NS_11SmallPtrSetINS_11GraphTraitsIS5_E7NodeRefELj8EEELb0ES8_EEEERKS5_
00000001007e41d0 t __ZN4llvm10post_orderIPNS_4TypeEEENS_14iterator_rangeINS_11po_iteratorIT_NS_11SmallPtrSetINS_11GraphTraitsIS5_E7NodeRefELj8EEELb0ES8_EEEERKS5_
0000000100bc9ee0 t __ZN4llvm10sampleprof12SampleSorterINS0_12LineLocationENS0_12SampleRecordEEC2ERKNSt3__13mapIS2_S3_NS5_4lessIS2_EENS5_9allocatorINS5_4pairIKS2_S3_EEEEEE
0000000100bcb960 t __ZN4llvm10sampleprof12SampleSorterINS0_12LineLocationENSt3__13mapINS3_12basic_stringIcNS3_11char_traitsIcEENS3_9allocatorIcEEEENS0_15FunctionSamplesENS3_4lessISA_EENS8_INS3_4pairIKSA_SB_EEEEEEEC2ERKNS4_IS2_SI_NSC_IS2_EENS8_INSE_IKS2_SI_EEEEEE
0000000100bce9d0 t __ZN4llvm10sampleprof15FunctionSamples14addBodySamplesEjjyy
00000001015b16f8 S __ZN4llvm10sampleprof15FunctionSamples17GUIDToFuncNameMapE
0000000100bce7a0 t __ZN4llvm10sampleprof15FunctionSamples22addCalledTargetSamplesEjjNS_9StringRefEyy
00000001015b16f0 S __ZN4llvm10sampleprof15FunctionSamples6FormatE
0000000100bc9040 T __ZN4llvm10sampleprof15FunctionSamples9getOffsetEPKNS_10DILocationE
0000000100bd3710 t __ZN4llvm10sampleprof19SampleProfileReader13getSamplesForENS_9StringRefE
0000000100bcebf0 T __ZN4llvm10sampleprof19SampleProfileReader14computeSummaryEv
0000000100bd3f10 t __ZN4llvm10sampleprof19SampleProfileReader17collectFuncsToUseERKNS_6ModuleE
0000000100bd3870 T __ZN4llvm10sampleprof19SampleProfileReader6createERKNS_5TwineERNS_11LLVMContextE
0000000100bd3a70 T __ZN4llvm10sampleprof19SampleProfileReader6createERNSt3__110unique_ptrINS_12MemoryBufferENS2_14default_deleteIS4_EEEERNS_11LLVMContextE
0000000100bd4320 t __ZN4llvm10sampleprof19SampleProfileReaderD0Ev
0000000100bd4310 t __ZN4llvm10sampleprof19SampleProfileReaderD1Ev
0000000100bd4330 t __ZN4llvm10sampleprof19SampleProfileReaderD2Ev
0000000100bd1d40 T __ZN4llvm10sampleprof22SampleProfileReaderGCC10readHeaderEv
0000000100bd2120 T __ZN4llvm10sampleprof22SampleProfileReaderGCC13readNameTableEv
0000000100bd2330 T __ZN4llvm10sampleprof22SampleProfileReaderGCC20readFunctionProfilesEv
0000000100bd2470 T __ZN4llvm10sampleprof22SampleProfileReaderGCC22readOneFunctionProfileERKNS_11SmallVectorIPNS0_15FunctionSamplesELj10EEEbj
0000000100bd36d0 T __ZN4llvm10sampleprof22SampleProfileReaderGCC4readEv
0000000100bd4140 t __ZN4llvm10sampleprof22SampleProfileReaderGCCD0Ev
0000000100bd40d0 t __ZN4llvm10sampleprof22SampleProfileReaderGCCD1Ev
0000000100bd3ef0 t __ZN4llvm10sampleprof23SampleProfileReaderText10readHeaderEv
0000000100bcd430 T __ZN4llvm10sampleprof23SampleProfileReaderText4readEv
0000000100bd3ed0 t __ZN4llvm10sampleprof23SampleProfileReaderTextD0Ev
0000000100bd3ec0 t __ZN4llvm10sampleprof23SampleProfileReaderTextD1Ev
0000000100bd0c10 T __ZN4llvm10sampleprof25SampleProfileReaderBinary10readHeaderEv
0000000100bcfd20 t __ZN4llvm10sampleprof25SampleProfileReaderBinary10readNumberIjEENS_7ErrorOrIT_EEv
0000000100bcfba0 t __ZN4llvm10sampleprof25SampleProfileReaderBinary10readNumberIyEENS_7ErrorOrIT_EEv
0000000100bcee80 T __ZN4llvm10sampleprof25SampleProfileReaderBinary10readStringEv
0000000100bcf1b0 T __ZN4llvm10sampleprof25SampleProfileReaderBinary11readProfileERNS0_15FunctionSamplesE
0000000100bd0d70 T __ZN4llvm10sampleprof25SampleProfileReaderBinary11readSummaryEv
0000000100bcfed0 T __ZN4llvm10sampleprof25SampleProfileReaderBinary15readFuncProfileEv
0000000100bd1800 T __ZN4llvm10sampleprof25SampleProfileReaderBinary16readSummaryEntryERNSt3__16vectorINS_19ProfileSummaryEntryENS2_9allocatorIS4_EEEE
0000000100bd14c0 t __ZN4llvm10sampleprof25SampleProfileReaderBinary19readUnencodedNumberIyEENS_7ErrorOrIT_EEv
0000000100bd01f0 T __ZN4llvm10sampleprof25SampleProfileReaderBinary4readEv
0000000100bd0710 T __ZN4llvm10sampleprof28SampleProfileReaderRawBinary13readNameTableEv
0000000100bd06b0 T __ZN4llvm10sampleprof28SampleProfileReaderRawBinary13verifySPMagicEy
0000000100bcefa0 T __ZN4llvm10sampleprof28SampleProfileReaderRawBinary19readStringFromTableEv
0000000100bd3f60 t __ZN4llvm10sampleprof28SampleProfileReaderRawBinaryD0Ev
0000000100bd3f20 t __ZN4llvm10sampleprof28SampleProfileReaderRawBinaryD1Ev
0000000100bd11a0 T __ZN4llvm10sampleprof32SampleProfileReaderCompactBinary10readHeaderEv
0000000100bd0910 T __ZN4llvm10sampleprof32SampleProfileReaderCompactBinary13readNameTableEv
0000000100bd06e0 T __ZN4llvm10sampleprof32SampleProfileReaderCompactBinary13verifySPMagicEy
0000000100bd15c0 T __ZN4llvm10sampleprof32SampleProfileReaderCompactBinary17collectFuncsToUseERKNS_6ModuleE
0000000100bd11d0 T __ZN4llvm10sampleprof32SampleProfileReaderCompactBinary19readFuncOffsetTableEv
0000000100bcf0a0 T __ZN4llvm10sampleprof32SampleProfileReaderCompactBinary19readStringFromTableEv
0000000100bd0230 T __ZN4llvm10sampleprof32SampleProfileReaderCompactBinary4readEv
0000000100bd4030 t __ZN4llvm10sampleprof32SampleProfileReaderCompactBinaryD0Ev
0000000100bd3fa0 t __ZN4llvm10sampleprof32SampleProfileReaderCompactBinaryD1Ev
00000001008408b0 T __ZN4llvm10tryLatencyERNS_20GenericSchedulerBase14SchedCandidateES2_RNS_13SchedBoundaryE
0000000100e65ad0 T __ZN4llvm11APFloatBase10IEEEdoubleEv
0000000100e65ac0 T __ZN4llvm11APFloatBase10IEEEsingleEv
0000000100e65b10 T __ZN4llvm11APFloatBase15PPCDoubleDoubleEv
0000000100e65af0 T __ZN4llvm11APFloatBase17x87DoubleExtendedEv
0000000100e65b20 T __ZN4llvm11APFloatBase18semanticsPrecisionERKNS_12fltSemanticsE
0000000100e65b00 T __ZN4llvm11APFloatBase5BogusEv
0000000100e65ab0 T __ZN4llvm11APFloatBase8IEEEhalfEv
0000000100e65ae0 T __ZN4llvm11APFloatBase8IEEEquadEv
0000000100574e90 T __ZN4llvm11AddressPool10emitHeaderERNS_10AsmPrinterEPNS_9MCSectionE
0000000100574fe0 T __ZN4llvm11AddressPool4emitERNS_10AsmPrinterEPNS_9MCSectionE
0000000100574e20 T __ZN4llvm11AddressPool8getIndexEPKNS_8MCSymbolEb
0000000100d20ee0 T __ZN4llvm11AttrBuilder12addAttributeENS_9Attribute8AttrKindE
0000000100d212a0 T __ZN4llvm11AttrBuilder12addAttributeENS_9AttributeE
0000000100d20f50 T __ZN4llvm11AttrBuilder12addAttributeENS_9StringRefES1_
0000000100d214b0 T __ZN4llvm11AttrBuilder15removeAttributeENS_9Attribute8AttrKindE
0000000100d218b0 T __ZN4llvm11AttrBuilder15removeAttributeENS_9StringRefE
0000000100d25010 T __ZN4llvm11AttrBuilder16addAlignmentAttrEj
0000000100d25080 T __ZN4llvm11AttrBuilder21addStackAlignmentAttrEj
0000000100d24710 T __ZN4llvm11AttrBuilder22addDereferenceableAttrEy
0000000100d250f0 T __ZN4llvm11AttrBuilder27addAllocSizeAttrFromRawReprEy
0000000100d24730 T __ZN4llvm11AttrBuilder28addDereferenceableOrNullAttrEy
0000000100d23560 T __ZN4llvm11AttrBuilder5mergeERKS0_
0000000100d211c0 T __ZN4llvm11AttrBuilderC1ENS_12AttributeSetE
0000000100d24f70 T __ZN4llvm11AttrBuilderC1ENS_13AttributeListEj
0000000100d252d0 T __ZN4llvm11AttrBuildereqERKS0_
0000000100dd6110 T __ZN4llvm11BitCastInstC1EPNS_5ValueEPNS_4TypeERKNS_5TwineEPNS_11InstructionE
0000000100ac27a0 T __ZN4llvm11CodeMetrics22collectEphemeralValuesEPKNS_4LoopEPNS_15AssumptionCacheERNS_15SmallPtrSetImplIPKNS_5ValueEEE
0000000100d62d90 T __ZN4llvm11ConstantInt19destroyConstantImplEv
0000000100d69120 T __ZN4llvm11ConstantInt19isValueValidForTypeEPNS_4TypeEx
0000000100d69050 T __ZN4llvm11ConstantInt19isValueValidForTypeEPNS_4TypeEy
0000000100d63b10 T __ZN4llvm11ConstantInt3getEPNS_11IntegerTypeEyb
0000000100d63de0 T __ZN4llvm11ConstantInt3getEPNS_4TypeERKNS_5APIntE
0000000100d61050 T __ZN4llvm11ConstantInt3getEPNS_4TypeEyb
0000000100d61760 T __ZN4llvm11ConstantInt3getERNS_11LLVMContextERKNS_5APIntE
0000000100d63c50 T __ZN4llvm11ConstantInt7getTrueEPNS_4TypeE
0000000100d63a50 T __ZN4llvm11ConstantInt7getTrueERNS_11LLVMContextE
0000000100d63cc0 T __ZN4llvm11ConstantInt8getFalseEPNS_4TypeE
0000000100d63ba0 T __ZN4llvm11ConstantInt8getFalseERNS_11LLVMContextE
0000000100d63d30 T __ZN4llvm11ConstantInt9getSignedEPNS_11IntegerTypeEx
0000000100d63dd0 T __ZN4llvm11ConstantInt9getSignedEPNS_4TypeEx
0000000100d87af0 T __ZN4llvm11DIBasicType7getImplERNS_11LLVMContextEjPNS_8MDStringEyjjNS_6DINode7DIFlagsENS_8Metadata11StorageTypeEb
0000000100d8d350 T __ZN4llvm11DIMacroFile7getImplERNS_11LLVMContextEjjPNS_8MetadataES4_NS3_11StorageTypeEb
0000000100d8a150 T __ZN4llvm11DINamespace7getImplERNS_11LLVMContextEPNS_8MetadataEPNS_8MDStringEbNS3_11StorageTypeEb
00000001005a42c0 T __ZN4llvm11DbgVariable11addMMIEntryERKS0_
00000001005ab710 t __ZN4llvm11DbgVariable13initializeMMIEPKNS_12DIExpressionEi
00000001005adb30 t __ZN4llvm11DbgVariable18initializeDbgValueEPKNS_12MachineInstrE
00000001005bc4a0 t __ZN4llvm11DbgVariableD0Ev
00000001005bc470 t __ZN4llvm11DbgVariableD1Ev
00000001006fb680 T __ZN4llvm11EdgeBundles20runOnMachineFunctionERNS_15MachineFunctionE
00000001015ae9f1 S __ZN4llvm11EdgeBundles2IDE
00000001006fc3c0 t __ZN4llvm11EdgeBundlesD0Ev
00000001006fc2d0 t __ZN4llvm11EdgeBundlesD1Ev
0000000100dc3360 T __ZN4llvm11GlobalAlias10setAliaseeEPNS_8ConstantE
0000000100dc3270 T __ZN4llvm11GlobalAlias6createEPNS_4TypeEjNS_11GlobalValue12LinkageTypesERKNS_5TwineEPNS_6ModuleE
0000000100dc3480 T __ZN4llvm11GlobalIFunc6createEPNS_4TypeEjNS_11GlobalValue12LinkageTypesERKNS_5TwineEPNS_8ConstantEPNS_6ModuleE
0000000100dc1f40 T __ZN4llvm11GlobalValue19destroyConstantImplEv
0000000100dc1f60 T __ZN4llvm11GlobalValue23handleOperandChangeImplEPNS_5ValueES2_
0000000100dc3150 t __ZN4llvm11GlobalValueC2EPNS_4TypeENS_5Value7ValueTyEPNS_3UseEjNS0_12LinkageTypesERKNS_5TwineEj
000000010082dc10 t __ZN4llvm11GraphTraitsIPKNS_13MachineRegionEE11nodes_beginES3_
0000000100abe800 t __ZN4llvm11GraphTraitsIPNS_13CallGraphNodeEE11CGNGetValueENSt3__14pairINS_14WeakTrackingVHES2_EE
000000010082d8a0 t __ZN4llvm11GraphTraitsIPNS_13MachineRegionEE11nodes_beginES2_
000000010092b5a0 t __ZN4llvm11GraphWriterIPNS_11ScheduleDAGEE11writeHeaderERKNSt3__112basic_stringIcNS4_11char_traitsIcEENS4_9allocatorIcEEEE
0000000100535480 t __ZN4llvm11GraphWriterIPNS_11ScheduleDAGEE14emitSimpleNodeEPKvRKNSt3__112basic_stringIcNS6_11char_traitsIcEENS6_9allocatorIcEEEESE_jPKNS6_6vectorISC_NSA_ISC_EEEE
000000010092c000 t __ZN4llvm11GraphWriterIPNS_11ScheduleDAGEE8emitEdgeEPKviS5_iRKNSt3__112basic_stringIcNS6_11char_traitsIcEENS6_9allocatorIcEEEE
000000010092bec0 t __ZN4llvm11GraphWriterIPNS_11ScheduleDAGEE9writeEdgeEPNS_5SUnitEjNS_13SUnitIteratorE
000000010092ba00 t __ZN4llvm11GraphWriterIPNS_11ScheduleDAGEE9writeNodeEPNS_5SUnitE
0000000100535f40 t __ZN4llvm11GraphWriterIPNS_12SelectionDAGEE10writeGraphERKNSt3__112basic_stringIcNS4_11char_traitsIcEENS4_9allocatorIcEEEE
0000000100536000 t __ZN4llvm11GraphWriterIPNS_12SelectionDAGEE11writeHeaderERKNSt3__112basic_stringIcNS4_11char_traitsIcEENS4_9allocatorIcEEEE
0000000100537760 t __ZN4llvm11GraphWriterIPNS_12SelectionDAGEE14emitSimpleNodeEPKvRKNSt3__112basic_stringIcNS6_11char_traitsIcEENS6_9allocatorIcEEEESE_jPKNS6_6vectorISC_NSA_ISC_EEEE
00000001005370d0 t __ZN4llvm11GraphWriterIPNS_12SelectionDAGEE19getEdgeSourceLabelsERNS_11raw_ostreamEPNS_6SDNodeE
0000000100537510 t __ZN4llvm11GraphWriterIPNS_12SelectionDAGEE8emitEdgeEPKviS5_iRKNSt3__112basic_stringIcNS6_11char_traitsIcEENS6_9allocatorIcEEEE
0000000100537320 t __ZN4llvm11GraphWriterIPNS_12SelectionDAGEE9writeEdgeEPNS_6SDNodeEjNS_14SDNodeIteratorE
00000001005365b0 t __ZN4llvm11GraphWriterIPNS_12SelectionDAGEE9writeNodeEPNS_6SDNodeE
000000010084b700 t __ZN4llvm11GraphWriterIPNS_13ScheduleDAGMIEE11writeHeaderERKNSt3__112basic_stringIcNS4_11char_traitsIcEENS4_9allocatorIcEEEE
000000010084c3a0 t __ZN4llvm11GraphWriterIPNS_13ScheduleDAGMIEE8emitEdgeEPKviS5_iRKNSt3__112basic_stringIcNS6_11char_traitsIcEENS6_9allocatorIcEEEE
000000010084c260 t __ZN4llvm11GraphWriterIPNS_13ScheduleDAGMIEE9writeEdgeEPNS_5SUnitEjNS_13SUnitIteratorE
000000010084bb60 t __ZN4llvm11GraphWriterIPNS_13ScheduleDAGMIEE9writeNodeEPNS_5SUnitE
0000000100a8ebd0 t __ZN4llvm11GraphWriterIPNS_18BlockFrequencyInfoEE10writeGraphERKNSt3__112basic_stringIcNS4_11char_traitsIcEENS4_9allocatorIcEEEE
0000000100a8ec90 t __ZN4llvm11GraphWriterIPNS_18BlockFrequencyInfoEE11writeHeaderERKNSt3__112basic_stringIcNS4_11char_traitsIcEENS4_9allocatorIcEEEE
0000000100a8fd60 t __ZN4llvm11GraphWriterIPNS_18BlockFrequencyInfoEE8emitEdgeEPKviS5_iRKNSt3__112basic_stringIcNS6_11char_traitsIcEENS6_9allocatorIcEEEE
0000000100a8f0d0 t __ZN4llvm11GraphWriterIPNS_18BlockFrequencyInfoEE9writeNodeEPKNS_10BasicBlockE
0000000100795510 t __ZN4llvm11GraphWriterIPNS_25MachineBlockFrequencyInfoEE10writeGraphERKNSt3__112basic_stringIcNS4_11char_traitsIcEENS4_9allocatorIcEEEE
00000001007955d0 t __ZN4llvm11GraphWriterIPNS_25MachineBlockFrequencyInfoEE11writeHeaderERKNSt3__112basic_stringIcNS4_11char_traitsIcEENS4_9allocatorIcEEEE
0000000100796930 t __ZN4llvm11GraphWriterIPNS_25MachineBlockFrequencyInfoEE8emitEdgeEPKviS5_iRKNSt3__112basic_stringIcNS6_11char_traitsIcEENS6_9allocatorIcEEEE
0000000100795a10 t __ZN4llvm11GraphWriterIPNS_25MachineBlockFrequencyInfoEE9writeNodeEPKNS_17MachineBasicBlockE
0000000100ada8f0 T __ZN4llvm11IVStrideUse18transformToPostIncEPKNS_4LoopE
0000000100ada920 T __ZN4llvm11IVStrideUse7deletedEv
0000000100e483a0 t __ZN4llvm11InstVisitorIN12_GLOBAL__N_18VerifierEvE5visitERNS_11InstructionE
000000010064acd0 t __ZN4llvm11InstVisitorINS_11InterpreterEvE16delegateCallInstERNS_8CallInstE
000000010064a050 t __ZN4llvm11InstVisitorINS_11InterpreterEvE5visitERNS_11InstructionE
0000000100b0d6b0 t __ZN4llvm11InstVisitorINS_23ObjectSizeOffsetVisitorENSt3__14pairINS_5APIntES4_EEE16delegateCallInstERNS_8CallInstE
0000000100b0b2d0 t __ZN4llvm11InstVisitorINS_23ObjectSizeOffsetVisitorENSt3__14pairINS_5APIntES4_EEE5visitERNS_11InstructionE
0000000100ab26c0 t __ZN4llvm11InstVisitorINS_5cflaa15CFLGraphBuilderINS_17CFLAndersAAResultEE15GetEdgesVisitorEvE16delegateCallInstERNS_8CallInstE
0000000100aafec0 t __ZN4llvm11InstVisitorINS_5cflaa15CFLGraphBuilderINS_17CFLAndersAAResultEE15GetEdgesVisitorEvE5visitERNS_11InstructionE
0000000100ab7940 t __ZN4llvm11InstVisitorINS_5cflaa15CFLGraphBuilderINS_17CFLSteensAAResultEE15GetEdgesVisitorEvE16delegateCallInstERNS_8CallInstE
0000000100ab6470 t __ZN4llvm11InstVisitorINS_5cflaa15CFLGraphBuilderINS_17CFLSteensAAResultEE15GetEdgesVisitorEvE5visitERNS_11InstructionE
0000000100dc9c20 T __ZN4llvm11Instruction10andIRFlagsEPKNS_5ValueE
0000000100dc8e50 T __ZN4llvm11Instruction10moveBeforeEPS0_
0000000100dc8e70 T __ZN4llvm11Instruction10moveBeforeERNS_10BasicBlockENS_14ilist_iteratorINS_12ilist_detail12node_optionsIS0_Lb1ELb0EvEELb0ELb0EEE
0000000100dc9080 T __ZN4llvm11Instruction10setIsExactEb
0000000100dc9880 T __ZN4llvm11Instruction11copyIRFlagsEPKNS_5ValueEb
0000000100dc8db0 T __ZN4llvm11Instruction11insertAfterEPS0_
0000000100e06e70 T __ZN4llvm11Instruction11setMetadataEjPNS_6MDNodeE
0000000100dcbc10 T __ZN4llvm11Instruction12copyMetadataERKS0_NS_8ArrayRefIjEE
0000000100dc8d30 T __ZN4llvm11Instruction12insertBeforeEPS0_
0000000100dcb3d0 T __ZN4llvm11Instruction12setSuccessorEjPNS_10BasicBlockE
0000000100dc9ec0 T __ZN4llvm11Instruction13getOpcodeNameEj
0000000100e07820 T __ZN4llvm11Instruction13setAAMetadataERKNS_9AAMDNodesE
0000000100dc8ca0 T __ZN4llvm11Instruction15eraseFromParentEv
0000000100dc8c20 T __ZN4llvm11Instruction16removeFromParentEv
0000000100dc9250 T __ZN4llvm11Instruction16setFastMathFlagsENS_13FastMathFlagsE
0000000100dcba90 T __ZN4llvm11Instruction16swapProfMetadataEv
0000000100dcc340 T __ZN4llvm11Instruction16updateProfWeightEyy
0000000100dc9360 T __ZN4llvm11Instruction17copyFastMathFlagsENS_13FastMathFlagsE
0000000100dc9000 T __ZN4llvm11Instruction18setHasNoSignedWrapEb
0000000100d84390 T __ZN4llvm11Instruction19applyMergedLocationEPKNS_10DILocationES3_
0000000100dc8f80 T __ZN4llvm11Instruction20setHasNoUnsignedWrapEb
0000000100e081d0 T __ZN4llvm11Instruction24clearMetadataHashEntriesEv
0000000100e072e0 T __ZN4llvm11Instruction27dropUnknownNonDebugMetadataENS_8ArrayRefIjEE
0000000100dc8f60 T __ZN4llvm11Instruction9moveAfterEPS0_
0000000100dc8bf0 T __ZN4llvm11Instruction9setParentEPNS_10BasicBlockE
0000000100dc8a50 T __ZN4llvm11InstructionC2EPNS_4TypeEjPNS_3UseEjPNS_10BasicBlockE
0000000100dc8900 T __ZN4llvm11InstructionC2EPNS_4TypeEjPNS_3UseEjPS0_
0000000100dc8b90 T __ZN4llvm11InstructionD2Ev
0000000100e29190 T __ZN4llvm11IntegerType3getERNS_11LLVMContextEj
000000010063a680 T __ZN4llvm11Interpreter10exitCalledENS_12GenericValueE
000000010064ebb0 T __ZN4llvm11Interpreter11runFunctionEPNS_8FunctionENS_8ArrayRefINS_12GenericValueEEE
000000010063cfd0 T __ZN4llvm11Interpreter12callFunctionEPNS_8FunctionENS_8ArrayRefINS_12GenericValueEEE
000000010063c9a0 T __ZN4llvm11Interpreter13visitCallSiteENS_8CallSiteE
000000010062dea0 T __ZN4llvm11Interpreter13visitFCmpInstERNS_8FCmpInstE
000000010062a390 T __ZN4llvm11Interpreter13visitICmpInstERNS_8ICmpInstE
000000010063c5e0 T __ZN4llvm11Interpreter13visitLoadInstERNS_8LoadInstE
000000010063c860 T __ZN4llvm11Interpreter14visitStoreInstERNS_9StoreInstE
00000001006417b0 T __ZN4llvm11Interpreter14visitVAArgInstERNS_9VAArgInstE
000000010063f0d0 T __ZN4llvm11Interpreter15executeSExtInstEPNS_5ValueEPNS_4TypeERNS_16ExecutionContextE
000000010063f320 T __ZN4llvm11Interpreter15executeZExtInstEPNS_5ValueEPNS_4TypeERNS_16ExecutionContextE
000000010062c3d0 T __ZN4llvm11Interpreter15getOperandValueEPNS_5ValueERNS_16ExecutionContextE
000000010063b9c0 T __ZN4llvm11Interpreter15visitAllocaInstERNS_10AllocaInstE
000000010063b100 T __ZN4llvm11Interpreter15visitBranchInstERNS_10BranchInstE
000000010063aea0 T __ZN4llvm11Interpreter15visitReturnInstERNS_10ReturnInstE
0000000100639d40 T __ZN4llvm11Interpreter15visitSelectInstERNS_10SelectInstE
000000010063b2a0 T __ZN4llvm11Interpreter15visitSwitchInstERNS_10SwitchInstE
000000010064db30 t __ZN4llvm11Interpreter16addAtExitHandlerEPNS_8FunctionE
000000010063f770 T __ZN4llvm11Interpreter16executeFPExtInstEPNS_5ValueEPNS_4TypeERNS_16ExecutionContextE
000000010063ee90 T __ZN4llvm11Interpreter16executeTruncInstEPNS_5ValueEPNS_4TypeERNS_16ExecutionContextE
000000010063fc80 T __ZN4llvm11Interpreter17executeFPToSIInstEPNS_5ValueEPNS_4TypeERNS_16ExecutionContextE
000000010063f970 T __ZN4llvm11Interpreter17executeFPToUIInstEPNS_5ValueEPNS_4TypeERNS_16ExecutionContextE
0000000100640150 T __ZN4llvm11Interpreter17executeSIToFPInstEPNS_5ValueEPNS_4TypeERNS_16ExecutionContextE
000000010063ff90 T __ZN4llvm11Interpreter17executeUIToFPInstEPNS_5ValueEPNS_4TypeERNS_16ExecutionContextE
000000010064eb50 T __ZN4llvm11Interpreter17runAtExitHandlersEv
0000000100640630 T __ZN4llvm11Interpreter18executeBitCastInstEPNS_5ValueEPNS_4TypeERNS_16ExecutionContextE
000000010063f570 T __ZN4llvm11Interpreter18executeFPTruncInstEPNS_5ValueEPNS_4TypeERNS_16ExecutionContextE
000000010063bf60 T __ZN4llvm11Interpreter19executeGEPOperationEPNS_5ValueENS_25generic_gep_type_iteratorIPKNS_3UseEEES7_RNS_16ExecutionContextE
00000001006404e0 T __ZN4llvm11Interpreter19executeIntToPtrInstEPNS_5ValueEPNS_4TypeERNS_16ExecutionContextE
0000000100640310 T __ZN4llvm11Interpreter19executePtrToIntInstEPNS_5ValueEPNS_4TypeERNS_16ExecutionContextE
0000000100637490 T __ZN4llvm11Interpreter19visitBinaryOperatorERNS_14BinaryOperatorE
000000010063b8f0 T __ZN4llvm11Interpreter19visitIndirectBrInstERNS_14IndirectBrInstE
000000010064af80 T __ZN4llvm11Interpreter20callExternalFunctionEPNS_8FunctionENS_8ArrayRefINS_12GenericValueEEE
0000000100643420 T __ZN4llvm11Interpreter20getConstantExprValueEPNS_12ConstantExprERNS_16ExecutionContextE
000000010064ee40 t __ZN4llvm11Interpreter20getPointerToFunctionEPNS_8FunctionE
0000000100642f10 T __ZN4llvm11Interpreter20visitInsertValueInstERNS_15InsertValueInstE
000000010063b0e0 T __ZN4llvm11Interpreter20visitUnreachableInstERNS_15UnreachableInstE
000000010063aa10 T __ZN4llvm11Interpreter21SwitchToNewBasicBlockEPNS_10BasicBlockERNS_16ExecutionContextE
0000000100642b60 T __ZN4llvm11Interpreter21visitExtractValueInstERNS_16ExtractValueInstE
000000010063c3f0 T __ZN4llvm11Interpreter22visitGetElementPtrInstERNS_17GetElementPtrInstE
0000000100642040 T __ZN4llvm11Interpreter22visitInsertElementInstERNS_17InsertElementInstE
00000001006424c0 T __ZN4llvm11Interpreter22visitShuffleVectorInstERNS_17ShuffleVectorInstE
0000000100641c10 T __ZN4llvm11Interpreter23visitExtractElementInstERNS_18ExtractElementInstE
000000010064edf0 t __ZN4llvm11Interpreter25getPointerToNamedFunctionENS_9StringRefEb
000000010064bb20 T __ZN4llvm11Interpreter27initializeExternalFunctionsEv
000000010063a730 T __ZN4llvm11Interpreter30popStackAndReturnValueToCallerEPNS_4TypeENS_12GenericValueE
0000000100649f10 T __ZN4llvm11Interpreter3runEv
000000010064e530 T __ZN4llvm11Interpreter6createENSt3__110unique_ptrINS_6ModuleENS1_14default_deleteIS3_EEEEPNS1_12basic_stringIcNS1_11char_traitsIcEENS1_9allocatorIcEEEE
000000010063d5f0 T __ZN4llvm11Interpreter8visitShlERNS_14BinaryOperatorE
000000010063e620 T __ZN4llvm11Interpreter9visitAShrERNS_14BinaryOperatorE
000000010063de00 T __ZN4llvm11Interpreter9visitLShrERNS_14BinaryOperatorE
000000010064e950 T __ZN4llvm11InterpreterC2ENSt3__110unique_ptrINS_6ModuleENS1_14default_deleteIS3_EEEE
000000010064eb30 T __ZN4llvm11InterpreterD0Ev
000000010064eb20 T __ZN4llvm11InterpreterD1Ev
000000010064ea50 T __ZN4llvm11InterpreterD2Ev
000000010074bab0 t __ZN4llvm11IntervalMapINS_9SlotIndexE16DbgValueLocationLj4ENS_15IntervalMapInfoIS1_EEE10branchRootEj
000000010074a1d0 T __ZN4llvm11IntervalMapINS_9SlotIndexE16DbgValueLocationLj4ENS_15IntervalMapInfoIS1_EEE10deleteNodeENS_15IntervalMapImpl7NodeRefEj
0000000100749d70 t __ZN4llvm11IntervalMapINS_9SlotIndexE16DbgValueLocationLj4ENS_15IntervalMapInfoIS1_EEE10visitNodesEMS5_FvNS_15IntervalMapImpl7NodeRefEjE
000000010074ad80 t __ZN4llvm11IntervalMapINS_9SlotIndexE16DbgValueLocationLj4ENS_15IntervalMapInfoIS1_EEE14const_iterator12pathFillFindES1_
000000010074f980 t __ZN4llvm11IntervalMapINS_9SlotIndexE16DbgValueLocationLj4ENS_15IntervalMapInfoIS1_EEE14const_iterator13treeAdvanceToES1_
000000010074a8d0 t __ZN4llvm11IntervalMapINS_9SlotIndexE16DbgValueLocationLj4ENS_15IntervalMapInfoIS1_EEE14const_iterator4findES1_
000000010074aa40 t __ZN4llvm11IntervalMapINS_9SlotIndexE16DbgValueLocationLj4ENS_15IntervalMapInfoIS1_EEE14const_iterator7setRootEj
000000010074f670 t __ZN4llvm11IntervalMapINS_9SlotIndexE16DbgValueLocationLj4ENS_15IntervalMapInfoIS1_EEE14const_iterator9advanceToES1_
000000010074f860 t __ZN4llvm11IntervalMapINS_9SlotIndexE16DbgValueLocationLj4ENS_15IntervalMapInfoIS1_EEE14const_iterator9goToBeginEv
000000010074efc0 t __ZN4llvm11IntervalMapINS_9SlotIndexE16DbgValueLocationLj4ENS_15IntervalMapInfoIS1_EEE14const_iteratorppEv
000000010074d550 t __ZN4llvm11IntervalMapINS_9SlotIndexE16DbgValueLocationLj4ENS_15IntervalMapInfoIS1_EEE8iterator10insertNodeEjNS_15IntervalMapImpl7NodeRefES1_
000000010074b2b0 t __ZN4llvm11IntervalMapINS_9SlotIndexE16DbgValueLocationLj4ENS_15IntervalMapInfoIS1_EEE8iterator10treeInsertES1_S1_S2_
000000010074bd20 t __ZN4llvm11IntervalMapINS_9SlotIndexE16DbgValueLocationLj4ENS_15IntervalMapInfoIS1_EEE8iterator11setNodeStopEjS1_
000000010074eed0 t __ZN4llvm11IntervalMapINS_9SlotIndexE16DbgValueLocationLj4ENS_15IntervalMapInfoIS1_EEE8iterator15canCoalesceLeftES1_S2_
000000010074ebc0 t __ZN4llvm11IntervalMapINS_9SlotIndexE16DbgValueLocationLj4ENS_15IntervalMapInfoIS1_EEE8iterator16canCoalesceRightES1_S2_
000000010074f5a0 t __ZN4llvm11IntervalMapINS_9SlotIndexE16DbgValueLocationLj4ENS_15IntervalMapInfoIS1_EEE8iterator16setStopUncheckedES1_
000000010074ecb0 t __ZN4llvm11IntervalMapINS_9SlotIndexE16DbgValueLocationLj4ENS_15IntervalMapInfoIS1_EEE8iterator5eraseEv
000000010074a440 t __ZN4llvm11IntervalMapINS_9SlotIndexE16DbgValueLocationLj4ENS_15IntervalMapInfoIS1_EEE8iterator6insertES1_S1_S2_
000000010074e540 t __ZN4llvm11IntervalMapINS_9SlotIndexE16DbgValueLocationLj4ENS_15IntervalMapInfoIS1_EEE8iterator8overflowINS_15IntervalMapImpl10BranchNodeIS1_S2_Lj12ES4_EEEEbj
000000010074c600 t __ZN4llvm11IntervalMapINS_9SlotIndexE16DbgValueLocationLj4ENS_15IntervalMapInfoIS1_EEE8iterator8overflowINS_15IntervalMapImpl8LeafNodeIS1_S2_Lj9ES4_EEEEbj
00000001007510a0 t __ZN4llvm11IntervalMapINS_9SlotIndexE16DbgValueLocationLj4ENS_15IntervalMapInfoIS1_EEE8iterator8setStartES1_
000000010074a5b0 t __ZN4llvm11IntervalMapINS_9SlotIndexE16DbgValueLocationLj4ENS_15IntervalMapInfoIS1_EEE8iterator8setValueES2_
000000010074cb00 t __ZN4llvm11IntervalMapINS_9SlotIndexE16DbgValueLocationLj4ENS_15IntervalMapInfoIS1_EEE8iterator9eraseNodeEj
000000010074bdb0 t __ZN4llvm11IntervalMapINS_9SlotIndexE16DbgValueLocationLj4ENS_15IntervalMapInfoIS1_EEE8iterator9treeEraseEb
000000010074e1d0 t __ZN4llvm11IntervalMapINS_9SlotIndexE16DbgValueLocationLj4ENS_15IntervalMapInfoIS1_EEE9splitRootEj
0000000100765c90 t __ZN4llvm11IntervalMapINS_9SlotIndexEPNS_12LiveIntervalELj8ENS_15IntervalMapInfoIS1_EEE10branchRootEj
0000000100776bb0 T __ZN4llvm11IntervalMapINS_9SlotIndexEPNS_12LiveIntervalELj8ENS_15IntervalMapInfoIS1_EEE10deleteNodeENS_15IntervalMapImpl7NodeRefEj
0000000100776740 t __ZN4llvm11IntervalMapINS_9SlotIndexEPNS_12LiveIntervalELj8ENS_15IntervalMapInfoIS1_EEE10visitNodesEMS6_FvNS_15IntervalMapImpl7NodeRefEjE
00000001008c9c90 t __ZN4llvm11IntervalMapINS_9SlotIndexEPNS_12LiveIntervalELj8ENS_15IntervalMapInfoIS1_EEE14const_iterator12pathFillFindES1_
000000010072b530 t __ZN4llvm11IntervalMapINS_9SlotIndexEPNS_12LiveIntervalELj8ENS_15IntervalMapInfoIS1_EEE14const_iterator13treeAdvanceToES1_
00000001008c9900 t __ZN4llvm11IntervalMapINS_9SlotIndexEPNS_12LiveIntervalELj8ENS_15IntervalMapInfoIS1_EEE14const_iterator4findES1_
00000001008c9a70 t __ZN4llvm11IntervalMapINS_9SlotIndexEPNS_12LiveIntervalELj8ENS_15IntervalMapInfoIS1_EEE14const_iterator7setRootEj
000000010072af20 t __ZN4llvm11IntervalMapINS_9SlotIndexEPNS_12LiveIntervalELj8ENS_15IntervalMapInfoIS1_EEE14const_iterator9advanceToES1_
00000001008c9f70 t __ZN4llvm11IntervalMapINS_9SlotIndexEPNS_12LiveIntervalELj8ENS_15IntervalMapInfoIS1_EEE14const_iteratorppEv
0000000100767320 t __ZN4llvm11IntervalMapINS_9SlotIndexEPNS_12LiveIntervalELj8ENS_15IntervalMapInfoIS1_EEE8iterator10insertNodeEjNS_15IntervalMapImpl7NodeRefES1_
0000000100765440 t __ZN4llvm11IntervalMapINS_9SlotIndexEPNS_12LiveIntervalELj8ENS_15IntervalMapInfoIS1_EEE8iterator10treeInsertES1_S1_S3_
0000000100765f90 t __ZN4llvm11IntervalMapINS_9SlotIndexEPNS_12LiveIntervalELj8ENS_15IntervalMapInfoIS1_EEE8iterator11setNodeStopEjS1_
0000000100764aa0 t __ZN4llvm11IntervalMapINS_9SlotIndexEPNS_12LiveIntervalELj8ENS_15IntervalMapInfoIS1_EEE8iterator5eraseEv
0000000100764790 t __ZN4llvm11IntervalMapINS_9SlotIndexEPNS_12LiveIntervalELj8ENS_15IntervalMapInfoIS1_EEE8iterator6insertES1_S1_S3_
0000000100768350 t __ZN4llvm11IntervalMapINS_9SlotIndexEPNS_12LiveIntervalELj8ENS_15IntervalMapInfoIS1_EEE8iterator8overflowINS_15IntervalMapImpl10BranchNodeIS1_S3_Lj12ES5_EEEEbj
00000001007663f0 t __ZN4llvm11IntervalMapINS_9SlotIndexEPNS_12LiveIntervalELj8ENS_15IntervalMapInfoIS1_EEE8iterator8overflowINS_15IntervalMapImpl8LeafNodeIS1_S3_Lj8ES5_EEEEbj
0000000100766900 t __ZN4llvm11IntervalMapINS_9SlotIndexEPNS_12LiveIntervalELj8ENS_15IntervalMapInfoIS1_EEE8iterator9eraseNodeEj
0000000100766020 t __ZN4llvm11IntervalMapINS_9SlotIndexEPNS_12LiveIntervalELj8ENS_15IntervalMapInfoIS1_EEE8iterator9treeEraseEb
0000000100767fb0 t __ZN4llvm11IntervalMapINS_9SlotIndexEPNS_12LiveIntervalELj8ENS_15IntervalMapInfoIS1_EEE9splitRootEj
000000010094d580 t __ZN4llvm11IntervalMapINS_9SlotIndexEjLj9ENS_15IntervalMapInfoIS1_EEE10branchRootEj
00000001008b8a30 T __ZN4llvm11IntervalMapINS_9SlotIndexEjLj9ENS_15IntervalMapInfoIS1_EEE10deleteNodeENS_15IntervalMapImpl7NodeRefEj
00000001008b85c0 t __ZN4llvm11IntervalMapINS_9SlotIndexEjLj9ENS_15IntervalMapInfoIS1_EEE10visitNodesEMS4_FvNS_15IntervalMapImpl7NodeRefEjE
0000000100950cc0 t __ZN4llvm11IntervalMapINS_9SlotIndexEjLj9ENS_15IntervalMapInfoIS1_EEE14const_iterator12pathFillFindES1_
0000000100951840 t __ZN4llvm11IntervalMapINS_9SlotIndexEjLj9ENS_15IntervalMapInfoIS1_EEE14const_iterator13treeAdvanceToES1_
00000001009433a0 t __ZN4llvm11IntervalMapINS_9SlotIndexEjLj9ENS_15IntervalMapInfoIS1_EEE14const_iterator4findES1_
000000010094c390 t __ZN4llvm11IntervalMapINS_9SlotIndexEjLj9ENS_15IntervalMapInfoIS1_EEE14const_iterator7setRootEj
00000001009472b0 t __ZN4llvm11IntervalMapINS_9SlotIndexEjLj9ENS_15IntervalMapInfoIS1_EEE14const_iterator9advanceToES1_
000000010094c270 t __ZN4llvm11IntervalMapINS_9SlotIndexEjLj9ENS_15IntervalMapInfoIS1_EEE14const_iterator9goToBeginEv
000000010093f580 t __ZN4llvm11IntervalMapINS_9SlotIndexEjLj9ENS_15IntervalMapInfoIS1_EEE14const_iteratorppEv
00000001009419a0 t __ZN4llvm11IntervalMapINS_9SlotIndexEjLj9ENS_15IntervalMapInfoIS1_EEE6insertES1_S1_j
000000010094ec30 t __ZN4llvm11IntervalMapINS_9SlotIndexEjLj9ENS_15IntervalMapInfoIS1_EEE8iterator10insertNodeEjNS_15IntervalMapImpl7NodeRefES1_
000000010094d1e0 t __ZN4llvm11IntervalMapINS_9SlotIndexEjLj9ENS_15IntervalMapInfoIS1_EEE8iterator10treeInsertES1_S1_j
000000010094d8c0 t __ZN4llvm11IntervalMapINS_9SlotIndexEjLj9ENS_15IntervalMapInfoIS1_EEE8iterator11setNodeStopEjS1_
00000001009511f0 t __ZN4llvm11IntervalMapINS_9SlotIndexEjLj9ENS_15IntervalMapInfoIS1_EEE8iterator16canCoalesceRightES1_j
00000001009512e0 t __ZN4llvm11IntervalMapINS_9SlotIndexEjLj9ENS_15IntervalMapInfoIS1_EEE8iterator16setStopUncheckedES1_
00000001009513a0 t __ZN4llvm11IntervalMapINS_9SlotIndexEjLj9ENS_15IntervalMapInfoIS1_EEE8iterator5eraseEv
000000010094ca90 t __ZN4llvm11IntervalMapINS_9SlotIndexEjLj9ENS_15IntervalMapInfoIS1_EEE8iterator6insertES1_S1_j
0000000100943510 t __ZN4llvm11IntervalMapINS_9SlotIndexEjLj9ENS_15IntervalMapInfoIS1_EEE8iterator7setStopES1_
000000010094fc60 t __ZN4llvm11IntervalMapINS_9SlotIndexEjLj9ENS_15IntervalMapInfoIS1_EEE8iterator8overflowINS_15IntervalMapImpl10BranchNodeIS1_jLj12ES3_EEEEbj
000000010094dd10 t __ZN4llvm11IntervalMapINS_9SlotIndexEjLj9ENS_15IntervalMapInfoIS1_EEE8iterator8overflowINS_15IntervalMapImpl8LeafNodeIS1_jLj9ES3_EEEEbj
000000010094e210 t __ZN4llvm11IntervalMapINS_9SlotIndexEjLj9ENS_15IntervalMapInfoIS1_EEE8iterator9eraseNodeEj
000000010094d950 t __ZN4llvm11IntervalMapINS_9SlotIndexEjLj9ENS_15IntervalMapInfoIS1_EEE8iterator9treeEraseEb
000000010094f8c0 t __ZN4llvm11IntervalMapINS_9SlotIndexEjLj9ENS_15IntervalMapInfoIS1_EEE9splitRootEj
000000010038a050 t __ZN4llvm11IntervalMapIx5UnitTLj8ENS_23IntervalMapHalfOpenInfoIxEEE10branchRootEj
000000010038e360 T __ZN4llvm11IntervalMapIx5UnitTLj8ENS_23IntervalMapHalfOpenInfoIxEEE10deleteNodeENS_15IntervalMapImpl7NodeRefEj
000000010038def0 t __ZN4llvm11IntervalMapIx5UnitTLj8ENS_23IntervalMapHalfOpenInfoIxEEE10visitNodesEMS4_FvNS_15IntervalMapImpl7NodeRefEjE
000000010038dbc0 t __ZN4llvm11IntervalMapIx5UnitTLj8ENS_23IntervalMapHalfOpenInfoIxEEE14const_iterator12pathFillFindEx
000000010038b860 t __ZN4llvm11IntervalMapIx5UnitTLj8ENS_23IntervalMapHalfOpenInfoIxEEE14const_iterator7setRootEj
000000010038db10 t __ZN4llvm11IntervalMapIx5UnitTLj8ENS_23IntervalMapHalfOpenInfoIxEEE14const_iterator8treeFindEx
000000010038ddd0 t __ZN4llvm11IntervalMapIx5UnitTLj8ENS_23IntervalMapHalfOpenInfoIxEEE14const_iterator9goToBeginEv
00000001003894f0 t __ZN4llvm11IntervalMapIx5UnitTLj8ENS_23IntervalMapHalfOpenInfoIxEEE6insertExxS1_
000000010038bac0 t __ZN4llvm11IntervalMapIx5UnitTLj8ENS_23IntervalMapHalfOpenInfoIxEEE8iterator10insertNodeEjNS_15IntervalMapImpl7NodeRefEx
0000000100389ca0 t __ZN4llvm11IntervalMapIx5UnitTLj8ENS_23IntervalMapHalfOpenInfoIxEEE8iterator10treeInsertExxS1_
00000001003897d0 t __ZN4llvm11IntervalMapIx5UnitTLj8ENS_23IntervalMapHalfOpenInfoIxEEE8iterator6insertExxS1_
000000010038cb20 t __ZN4llvm11IntervalMapIx5UnitTLj8ENS_23IntervalMapHalfOpenInfoIxEEE8iterator8overflowINS_15IntervalMapImpl10BranchNodeIxS1_Lj12ES3_EEEEbj
000000010038aa40 t __ZN4llvm11IntervalMapIx5UnitTLj8ENS_23IntervalMapHalfOpenInfoIxEEE8iterator8overflowINS_15IntervalMapImpl8LeafNodeIxS1_Lj11ES3_EEEEbj
000000010038b010 t __ZN4llvm11IntervalMapIx5UnitTLj8ENS_23IntervalMapHalfOpenInfoIxEEE8iterator9eraseNodeEj
000000010038a300 t __ZN4llvm11IntervalMapIx5UnitTLj8ENS_23IntervalMapHalfOpenInfoIxEEE8iterator9treeEraseEb
000000010038c760 t __ZN4llvm11IntervalMapIx5UnitTLj8ENS_23IntervalMapHalfOpenInfoIxEEE9splitRootEj
0000000100dda9e0 T __ZN4llvm11LLVMContext12removeModuleEPNS_6ModuleE
0000000100ddb000 T __ZN4llvm11LLVMContext22getOrInsertSyncScopeIDENS_9StringRefE
0000000100ddaaf0 T __ZN4llvm11LLVMContext24getDiagnosticsOutputFileEv
0000000100ddb1d0 T __ZN4llvm11LLVMContext5getGCERKNS_8FunctionE
0000000100ddb020 T __ZN4llvm11LLVMContext5setGCERKNS_8FunctionENSt3__112basic_stringIcNS4_11char_traitsIcEENS4_9allocatorIcEEEE
0000000100ddab00 T __ZN4llvm11LLVMContext5yieldEv
0000000100ddb2e0 T __ZN4llvm11LLVMContext8deleteGCERKNS_8FunctionE
0000000100ddab70 T __ZN4llvm11LLVMContext8diagnoseERKNS_14DiagnosticInfoE
0000000100dda9c0 T __ZN4llvm11LLVMContext9addModuleEPNS_6ModuleE
0000000100ddadc0 T __ZN4llvm11LLVMContext9emitErrorEPKNS_11InstructionERKNS_5TwineE
0000000100ddab20 T __ZN4llvm11LLVMContext9emitErrorERKNS_5TwineE
0000000100ddae20 T __ZN4llvm11LLVMContext9emitErrorEjRKNS_5TwineE
0000000100dda980 T __ZN4llvm11LLVMContextC1Ev
0000000100dda3b0 T __ZN4llvm11LLVMContextC2Ev
0000000100dda990 T __ZN4llvm11LLVMContextD1Ev
0000000100c48aa0 T __ZN4llvm11MCAsmLayout14layoutFragmentEPNS_10MCFragmentE
0000000100c67120 T __ZN4llvm11MCAsmLayout23invalidateFragmentsFromEPNS_10MCFragmentE
0000000100c67020 T __ZN4llvm11MCAsmLayoutC1ERNS_11MCAssemblerE
0000000100c66ea0 T __ZN4llvm11MCAsmLayoutC2ERNS_11MCAssemblerE
0000000100c31d80 T __ZN4llvm11MCAsmParser10parseTokenENS_8AsmToken9TokenKindERKNS_5TwineE
0000000100c31e30 T __ZN4llvm11MCAsmParser13parseIntTokenERxRKNS_5TwineE
0000000100c31b20 T __ZN4llvm11MCAsmParser13parseTokenLocERNS_5SMLocE
0000000100c320b0 T __ZN4llvm11MCAsmParser14addErrorSuffixERKNS_5TwineE
0000000100c32270 T __ZN4llvm11MCAsmParser15parseExpressionERPKNS_6MCExprE
0000000100c31aa0 T __ZN4llvm11MCAsmParser15setTargetParserERNS_17MCTargetAsmParserE
0000000100c31f90 T __ZN4llvm11MCAsmParser18parseOptionalTokenENS_8AsmToken9TokenKindE
0000000100c1db50 t __ZN4llvm11MCAsmParser18printPendingErrorsEv
0000000100c32300 t __ZN4llvm11MCAsmParser19getAssemblerDialectEv
0000000100c32310 t __ZN4llvm11MCAsmParser19setAssemblerDialectEj
0000000100c31c00 T __ZN4llvm11MCAsmParser5ErrorENS_5SMLocERKNS_5TwineENS_7SMRangeE
0000000100c32080 T __ZN4llvm11MCAsmParser5checkEbNS_5SMLocERKNS_5TwineE
0000000100c32010 T __ZN4llvm11MCAsmParser5checkEbRKNS_5TwineE
0000000100c31f40 T __ZN4llvm11MCAsmParser8TokErrorERKNS_5TwineENS_7SMRangeE
0000000100c31b70 T __ZN4llvm11MCAsmParser8parseEOLERKNS_5TwineE
0000000100c32150 T __ZN4llvm11MCAsmParser9parseManyENS_12function_refIFbvEEEb
0000000100c319b0 T __ZN4llvm11MCAsmParserC2Ev
0000000100c31a90 T __ZN4llvm11MCAsmParserD0Ev
0000000100c31a80 T __ZN4llvm11MCAsmParserD1Ev
0000000100c319f0 T __ZN4llvm11MCAsmParserD2Ev
0000000100c74890 t __ZN4llvm11MCAssembler11addFileNameENS_9StringRefE
0000000100c4ab50 T __ZN4llvm11MCAssembler11handleFixupERKNS_11MCAsmLayoutERNS_10MCFragmentERKNS_7MCFixupE
0000000100c4b8c0 T __ZN4llvm11MCAssembler12finishLayoutERNS_11MCAsmLayoutE
0000000100c48d90 T __ZN4llvm11MCAssembler14registerSymbolERKNS_8MCSymbolEPb
0000000100c47f50 T __ZN4llvm11MCAssembler15registerSectionERNS_9MCSectionE
0000000100c4bba0 T __ZN4llvm11MCAssembler16relaxInstructionERNS_11MCAsmLayoutERNS_19MCRelaxableFragmentE
0000000100c4c5d0 T __ZN4llvm11MCAssembler17layoutSectionOnceERNS_11MCAsmLayoutERNS_9MCSectionE
0000000100c4c2a0 T __ZN4llvm11MCAssembler18relaxDwarfLineAddrERNS_11MCAsmLayoutERNS_23MCDwarfLineAddrFragmentE
0000000100c4bef0 T __ZN4llvm11MCAssembler20relaxPaddingFragmentERNS_11MCAsmLayoutERNS_17MCPaddingFragmentE
0000000100c4c500 T __ZN4llvm11MCAssembler27relaxDwarfCallFrameFragmentERNS_11MCAsmLayoutERNS_24MCDwarfCallFrameFragmentE
0000000100c47c80 T __ZN4llvm11MCAssembler5resetEv
0000000100c4b9c0 T __ZN4llvm11MCAssembler6FinishEv
0000000100c4ae20 T __ZN4llvm11MCAssembler6layoutERNS_11MCAsmLayoutE
0000000100c4bfb0 T __ZN4llvm11MCAssembler8relaxLEBERNS_11MCAsmLayoutERNS_13MCLEBFragmentE
0000000100c478b0 T __ZN4llvm11MCAssemblerC1ERNS_9MCContextENSt3__110unique_ptrINS_12MCAsmBackendENS3_14default_deleteIS5_EEEENS4_INS_13MCCodeEmitterENS6_IS9_EEEENS4_INS_14MCObjectWriterENS6_ISC_EEEE
0000000100c47c70 T __ZN4llvm11MCAssemblerD1Ev
0000000100c479f0 T __ZN4llvm11MCAssemblerD2Ev
0000000100c817c0 T __ZN4llvm11MCSymbolELF13setVisibilityEj
0000000100c81840 T __ZN4llvm11MCSymbolELF8setOtherEj
0000000100c64590 T __ZN4llvm11MCUnaryExpr6createENS0_6OpcodeEPKNS_6MCExprERNS_9MCContextENS_5SMLocE
0000000100e06380 T __ZN4llvm11NamedMDNode10addOperandEPNS_6MDNodeE
0000000100e06400 T __ZN4llvm11NamedMDNode10setOperandEjPNS_6MDNodeE
0000000100e06510 T __ZN4llvm11NamedMDNode15eraseFromParentEv
0000000100e06150 T __ZN4llvm11NamedMDNodeC1ERKNS_5TwineE
0000000100e062f0 T __ZN4llvm11NamedMDNodeD1Ev
0000000100e061b0 T __ZN4llvm11NamedMDNodeD2Ev
0000000100e2aec0 T __ZN4llvm11PointerType18isValidElementTypeEPNS_4TypeE
0000000100e2aef0 T __ZN4llvm11PointerType24isLoadableOrStorableTypeEPNS_4TypeE
0000000100e2ac70 T __ZN4llvm11PointerType3getEPNS_4TypeEj
